
533.elf:     file format elf32-littlearm

Sections:
Idx Name          Size      VMA       LMA       File off  Algn
  0 .isr_vector   00000254  08000000  08000000  00001000  2**0
                  CONTENTS, ALLOC, LOAD, READONLY, DATA
  1 .text         000068bc  08000258  08000258  00001258  2**3
                  CONTENTS, ALLOC, LOAD, READONLY, CODE
  2 .rodata       00000724  08006b18  08006b18  00007b18  2**3
                  CONTENTS, ALLOC, LOAD, READONLY, DATA
  3 .ARM.extab    00000000  0800723c  0800723c  000091cc  2**0
                  CONTENTS, READONLY
  4 .ARM          00000008  0800723c  0800723c  0000823c  2**2
                  CONTENTS, ALLOC, LOAD, READONLY, DATA
  5 .preinit_array 00000000  08007244  08007244  000091cc  2**0
                  CONTENTS, ALLOC, LOAD, DATA
  6 .init_array   00000004  08007244  08007244  00008244  2**2
                  CONTENTS, ALLOC, LOAD, READONLY, DATA
  7 .fini_array   00000004  08007248  08007248  00008248  2**2
                  CONTENTS, ALLOC, LOAD, READONLY, DATA
  8 .data         000001cc  20000000  0800724c  00009000  2**2
                  CONTENTS, ALLOC, LOAD, DATA
  9 .bss          000012ec  200001cc  08007418  000091cc  2**2
                  ALLOC
 10 ._user_heap_stack 00000600  200014b8  08007418  000094b8  2**0
                  ALLOC
 11 .ARM.attributes 00000036  00000000  00000000  000091cc  2**0
                  CONTENTS, READONLY
 12 .debug_info   0000b703  00000000  00000000  00009202  2**0
                  CONTENTS, READONLY, DEBUGGING, OCTETS
 13 .debug_abbrev 000021a6  00000000  00000000  00014905  2**0
                  CONTENTS, READONLY, DEBUGGING, OCTETS
 14 .debug_aranges 00000b80  00000000  00000000  00016ab0  2**3
                  CONTENTS, READONLY, DEBUGGING, OCTETS
 15 .debug_rnglists 00000868  00000000  00000000  00017630  2**0
                  CONTENTS, READONLY, DEBUGGING, OCTETS
 16 .debug_macro  00028944  00000000  00000000  00017e98  2**0
                  CONTENTS, READONLY, DEBUGGING, OCTETS
 17 .debug_line   0000bc5b  00000000  00000000  000407dc  2**0
                  CONTENTS, READONLY, DEBUGGING, OCTETS
 18 .debug_str    000e9ebb  00000000  00000000  0004c437  2**0
                  CONTENTS, READONLY, DEBUGGING, OCTETS
 19 .comment      00000043  00000000  00000000  001362f2  2**0
                  CONTENTS, READONLY
 20 .debug_frame  00003ee0  00000000  00000000  00136338  2**2
                  CONTENTS, READONLY, DEBUGGING, OCTETS
 21 .debug_line_str 00000052  00000000  00000000  0013a218  2**0
                  CONTENTS, READONLY, DEBUGGING, OCTETS

Disassembly of section .text:

08000258 <__do_global_dtors_aux>:
 8000258:	b510      	push	{r4, lr}
 800025a:	4c05      	ldr	r4, [pc, #20]	@ (8000270 <__do_global_dtors_aux+0x18>)
 800025c:	7823      	ldrb	r3, [r4, #0]
 800025e:	b933      	cbnz	r3, 800026e <__do_global_dtors_aux+0x16>
 8000260:	4b04      	ldr	r3, [pc, #16]	@ (8000274 <__do_global_dtors_aux+0x1c>)
 8000262:	b113      	cbz	r3, 800026a <__do_global_dtors_aux+0x12>
 8000264:	4804      	ldr	r0, [pc, #16]	@ (8000278 <__do_global_dtors_aux+0x20>)
 8000266:	f3af 8000 	nop.w
 800026a:	2301      	movs	r3, #1
 800026c:	7023      	strb	r3, [r4, #0]
 800026e:	bd10      	pop	{r4, pc}
 8000270:	200001cc 	.word	0x200001cc
 8000274:	00000000 	.word	0x00000000
 8000278:	08006afc 	.word	0x08006afc

0800027c <frame_dummy>:
 800027c:	b508      	push	{r3, lr}
 800027e:	4b03      	ldr	r3, [pc, #12]	@ (800028c <frame_dummy+0x10>)
 8000280:	b11b      	cbz	r3, 800028a <frame_dummy+0xe>
 8000282:	4903      	ldr	r1, [pc, #12]	@ (8000290 <frame_dummy+0x14>)
 8000284:	4803      	ldr	r0, [pc, #12]	@ (8000294 <frame_dummy+0x18>)
 8000286:	f3af 8000 	nop.w
 800028a:	bd08      	pop	{r3, pc}
 800028c:	00000000 	.word	0x00000000
 8000290:	200001d0 	.word	0x200001d0
 8000294:	08006afc 	.word	0x08006afc

08000298 <strlen>:
 8000298:	4603      	mov	r3, r0
 800029a:	f813 2b01 	ldrb.w	r2, [r3], #1
 800029e:	2a00      	cmp	r2, #0
 80002a0:	d1fb      	bne.n	800029a <strlen+0x2>
 80002a2:	1a18      	subs	r0, r3, r0
 80002a4:	3801      	subs	r0, #1
 80002a6:	4770      	bx	lr

080002a8 <__aeabi_drsub>:
 80002a8:	f081 4100 	eor.w	r1, r1, #2147483648	@ 0x80000000
 80002ac:	e002      	b.n	80002b4 <__adddf3>
 80002ae:	bf00      	nop

080002b0 <__aeabi_dsub>:
 80002b0:	f083 4300 	eor.w	r3, r3, #2147483648	@ 0x80000000

080002b4 <__adddf3>:
 80002b4:	b530      	push	{r4, r5, lr}
 80002b6:	ea4f 0441 	mov.w	r4, r1, lsl #1
 80002ba:	ea4f 0543 	mov.w	r5, r3, lsl #1
 80002be:	ea94 0f05 	teq	r4, r5
 80002c2:	bf08      	it	eq
 80002c4:	ea90 0f02 	teqeq	r0, r2
 80002c8:	bf1f      	itttt	ne
 80002ca:	ea54 0c00 	orrsne.w	ip, r4, r0
 80002ce:	ea55 0c02 	orrsne.w	ip, r5, r2
 80002d2:	ea7f 5c64 	mvnsne.w	ip, r4, asr #21
 80002d6:	ea7f 5c65 	mvnsne.w	ip, r5, asr #21
 80002da:	f000 80e2 	beq.w	80004a2 <__adddf3+0x1ee>
 80002de:	ea4f 5454 	mov.w	r4, r4, lsr #21
 80002e2:	ebd4 5555 	rsbs	r5, r4, r5, lsr #21
 80002e6:	bfb8      	it	lt
 80002e8:	426d      	neglt	r5, r5
 80002ea:	dd0c      	ble.n	8000306 <__adddf3+0x52>
 80002ec:	442c      	add	r4, r5
 80002ee:	ea80 0202 	eor.w	r2, r0, r2
 80002f2:	ea81 0303 	eor.w	r3, r1, r3
 80002f6:	ea82 0000 	eor.w	r0, r2, r0
 80002fa:	ea83 0101 	eor.w	r1, r3, r1
 80002fe:	ea80 0202 	eor.w	r2, r0, r2
 8000302:	ea81 0303 	eor.w	r3, r1, r3
 8000306:	2d36      	cmp	r5, #54	@ 0x36
 8000308:	bf88      	it	hi
 800030a:	bd30      	pophi	{r4, r5, pc}
 800030c:	f011 4f00 	tst.w	r1, #2147483648	@ 0x80000000
 8000310:	ea4f 3101 	mov.w	r1, r1, lsl #12
 8000314:	f44f 1c80 	mov.w	ip, #1048576	@ 0x100000
 8000318:	ea4c 3111 	orr.w	r1, ip, r1, lsr #12
 800031c:	d002      	beq.n	8000324 <__adddf3+0x70>
 800031e:	4240      	negs	r0, r0
 8000320:	eb61 0141 	sbc.w	r1, r1, r1, lsl #1
 8000324:	f013 4f00 	tst.w	r3, #2147483648	@ 0x80000000
 8000328:	ea4f 3303 	mov.w	r3, r3, lsl #12
 800032c:	ea4c 3313 	orr.w	r3, ip, r3, lsr #12
 8000330:	d002      	beq.n	8000338 <__adddf3+0x84>
 8000332:	4252      	negs	r2, r2
 8000334:	eb63 0343 	sbc.w	r3, r3, r3, lsl #1
 8000338:	ea94 0f05 	teq	r4, r5
 800033c:	f000 80a7 	beq.w	800048e <__adddf3+0x1da>
 8000340:	f1a4 0401 	sub.w	r4, r4, #1
 8000344:	f1d5 0e20 	rsbs	lr, r5, #32
 8000348:	db0d      	blt.n	8000366 <__adddf3+0xb2>
 800034a:	fa02 fc0e 	lsl.w	ip, r2, lr
 800034e:	fa22 f205 	lsr.w	r2, r2, r5
 8000352:	1880      	adds	r0, r0, r2
 8000354:	f141 0100 	adc.w	r1, r1, #0
 8000358:	fa03 f20e 	lsl.w	r2, r3, lr
 800035c:	1880      	adds	r0, r0, r2
 800035e:	fa43 f305 	asr.w	r3, r3, r5
 8000362:	4159      	adcs	r1, r3
 8000364:	e00e      	b.n	8000384 <__adddf3+0xd0>
 8000366:	f1a5 0520 	sub.w	r5, r5, #32
 800036a:	f10e 0e20 	add.w	lr, lr, #32
 800036e:	2a01      	cmp	r2, #1
 8000370:	fa03 fc0e 	lsl.w	ip, r3, lr
 8000374:	bf28      	it	cs
 8000376:	f04c 0c02 	orrcs.w	ip, ip, #2
 800037a:	fa43 f305 	asr.w	r3, r3, r5
 800037e:	18c0      	adds	r0, r0, r3
 8000380:	eb51 71e3 	adcs.w	r1, r1, r3, asr #31
 8000384:	f001 4500 	and.w	r5, r1, #2147483648	@ 0x80000000
 8000388:	d507      	bpl.n	800039a <__adddf3+0xe6>
 800038a:	f04f 0e00 	mov.w	lr, #0
 800038e:	f1dc 0c00 	rsbs	ip, ip, #0
 8000392:	eb7e 0000 	sbcs.w	r0, lr, r0
 8000396:	eb6e 0101 	sbc.w	r1, lr, r1
 800039a:	f5b1 1f80 	cmp.w	r1, #1048576	@ 0x100000
 800039e:	d31b      	bcc.n	80003d8 <__adddf3+0x124>
 80003a0:	f5b1 1f00 	cmp.w	r1, #2097152	@ 0x200000
 80003a4:	d30c      	bcc.n	80003c0 <__adddf3+0x10c>
 80003a6:	0849      	lsrs	r1, r1, #1
 80003a8:	ea5f 0030 	movs.w	r0, r0, rrx
 80003ac:	ea4f 0c3c 	mov.w	ip, ip, rrx
 80003b0:	f104 0401 	add.w	r4, r4, #1
 80003b4:	ea4f 5244 	mov.w	r2, r4, lsl #21
 80003b8:	f512 0f80 	cmn.w	r2, #4194304	@ 0x400000
 80003bc:	f080 809a 	bcs.w	80004f4 <__adddf3+0x240>
 80003c0:	f1bc 4f00 	cmp.w	ip, #2147483648	@ 0x80000000
 80003c4:	bf08      	it	eq
 80003c6:	ea5f 0c50 	movseq.w	ip, r0, lsr #1
 80003ca:	f150 0000 	adcs.w	r0, r0, #0
 80003ce:	eb41 5104 	adc.w	r1, r1, r4, lsl #20
 80003d2:	ea41 0105 	orr.w	r1, r1, r5
 80003d6:	bd30      	pop	{r4, r5, pc}
 80003d8:	ea5f 0c4c 	movs.w	ip, ip, lsl #1
 80003dc:	4140      	adcs	r0, r0
 80003de:	eb41 0101 	adc.w	r1, r1, r1
 80003e2:	3c01      	subs	r4, #1
 80003e4:	bf28      	it	cs
 80003e6:	f5b1 1f80 	cmpcs.w	r1, #1048576	@ 0x100000
 80003ea:	d2e9      	bcs.n	80003c0 <__adddf3+0x10c>
 80003ec:	f091 0f00 	teq	r1, #0
 80003f0:	bf04      	itt	eq
 80003f2:	4601      	moveq	r1, r0
 80003f4:	2000      	moveq	r0, #0
 80003f6:	fab1 f381 	clz	r3, r1
 80003fa:	bf08      	it	eq
 80003fc:	3320      	addeq	r3, #32
 80003fe:	f1a3 030b 	sub.w	r3, r3, #11
 8000402:	f1b3 0220 	subs.w	r2, r3, #32
 8000406:	da0c      	bge.n	8000422 <__adddf3+0x16e>
 8000408:	320c      	adds	r2, #12
 800040a:	dd08      	ble.n	800041e <__adddf3+0x16a>
 800040c:	f102 0c14 	add.w	ip, r2, #20
 8000410:	f1c2 020c 	rsb	r2, r2, #12
 8000414:	fa01 f00c 	lsl.w	r0, r1, ip
 8000418:	fa21 f102 	lsr.w	r1, r1, r2
 800041c:	e00c      	b.n	8000438 <__adddf3+0x184>
 800041e:	f102 0214 	add.w	r2, r2, #20
 8000422:	bfd8      	it	le
 8000424:	f1c2 0c20 	rsble	ip, r2, #32
 8000428:	fa01 f102 	lsl.w	r1, r1, r2
 800042c:	fa20 fc0c 	lsr.w	ip, r0, ip
 8000430:	bfdc      	itt	le
 8000432:	ea41 010c 	orrle.w	r1, r1, ip
 8000436:	4090      	lslle	r0, r2
 8000438:	1ae4      	subs	r4, r4, r3
 800043a:	bfa2      	ittt	ge
 800043c:	eb01 5104 	addge.w	r1, r1, r4, lsl #20
 8000440:	4329      	orrge	r1, r5
 8000442:	bd30      	popge	{r4, r5, pc}
 8000444:	ea6f 0404 	mvn.w	r4, r4
 8000448:	3c1f      	subs	r4, #31
 800044a:	da1c      	bge.n	8000486 <__adddf3+0x1d2>
 800044c:	340c      	adds	r4, #12
 800044e:	dc0e      	bgt.n	800046e <__adddf3+0x1ba>
 8000450:	f104 0414 	add.w	r4, r4, #20
 8000454:	f1c4 0220 	rsb	r2, r4, #32
 8000458:	fa20 f004 	lsr.w	r0, r0, r4
 800045c:	fa01 f302 	lsl.w	r3, r1, r2
 8000460:	ea40 0003 	orr.w	r0, r0, r3
 8000464:	fa21 f304 	lsr.w	r3, r1, r4
 8000468:	ea45 0103 	orr.w	r1, r5, r3
 800046c:	bd30      	pop	{r4, r5, pc}
 800046e:	f1c4 040c 	rsb	r4, r4, #12
 8000472:	f1c4 0220 	rsb	r2, r4, #32
 8000476:	fa20 f002 	lsr.w	r0, r0, r2
 800047a:	fa01 f304 	lsl.w	r3, r1, r4
 800047e:	ea40 0003 	orr.w	r0, r0, r3
 8000482:	4629      	mov	r1, r5
 8000484:	bd30      	pop	{r4, r5, pc}
 8000486:	fa21 f004 	lsr.w	r0, r1, r4
 800048a:	4629      	mov	r1, r5
 800048c:	bd30      	pop	{r4, r5, pc}
 800048e:	f094 0f00 	teq	r4, #0
 8000492:	f483 1380 	eor.w	r3, r3, #1048576	@ 0x100000
 8000496:	bf06      	itte	eq
 8000498:	f481 1180 	eoreq.w	r1, r1, #1048576	@ 0x100000
 800049c:	3401      	addeq	r4, #1
 800049e:	3d01      	subne	r5, #1
 80004a0:	e74e      	b.n	8000340 <__adddf3+0x8c>
 80004a2:	ea7f 5c64 	mvns.w	ip, r4, asr #21
 80004a6:	bf18      	it	ne
 80004a8:	ea7f 5c65 	mvnsne.w	ip, r5, asr #21
 80004ac:	d029      	beq.n	8000502 <__adddf3+0x24e>
 80004ae:	ea94 0f05 	teq	r4, r5
 80004b2:	bf08      	it	eq
 80004b4:	ea90 0f02 	teqeq	r0, r2
 80004b8:	d005      	beq.n	80004c6 <__adddf3+0x212>
 80004ba:	ea54 0c00 	orrs.w	ip, r4, r0
 80004be:	bf04      	itt	eq
 80004c0:	4619      	moveq	r1, r3
 80004c2:	4610      	moveq	r0, r2
 80004c4:	bd30      	pop	{r4, r5, pc}
 80004c6:	ea91 0f03 	teq	r1, r3
 80004ca:	bf1e      	ittt	ne
 80004cc:	2100      	movne	r1, #0
 80004ce:	2000      	movne	r0, #0
 80004d0:	bd30      	popne	{r4, r5, pc}
 80004d2:	ea5f 5c54 	movs.w	ip, r4, lsr #21
 80004d6:	d105      	bne.n	80004e4 <__adddf3+0x230>
 80004d8:	0040      	lsls	r0, r0, #1
 80004da:	4149      	adcs	r1, r1
 80004dc:	bf28      	it	cs
 80004de:	f041 4100 	orrcs.w	r1, r1, #2147483648	@ 0x80000000
 80004e2:	bd30      	pop	{r4, r5, pc}
 80004e4:	f514 0480 	adds.w	r4, r4, #4194304	@ 0x400000
 80004e8:	bf3c      	itt	cc
 80004ea:	f501 1180 	addcc.w	r1, r1, #1048576	@ 0x100000
 80004ee:	bd30      	popcc	{r4, r5, pc}
 80004f0:	f001 4500 	and.w	r5, r1, #2147483648	@ 0x80000000
 80004f4:	f045 41fe 	orr.w	r1, r5, #2130706432	@ 0x7f000000
 80004f8:	f441 0170 	orr.w	r1, r1, #15728640	@ 0xf00000
 80004fc:	f04f 0000 	mov.w	r0, #0
 8000500:	bd30      	pop	{r4, r5, pc}
 8000502:	ea7f 5c64 	mvns.w	ip, r4, asr #21
 8000506:	bf1a      	itte	ne
 8000508:	4619      	movne	r1, r3
 800050a:	4610      	movne	r0, r2
 800050c:	ea7f 5c65 	mvnseq.w	ip, r5, asr #21
 8000510:	bf1c      	itt	ne
 8000512:	460b      	movne	r3, r1
 8000514:	4602      	movne	r2, r0
 8000516:	ea50 3401 	orrs.w	r4, r0, r1, lsl #12
 800051a:	bf06      	itte	eq
 800051c:	ea52 3503 	orrseq.w	r5, r2, r3, lsl #12
 8000520:	ea91 0f03 	teqeq	r1, r3
 8000524:	f441 2100 	orrne.w	r1, r1, #524288	@ 0x80000
 8000528:	bd30      	pop	{r4, r5, pc}
 800052a:	bf00      	nop

0800052c <__aeabi_ui2d>:
 800052c:	f090 0f00 	teq	r0, #0
 8000530:	bf04      	itt	eq
 8000532:	2100      	moveq	r1, #0
 8000534:	4770      	bxeq	lr
 8000536:	b530      	push	{r4, r5, lr}
 8000538:	f44f 6480 	mov.w	r4, #1024	@ 0x400
 800053c:	f104 0432 	add.w	r4, r4, #50	@ 0x32
 8000540:	f04f 0500 	mov.w	r5, #0
 8000544:	f04f 0100 	mov.w	r1, #0
 8000548:	e750      	b.n	80003ec <__adddf3+0x138>
 800054a:	bf00      	nop

0800054c <__aeabi_i2d>:
 800054c:	f090 0f00 	teq	r0, #0
 8000550:	bf04      	itt	eq
 8000552:	2100      	moveq	r1, #0
 8000554:	4770      	bxeq	lr
 8000556:	b530      	push	{r4, r5, lr}
 8000558:	f44f 6480 	mov.w	r4, #1024	@ 0x400
 800055c:	f104 0432 	add.w	r4, r4, #50	@ 0x32
 8000560:	f010 4500 	ands.w	r5, r0, #2147483648	@ 0x80000000
 8000564:	bf48      	it	mi
 8000566:	4240      	negmi	r0, r0
 8000568:	f04f 0100 	mov.w	r1, #0
 800056c:	e73e      	b.n	80003ec <__adddf3+0x138>
 800056e:	bf00      	nop

08000570 <__aeabi_f2d>:
 8000570:	0042      	lsls	r2, r0, #1
 8000572:	ea4f 01e2 	mov.w	r1, r2, asr #3
 8000576:	ea4f 0131 	mov.w	r1, r1, rrx
 800057a:	ea4f 7002 	mov.w	r0, r2, lsl #28
 800057e:	bf1f      	itttt	ne
 8000580:	f012 437f 	andsne.w	r3, r2, #4278190080	@ 0xff000000
 8000584:	f093 4f7f 	teqne	r3, #4278190080	@ 0xff000000
 8000588:	f081 5160 	eorne.w	r1, r1, #939524096	@ 0x38000000
 800058c:	4770      	bxne	lr
 800058e:	f032 427f 	bics.w	r2, r2, #4278190080	@ 0xff000000
 8000592:	bf08      	it	eq
 8000594:	4770      	bxeq	lr
 8000596:	f093 4f7f 	teq	r3, #4278190080	@ 0xff000000
 800059a:	bf04      	itt	eq
 800059c:	f441 2100 	orreq.w	r1, r1, #524288	@ 0x80000
 80005a0:	4770      	bxeq	lr
 80005a2:	b530      	push	{r4, r5, lr}
 80005a4:	f44f 7460 	mov.w	r4, #896	@ 0x380
 80005a8:	f001 4500 	and.w	r5, r1, #2147483648	@ 0x80000000
 80005ac:	f021 4100 	bic.w	r1, r1, #2147483648	@ 0x80000000
 80005b0:	e71c      	b.n	80003ec <__adddf3+0x138>
 80005b2:	bf00      	nop

080005b4 <__aeabi_ul2d>:
 80005b4:	ea50 0201 	orrs.w	r2, r0, r1
 80005b8:	bf08      	it	eq
 80005ba:	4770      	bxeq	lr
 80005bc:	b530      	push	{r4, r5, lr}
 80005be:	f04f 0500 	mov.w	r5, #0
 80005c2:	e00a      	b.n	80005da <__aeabi_l2d+0x16>

080005c4 <__aeabi_l2d>:
 80005c4:	ea50 0201 	orrs.w	r2, r0, r1
 80005c8:	bf08      	it	eq
 80005ca:	4770      	bxeq	lr
 80005cc:	b530      	push	{r4, r5, lr}
 80005ce:	f011 4500 	ands.w	r5, r1, #2147483648	@ 0x80000000
 80005d2:	d502      	bpl.n	80005da <__aeabi_l2d+0x16>
 80005d4:	4240      	negs	r0, r0
 80005d6:	eb61 0141 	sbc.w	r1, r1, r1, lsl #1
 80005da:	f44f 6480 	mov.w	r4, #1024	@ 0x400
 80005de:	f104 0432 	add.w	r4, r4, #50	@ 0x32
 80005e2:	ea5f 5c91 	movs.w	ip, r1, lsr #22
 80005e6:	f43f aed8 	beq.w	800039a <__adddf3+0xe6>
 80005ea:	f04f 0203 	mov.w	r2, #3
 80005ee:	ea5f 0cdc 	movs.w	ip, ip, lsr #3
 80005f2:	bf18      	it	ne
 80005f4:	3203      	addne	r2, #3
 80005f6:	ea5f 0cdc 	movs.w	ip, ip, lsr #3
 80005fa:	bf18      	it	ne
 80005fc:	3203      	addne	r2, #3
 80005fe:	eb02 02dc 	add.w	r2, r2, ip, lsr #3
 8000602:	f1c2 0320 	rsb	r3, r2, #32
 8000606:	fa00 fc03 	lsl.w	ip, r0, r3
 800060a:	fa20 f002 	lsr.w	r0, r0, r2
 800060e:	fa01 fe03 	lsl.w	lr, r1, r3
 8000612:	ea40 000e 	orr.w	r0, r0, lr
 8000616:	fa21 f102 	lsr.w	r1, r1, r2
 800061a:	4414      	add	r4, r2
 800061c:	e6bd      	b.n	800039a <__adddf3+0xe6>
 800061e:	bf00      	nop

08000620 <__aeabi_dmul>:
 8000620:	b570      	push	{r4, r5, r6, lr}
 8000622:	f04f 0cff 	mov.w	ip, #255	@ 0xff
 8000626:	f44c 6ce0 	orr.w	ip, ip, #1792	@ 0x700
 800062a:	ea1c 5411 	ands.w	r4, ip, r1, lsr #20
 800062e:	bf1d      	ittte	ne
 8000630:	ea1c 5513 	andsne.w	r5, ip, r3, lsr #20
 8000634:	ea94 0f0c 	teqne	r4, ip
 8000638:	ea95 0f0c 	teqne	r5, ip
 800063c:	f000 f8de 	bleq	80007fc <__aeabi_dmul+0x1dc>
 8000640:	442c      	add	r4, r5
 8000642:	ea81 0603 	eor.w	r6, r1, r3
 8000646:	ea21 514c 	bic.w	r1, r1, ip, lsl #21
 800064a:	ea23 534c 	bic.w	r3, r3, ip, lsl #21
 800064e:	ea50 3501 	orrs.w	r5, r0, r1, lsl #12
 8000652:	bf18      	it	ne
 8000654:	ea52 3503 	orrsne.w	r5, r2, r3, lsl #12
 8000658:	f441 1180 	orr.w	r1, r1, #1048576	@ 0x100000
 800065c:	f443 1380 	orr.w	r3, r3, #1048576	@ 0x100000
 8000660:	d038      	beq.n	80006d4 <__aeabi_dmul+0xb4>
 8000662:	fba0 ce02 	umull	ip, lr, r0, r2
 8000666:	f04f 0500 	mov.w	r5, #0
 800066a:	fbe1 e502 	umlal	lr, r5, r1, r2
 800066e:	f006 4200 	and.w	r2, r6, #2147483648	@ 0x80000000
 8000672:	fbe0 e503 	umlal	lr, r5, r0, r3
 8000676:	f04f 0600 	mov.w	r6, #0
 800067a:	fbe1 5603 	umlal	r5, r6, r1, r3
 800067e:	f09c 0f00 	teq	ip, #0
 8000682:	bf18      	it	ne
 8000684:	f04e 0e01 	orrne.w	lr, lr, #1
 8000688:	f1a4 04ff 	sub.w	r4, r4, #255	@ 0xff
 800068c:	f5b6 7f00 	cmp.w	r6, #512	@ 0x200
 8000690:	f564 7440 	sbc.w	r4, r4, #768	@ 0x300
 8000694:	d204      	bcs.n	80006a0 <__aeabi_dmul+0x80>
 8000696:	ea5f 0e4e 	movs.w	lr, lr, lsl #1
 800069a:	416d      	adcs	r5, r5
 800069c:	eb46 0606 	adc.w	r6, r6, r6
 80006a0:	ea42 21c6 	orr.w	r1, r2, r6, lsl #11
 80006a4:	ea41 5155 	orr.w	r1, r1, r5, lsr #21
 80006a8:	ea4f 20c5 	mov.w	r0, r5, lsl #11
 80006ac:	ea40 505e 	orr.w	r0, r0, lr, lsr #21
 80006b0:	ea4f 2ece 	mov.w	lr, lr, lsl #11
 80006b4:	f1b4 0cfd 	subs.w	ip, r4, #253	@ 0xfd
 80006b8:	bf88      	it	hi
 80006ba:	f5bc 6fe0 	cmphi.w	ip, #1792	@ 0x700
 80006be:	d81e      	bhi.n	80006fe <__aeabi_dmul+0xde>
 80006c0:	f1be 4f00 	cmp.w	lr, #2147483648	@ 0x80000000
 80006c4:	bf08      	it	eq
 80006c6:	ea5f 0e50 	movseq.w	lr, r0, lsr #1
 80006ca:	f150 0000 	adcs.w	r0, r0, #0
 80006ce:	eb41 5104 	adc.w	r1, r1, r4, lsl #20
 80006d2:	bd70      	pop	{r4, r5, r6, pc}
 80006d4:	f006 4600 	and.w	r6, r6, #2147483648	@ 0x80000000
 80006d8:	ea46 0101 	orr.w	r1, r6, r1
 80006dc:	ea40 0002 	orr.w	r0, r0, r2
 80006e0:	ea81 0103 	eor.w	r1, r1, r3
 80006e4:	ebb4 045c 	subs.w	r4, r4, ip, lsr #1
 80006e8:	bfc2      	ittt	gt
 80006ea:	ebd4 050c 	rsbsgt	r5, r4, ip
 80006ee:	ea41 5104 	orrgt.w	r1, r1, r4, lsl #20
 80006f2:	bd70      	popgt	{r4, r5, r6, pc}
 80006f4:	f441 1180 	orr.w	r1, r1, #1048576	@ 0x100000
 80006f8:	f04f 0e00 	mov.w	lr, #0
 80006fc:	3c01      	subs	r4, #1
 80006fe:	f300 80ab 	bgt.w	8000858 <__aeabi_dmul+0x238>
 8000702:	f114 0f36 	cmn.w	r4, #54	@ 0x36
 8000706:	bfde      	ittt	le
 8000708:	2000      	movle	r0, #0
 800070a:	f001 4100 	andle.w	r1, r1, #2147483648	@ 0x80000000
 800070e:	bd70      	pople	{r4, r5, r6, pc}
 8000710:	f1c4 0400 	rsb	r4, r4, #0
 8000714:	3c20      	subs	r4, #32
 8000716:	da35      	bge.n	8000784 <__aeabi_dmul+0x164>
 8000718:	340c      	adds	r4, #12
 800071a:	dc1b      	bgt.n	8000754 <__aeabi_dmul+0x134>
 800071c:	f104 0414 	add.w	r4, r4, #20
 8000720:	f1c4 0520 	rsb	r5, r4, #32
 8000724:	fa00 f305 	lsl.w	r3, r0, r5
 8000728:	fa20 f004 	lsr.w	r0, r0, r4
 800072c:	fa01 f205 	lsl.w	r2, r1, r5
 8000730:	ea40 0002 	orr.w	r0, r0, r2
 8000734:	f001 4200 	and.w	r2, r1, #2147483648	@ 0x80000000
 8000738:	f021 4100 	bic.w	r1, r1, #2147483648	@ 0x80000000
 800073c:	eb10 70d3 	adds.w	r0, r0, r3, lsr #31
 8000740:	fa21 f604 	lsr.w	r6, r1, r4
 8000744:	eb42 0106 	adc.w	r1, r2, r6
 8000748:	ea5e 0e43 	orrs.w	lr, lr, r3, lsl #1
 800074c:	bf08      	it	eq
 800074e:	ea20 70d3 	biceq.w	r0, r0, r3, lsr #31
 8000752:	bd70      	pop	{r4, r5, r6, pc}
 8000754:	f1c4 040c 	rsb	r4, r4, #12
 8000758:	f1c4 0520 	rsb	r5, r4, #32
 800075c:	fa00 f304 	lsl.w	r3, r0, r4
 8000760:	fa20 f005 	lsr.w	r0, r0, r5
 8000764:	fa01 f204 	lsl.w	r2, r1, r4
 8000768:	ea40 0002 	orr.w	r0, r0, r2
 800076c:	f001 4100 	and.w	r1, r1, #2147483648	@ 0x80000000
 8000770:	eb10 70d3 	adds.w	r0, r0, r3, lsr #31
 8000774:	f141 0100 	adc.w	r1, r1, #0
 8000778:	ea5e 0e43 	orrs.w	lr, lr, r3, lsl #1
 800077c:	bf08      	it	eq
 800077e:	ea20 70d3 	biceq.w	r0, r0, r3, lsr #31
 8000782:	bd70      	pop	{r4, r5, r6, pc}
 8000784:	f1c4 0520 	rsb	r5, r4, #32
 8000788:	fa00 f205 	lsl.w	r2, r0, r5
 800078c:	ea4e 0e02 	orr.w	lr, lr, r2
 8000790:	fa20 f304 	lsr.w	r3, r0, r4
 8000794:	fa01 f205 	lsl.w	r2, r1, r5
 8000798:	ea43 0302 	orr.w	r3, r3, r2
 800079c:	fa21 f004 	lsr.w	r0, r1, r4
 80007a0:	f001 4100 	and.w	r1, r1, #2147483648	@ 0x80000000
 80007a4:	fa21 f204 	lsr.w	r2, r1, r4
 80007a8:	ea20 0002 	bic.w	r0, r0, r2
 80007ac:	eb00 70d3 	add.w	r0, r0, r3, lsr #31
 80007b0:	ea5e 0e43 	orrs.w	lr, lr, r3, lsl #1
 80007b4:	bf08      	it	eq
 80007b6:	ea20 70d3 	biceq.w	r0, r0, r3, lsr #31
 80007ba:	bd70      	pop	{r4, r5, r6, pc}
 80007bc:	f094 0f00 	teq	r4, #0
 80007c0:	d10f      	bne.n	80007e2 <__aeabi_dmul+0x1c2>
 80007c2:	f001 4600 	and.w	r6, r1, #2147483648	@ 0x80000000
 80007c6:	0040      	lsls	r0, r0, #1
 80007c8:	eb41 0101 	adc.w	r1, r1, r1
 80007cc:	f411 1f80 	tst.w	r1, #1048576	@ 0x100000
 80007d0:	bf08      	it	eq
 80007d2:	3c01      	subeq	r4, #1
 80007d4:	d0f7      	beq.n	80007c6 <__aeabi_dmul+0x1a6>
 80007d6:	ea41 0106 	orr.w	r1, r1, r6
 80007da:	f095 0f00 	teq	r5, #0
 80007de:	bf18      	it	ne
 80007e0:	4770      	bxne	lr
 80007e2:	f003 4600 	and.w	r6, r3, #2147483648	@ 0x80000000
 80007e6:	0052      	lsls	r2, r2, #1
 80007e8:	eb43 0303 	adc.w	r3, r3, r3
 80007ec:	f413 1f80 	tst.w	r3, #1048576	@ 0x100000
 80007f0:	bf08      	it	eq
 80007f2:	3d01      	subeq	r5, #1
 80007f4:	d0f7      	beq.n	80007e6 <__aeabi_dmul+0x1c6>
 80007f6:	ea43 0306 	orr.w	r3, r3, r6
 80007fa:	4770      	bx	lr
 80007fc:	ea94 0f0c 	teq	r4, ip
 8000800:	ea0c 5513 	and.w	r5, ip, r3, lsr #20
 8000804:	bf18      	it	ne
 8000806:	ea95 0f0c 	teqne	r5, ip
 800080a:	d00c      	beq.n	8000826 <__aeabi_dmul+0x206>
 800080c:	ea50 0641 	orrs.w	r6, r0, r1, lsl #1
 8000810:	bf18      	it	ne
 8000812:	ea52 0643 	orrsne.w	r6, r2, r3, lsl #1
 8000816:	d1d1      	bne.n	80007bc <__aeabi_dmul+0x19c>
 8000818:	ea81 0103 	eor.w	r1, r1, r3
 800081c:	f001 4100 	and.w	r1, r1, #2147483648	@ 0x80000000
 8000820:	f04f 0000 	mov.w	r0, #0
 8000824:	bd70      	pop	{r4, r5, r6, pc}
 8000826:	ea50 0641 	orrs.w	r6, r0, r1, lsl #1
 800082a:	bf06      	itte	eq
 800082c:	4610      	moveq	r0, r2
 800082e:	4619      	moveq	r1, r3
 8000830:	ea52 0643 	orrsne.w	r6, r2, r3, lsl #1
 8000834:	d019      	beq.n	800086a <__aeabi_dmul+0x24a>
 8000836:	ea94 0f0c 	teq	r4, ip
 800083a:	d102      	bne.n	8000842 <__aeabi_dmul+0x222>
 800083c:	ea50 3601 	orrs.w	r6, r0, r1, lsl #12
 8000840:	d113      	bne.n	800086a <__aeabi_dmul+0x24a>
 8000842:	ea95 0f0c 	teq	r5, ip
 8000846:	d105      	bne.n	8000854 <__aeabi_dmul+0x234>
 8000848:	ea52 3603 	orrs.w	r6, r2, r3, lsl #12
 800084c:	bf1c      	itt	ne
 800084e:	4610      	movne	r0, r2
 8000850:	4619      	movne	r1, r3
 8000852:	d10a      	bne.n	800086a <__aeabi_dmul+0x24a>
 8000854:	ea81 0103 	eor.w	r1, r1, r3
 8000858:	f001 4100 	and.w	r1, r1, #2147483648	@ 0x80000000
 800085c:	f041 41fe 	orr.w	r1, r1, #2130706432	@ 0x7f000000
 8000860:	f441 0170 	orr.w	r1, r1, #15728640	@ 0xf00000
 8000864:	f04f 0000 	mov.w	r0, #0
 8000868:	bd70      	pop	{r4, r5, r6, pc}
 800086a:	f041 41fe 	orr.w	r1, r1, #2130706432	@ 0x7f000000
 800086e:	f441 0178 	orr.w	r1, r1, #16252928	@ 0xf80000
 8000872:	bd70      	pop	{r4, r5, r6, pc}

08000874 <__aeabi_ddiv>:
 8000874:	b570      	push	{r4, r5, r6, lr}
 8000876:	f04f 0cff 	mov.w	ip, #255	@ 0xff
 800087a:	f44c 6ce0 	orr.w	ip, ip, #1792	@ 0x700
 800087e:	ea1c 5411 	ands.w	r4, ip, r1, lsr #20
 8000882:	bf1d      	ittte	ne
 8000884:	ea1c 5513 	andsne.w	r5, ip, r3, lsr #20
 8000888:	ea94 0f0c 	teqne	r4, ip
 800088c:	ea95 0f0c 	teqne	r5, ip
 8000890:	f000 f8a7 	bleq	80009e2 <__aeabi_ddiv+0x16e>
 8000894:	eba4 0405 	sub.w	r4, r4, r5
 8000898:	ea81 0e03 	eor.w	lr, r1, r3
 800089c:	ea52 3503 	orrs.w	r5, r2, r3, lsl #12
 80008a0:	ea4f 3101 	mov.w	r1, r1, lsl #12
 80008a4:	f000 8088 	beq.w	80009b8 <__aeabi_ddiv+0x144>
 80008a8:	ea4f 3303 	mov.w	r3, r3, lsl #12
 80008ac:	f04f 5580 	mov.w	r5, #268435456	@ 0x10000000
 80008b0:	ea45 1313 	orr.w	r3, r5, r3, lsr #4
 80008b4:	ea43 6312 	orr.w	r3, r3, r2, lsr #24
 80008b8:	ea4f 2202 	mov.w	r2, r2, lsl #8
 80008bc:	ea45 1511 	orr.w	r5, r5, r1, lsr #4
 80008c0:	ea45 6510 	orr.w	r5, r5, r0, lsr #24
 80008c4:	ea4f 2600 	mov.w	r6, r0, lsl #8
 80008c8:	f00e 4100 	and.w	r1, lr, #2147483648	@ 0x80000000
 80008cc:	429d      	cmp	r5, r3
 80008ce:	bf08      	it	eq
 80008d0:	4296      	cmpeq	r6, r2
 80008d2:	f144 04fd 	adc.w	r4, r4, #253	@ 0xfd
 80008d6:	f504 7440 	add.w	r4, r4, #768	@ 0x300
 80008da:	d202      	bcs.n	80008e2 <__aeabi_ddiv+0x6e>
 80008dc:	085b      	lsrs	r3, r3, #1
 80008de:	ea4f 0232 	mov.w	r2, r2, rrx
 80008e2:	1ab6      	subs	r6, r6, r2
 80008e4:	eb65 0503 	sbc.w	r5, r5, r3
 80008e8:	085b      	lsrs	r3, r3, #1
 80008ea:	ea4f 0232 	mov.w	r2, r2, rrx
 80008ee:	f44f 1080 	mov.w	r0, #1048576	@ 0x100000
 80008f2:	f44f 2c00 	mov.w	ip, #524288	@ 0x80000
 80008f6:	ebb6 0e02 	subs.w	lr, r6, r2
 80008fa:	eb75 0e03 	sbcs.w	lr, r5, r3
 80008fe:	bf22      	ittt	cs
 8000900:	1ab6      	subcs	r6, r6, r2
 8000902:	4675      	movcs	r5, lr
 8000904:	ea40 000c 	orrcs.w	r0, r0, ip
 8000908:	085b      	lsrs	r3, r3, #1
 800090a:	ea4f 0232 	mov.w	r2, r2, rrx
 800090e:	ebb6 0e02 	subs.w	lr, r6, r2
 8000912:	eb75 0e03 	sbcs.w	lr, r5, r3
 8000916:	bf22      	ittt	cs
 8000918:	1ab6      	subcs	r6, r6, r2
 800091a:	4675      	movcs	r5, lr
 800091c:	ea40 005c 	orrcs.w	r0, r0, ip, lsr #1
 8000920:	085b      	lsrs	r3, r3, #1
 8000922:	ea4f 0232 	mov.w	r2, r2, rrx
 8000926:	ebb6 0e02 	subs.w	lr, r6, r2
 800092a:	eb75 0e03 	sbcs.w	lr, r5, r3
 800092e:	bf22      	ittt	cs
 8000930:	1ab6      	subcs	r6, r6, r2
 8000932:	4675      	movcs	r5, lr
 8000934:	ea40 009c 	orrcs.w	r0, r0, ip, lsr #2
 8000938:	085b      	lsrs	r3, r3, #1
 800093a:	ea4f 0232 	mov.w	r2, r2, rrx
 800093e:	ebb6 0e02 	subs.w	lr, r6, r2
 8000942:	eb75 0e03 	sbcs.w	lr, r5, r3
 8000946:	bf22      	ittt	cs
 8000948:	1ab6      	subcs	r6, r6, r2
 800094a:	4675      	movcs	r5, lr
 800094c:	ea40 00dc 	orrcs.w	r0, r0, ip, lsr #3
 8000950:	ea55 0e06 	orrs.w	lr, r5, r6
 8000954:	d018      	beq.n	8000988 <__aeabi_ddiv+0x114>
 8000956:	ea4f 1505 	mov.w	r5, r5, lsl #4
 800095a:	ea45 7516 	orr.w	r5, r5, r6, lsr #28
 800095e:	ea4f 1606 	mov.w	r6, r6, lsl #4
 8000962:	ea4f 03c3 	mov.w	r3, r3, lsl #3
 8000966:	ea43 7352 	orr.w	r3, r3, r2, lsr #29
 800096a:	ea4f 02c2 	mov.w	r2, r2, lsl #3
 800096e:	ea5f 1c1c 	movs.w	ip, ip, lsr #4
 8000972:	d1c0      	bne.n	80008f6 <__aeabi_ddiv+0x82>
 8000974:	f411 1f80 	tst.w	r1, #1048576	@ 0x100000
 8000978:	d10b      	bne.n	8000992 <__aeabi_ddiv+0x11e>
 800097a:	ea41 0100 	orr.w	r1, r1, r0
 800097e:	f04f 0000 	mov.w	r0, #0
 8000982:	f04f 4c00 	mov.w	ip, #2147483648	@ 0x80000000
 8000986:	e7b6      	b.n	80008f6 <__aeabi_ddiv+0x82>
 8000988:	f411 1f80 	tst.w	r1, #1048576	@ 0x100000
 800098c:	bf04      	itt	eq
 800098e:	4301      	orreq	r1, r0
 8000990:	2000      	moveq	r0, #0
 8000992:	f1b4 0cfd 	subs.w	ip, r4, #253	@ 0xfd
 8000996:	bf88      	it	hi
 8000998:	f5bc 6fe0 	cmphi.w	ip, #1792	@ 0x700
 800099c:	f63f aeaf 	bhi.w	80006fe <__aeabi_dmul+0xde>
 80009a0:	ebb5 0c03 	subs.w	ip, r5, r3
 80009a4:	bf04      	itt	eq
 80009a6:	ebb6 0c02 	subseq.w	ip, r6, r2
 80009aa:	ea5f 0c50 	movseq.w	ip, r0, lsr #1
 80009ae:	f150 0000 	adcs.w	r0, r0, #0
 80009b2:	eb41 5104 	adc.w	r1, r1, r4, lsl #20
 80009b6:	bd70      	pop	{r4, r5, r6, pc}
 80009b8:	f00e 4e00 	and.w	lr, lr, #2147483648	@ 0x80000000
 80009bc:	ea4e 3111 	orr.w	r1, lr, r1, lsr #12
 80009c0:	eb14 045c 	adds.w	r4, r4, ip, lsr #1
 80009c4:	bfc2      	ittt	gt
 80009c6:	ebd4 050c 	rsbsgt	r5, r4, ip
 80009ca:	ea41 5104 	orrgt.w	r1, r1, r4, lsl #20
 80009ce:	bd70      	popgt	{r4, r5, r6, pc}
 80009d0:	f441 1180 	orr.w	r1, r1, #1048576	@ 0x100000
 80009d4:	f04f 0e00 	mov.w	lr, #0
 80009d8:	3c01      	subs	r4, #1
 80009da:	e690      	b.n	80006fe <__aeabi_dmul+0xde>
 80009dc:	ea45 0e06 	orr.w	lr, r5, r6
 80009e0:	e68d      	b.n	80006fe <__aeabi_dmul+0xde>
 80009e2:	ea0c 5513 	and.w	r5, ip, r3, lsr #20
 80009e6:	ea94 0f0c 	teq	r4, ip
 80009ea:	bf08      	it	eq
 80009ec:	ea95 0f0c 	teqeq	r5, ip
 80009f0:	f43f af3b 	beq.w	800086a <__aeabi_dmul+0x24a>
 80009f4:	ea94 0f0c 	teq	r4, ip
 80009f8:	d10a      	bne.n	8000a10 <__aeabi_ddiv+0x19c>
 80009fa:	ea50 3401 	orrs.w	r4, r0, r1, lsl #12
 80009fe:	f47f af34 	bne.w	800086a <__aeabi_dmul+0x24a>
 8000a02:	ea95 0f0c 	teq	r5, ip
 8000a06:	f47f af25 	bne.w	8000854 <__aeabi_dmul+0x234>
 8000a0a:	4610      	mov	r0, r2
 8000a0c:	4619      	mov	r1, r3
 8000a0e:	e72c      	b.n	800086a <__aeabi_dmul+0x24a>
 8000a10:	ea95 0f0c 	teq	r5, ip
 8000a14:	d106      	bne.n	8000a24 <__aeabi_ddiv+0x1b0>
 8000a16:	ea52 3503 	orrs.w	r5, r2, r3, lsl #12
 8000a1a:	f43f aefd 	beq.w	8000818 <__aeabi_dmul+0x1f8>
 8000a1e:	4610      	mov	r0, r2
 8000a20:	4619      	mov	r1, r3
 8000a22:	e722      	b.n	800086a <__aeabi_dmul+0x24a>
 8000a24:	ea50 0641 	orrs.w	r6, r0, r1, lsl #1
 8000a28:	bf18      	it	ne
 8000a2a:	ea52 0643 	orrsne.w	r6, r2, r3, lsl #1
 8000a2e:	f47f aec5 	bne.w	80007bc <__aeabi_dmul+0x19c>
 8000a32:	ea50 0441 	orrs.w	r4, r0, r1, lsl #1
 8000a36:	f47f af0d 	bne.w	8000854 <__aeabi_dmul+0x234>
 8000a3a:	ea52 0543 	orrs.w	r5, r2, r3, lsl #1
 8000a3e:	f47f aeeb 	bne.w	8000818 <__aeabi_dmul+0x1f8>
 8000a42:	e712      	b.n	800086a <__aeabi_dmul+0x24a>

08000a44 <__gedf2>:
 8000a44:	f04f 3cff 	mov.w	ip, #4294967295
 8000a48:	e006      	b.n	8000a58 <__cmpdf2+0x4>
 8000a4a:	bf00      	nop

08000a4c <__ledf2>:
 8000a4c:	f04f 0c01 	mov.w	ip, #1
 8000a50:	e002      	b.n	8000a58 <__cmpdf2+0x4>
 8000a52:	bf00      	nop

08000a54 <__cmpdf2>:
 8000a54:	f04f 0c01 	mov.w	ip, #1
 8000a58:	f84d cd04 	str.w	ip, [sp, #-4]!
 8000a5c:	ea4f 0c41 	mov.w	ip, r1, lsl #1
 8000a60:	ea7f 5c6c 	mvns.w	ip, ip, asr #21
 8000a64:	ea4f 0c43 	mov.w	ip, r3, lsl #1
 8000a68:	bf18      	it	ne
 8000a6a:	ea7f 5c6c 	mvnsne.w	ip, ip, asr #21
 8000a6e:	d01b      	beq.n	8000aa8 <__cmpdf2+0x54>
 8000a70:	b001      	add	sp, #4
 8000a72:	ea50 0c41 	orrs.w	ip, r0, r1, lsl #1
 8000a76:	bf0c      	ite	eq
 8000a78:	ea52 0c43 	orrseq.w	ip, r2, r3, lsl #1
 8000a7c:	ea91 0f03 	teqne	r1, r3
 8000a80:	bf02      	ittt	eq
 8000a82:	ea90 0f02 	teqeq	r0, r2
 8000a86:	2000      	moveq	r0, #0
 8000a88:	4770      	bxeq	lr
 8000a8a:	f110 0f00 	cmn.w	r0, #0
 8000a8e:	ea91 0f03 	teq	r1, r3
 8000a92:	bf58      	it	pl
 8000a94:	4299      	cmppl	r1, r3
 8000a96:	bf08      	it	eq
 8000a98:	4290      	cmpeq	r0, r2
 8000a9a:	bf2c      	ite	cs
 8000a9c:	17d8      	asrcs	r0, r3, #31
 8000a9e:	ea6f 70e3 	mvncc.w	r0, r3, asr #31
 8000aa2:	f040 0001 	orr.w	r0, r0, #1
 8000aa6:	4770      	bx	lr
 8000aa8:	ea4f 0c41 	mov.w	ip, r1, lsl #1
 8000aac:	ea7f 5c6c 	mvns.w	ip, ip, asr #21
 8000ab0:	d102      	bne.n	8000ab8 <__cmpdf2+0x64>
 8000ab2:	ea50 3c01 	orrs.w	ip, r0, r1, lsl #12
 8000ab6:	d107      	bne.n	8000ac8 <__cmpdf2+0x74>
 8000ab8:	ea4f 0c43 	mov.w	ip, r3, lsl #1
 8000abc:	ea7f 5c6c 	mvns.w	ip, ip, asr #21
 8000ac0:	d1d6      	bne.n	8000a70 <__cmpdf2+0x1c>
 8000ac2:	ea52 3c03 	orrs.w	ip, r2, r3, lsl #12
 8000ac6:	d0d3      	beq.n	8000a70 <__cmpdf2+0x1c>
 8000ac8:	f85d 0b04 	ldr.w	r0, [sp], #4
 8000acc:	4770      	bx	lr
 8000ace:	bf00      	nop

08000ad0 <__aeabi_cdrcmple>:
 8000ad0:	4684      	mov	ip, r0
 8000ad2:	4610      	mov	r0, r2
 8000ad4:	4662      	mov	r2, ip
 8000ad6:	468c      	mov	ip, r1
 8000ad8:	4619      	mov	r1, r3
 8000ada:	4663      	mov	r3, ip
 8000adc:	e000      	b.n	8000ae0 <__aeabi_cdcmpeq>
 8000ade:	bf00      	nop

08000ae0 <__aeabi_cdcmpeq>:
 8000ae0:	b501      	push	{r0, lr}
 8000ae2:	f7ff ffb7 	bl	8000a54 <__cmpdf2>
 8000ae6:	2800      	cmp	r0, #0
 8000ae8:	bf48      	it	mi
 8000aea:	f110 0f00 	cmnmi.w	r0, #0
 8000aee:	bd01      	pop	{r0, pc}

08000af0 <__aeabi_dcmpeq>:
 8000af0:	f84d ed08 	str.w	lr, [sp, #-8]!
 8000af4:	f7ff fff4 	bl	8000ae0 <__aeabi_cdcmpeq>
 8000af8:	bf0c      	ite	eq
 8000afa:	2001      	moveq	r0, #1
 8000afc:	2000      	movne	r0, #0
 8000afe:	f85d fb08 	ldr.w	pc, [sp], #8
 8000b02:	bf00      	nop

08000b04 <__aeabi_dcmplt>:
 8000b04:	f84d ed08 	str.w	lr, [sp, #-8]!
 8000b08:	f7ff ffea 	bl	8000ae0 <__aeabi_cdcmpeq>
 8000b0c:	bf34      	ite	cc
 8000b0e:	2001      	movcc	r0, #1
 8000b10:	2000      	movcs	r0, #0
 8000b12:	f85d fb08 	ldr.w	pc, [sp], #8
 8000b16:	bf00      	nop

08000b18 <__aeabi_dcmple>:
 8000b18:	f84d ed08 	str.w	lr, [sp, #-8]!
 8000b1c:	f7ff ffe0 	bl	8000ae0 <__aeabi_cdcmpeq>
 8000b20:	bf94      	ite	ls
 8000b22:	2001      	movls	r0, #1
 8000b24:	2000      	movhi	r0, #0
 8000b26:	f85d fb08 	ldr.w	pc, [sp], #8
 8000b2a:	bf00      	nop

08000b2c <__aeabi_dcmpge>:
 8000b2c:	f84d ed08 	str.w	lr, [sp, #-8]!
 8000b30:	f7ff ffce 	bl	8000ad0 <__aeabi_cdrcmple>
 8000b34:	bf94      	ite	ls
 8000b36:	2001      	movls	r0, #1
 8000b38:	2000      	movhi	r0, #0
 8000b3a:	f85d fb08 	ldr.w	pc, [sp], #8
 8000b3e:	bf00      	nop

08000b40 <__aeabi_dcmpgt>:
 8000b40:	f84d ed08 	str.w	lr, [sp, #-8]!
 8000b44:	f7ff ffc4 	bl	8000ad0 <__aeabi_cdrcmple>
 8000b48:	bf34      	ite	cc
 8000b4a:	2001      	movcc	r0, #1
 8000b4c:	2000      	movcs	r0, #0
 8000b4e:	f85d fb08 	ldr.w	pc, [sp], #8
 8000b52:	bf00      	nop

08000b54 <__aeabi_dcmpun>:
 8000b54:	ea4f 0c41 	mov.w	ip, r1, lsl #1
 8000b58:	ea7f 5c6c 	mvns.w	ip, ip, asr #21
 8000b5c:	d102      	bne.n	8000b64 <__aeabi_dcmpun+0x10>
 8000b5e:	ea50 3c01 	orrs.w	ip, r0, r1, lsl #12
 8000b62:	d10a      	bne.n	8000b7a <__aeabi_dcmpun+0x26>
 8000b64:	ea4f 0c43 	mov.w	ip, r3, lsl #1
 8000b68:	ea7f 5c6c 	mvns.w	ip, ip, asr #21
 8000b6c:	d102      	bne.n	8000b74 <__aeabi_dcmpun+0x20>
 8000b6e:	ea52 3c03 	orrs.w	ip, r2, r3, lsl #12
 8000b72:	d102      	bne.n	8000b7a <__aeabi_dcmpun+0x26>
 8000b74:	f04f 0000 	mov.w	r0, #0
 8000b78:	4770      	bx	lr
 8000b7a:	f04f 0001 	mov.w	r0, #1
 8000b7e:	4770      	bx	lr

08000b80 <__aeabi_d2iz>:
 8000b80:	ea4f 0241 	mov.w	r2, r1, lsl #1
 8000b84:	f512 1200 	adds.w	r2, r2, #2097152	@ 0x200000
 8000b88:	d215      	bcs.n	8000bb6 <__aeabi_d2iz+0x36>
 8000b8a:	d511      	bpl.n	8000bb0 <__aeabi_d2iz+0x30>
 8000b8c:	f46f 7378 	mvn.w	r3, #992	@ 0x3e0
 8000b90:	ebb3 5262 	subs.w	r2, r3, r2, asr #21
 8000b94:	d912      	bls.n	8000bbc <__aeabi_d2iz+0x3c>
 8000b96:	ea4f 23c1 	mov.w	r3, r1, lsl #11
 8000b9a:	f043 4300 	orr.w	r3, r3, #2147483648	@ 0x80000000
 8000b9e:	ea43 5350 	orr.w	r3, r3, r0, lsr #21
 8000ba2:	f011 4f00 	tst.w	r1, #2147483648	@ 0x80000000
 8000ba6:	fa23 f002 	lsr.w	r0, r3, r2
 8000baa:	bf18      	it	ne
 8000bac:	4240      	negne	r0, r0
 8000bae:	4770      	bx	lr
 8000bb0:	f04f 0000 	mov.w	r0, #0
 8000bb4:	4770      	bx	lr
 8000bb6:	ea50 3001 	orrs.w	r0, r0, r1, lsl #12
 8000bba:	d105      	bne.n	8000bc8 <__aeabi_d2iz+0x48>
 8000bbc:	f011 4000 	ands.w	r0, r1, #2147483648	@ 0x80000000
 8000bc0:	bf08      	it	eq
 8000bc2:	f06f 4000 	mvneq.w	r0, #2147483648	@ 0x80000000
 8000bc6:	4770      	bx	lr
 8000bc8:	f04f 0000 	mov.w	r0, #0
 8000bcc:	4770      	bx	lr
 8000bce:	bf00      	nop

08000bd0 <__NVIC_SetPriorityGrouping>:
           In case of a conflict between priority grouping and available
           priority bits (__NVIC_PRIO_BITS), the smallest possible priority group is set.
  \param [in]      PriorityGroup  Priority grouping field.
 */
__STATIC_INLINE void __NVIC_SetPriorityGrouping(uint32_t PriorityGroup)
{
 8000bd0:	b480      	push	{r7}
 8000bd2:	b085      	sub	sp, #20
 8000bd4:	af00      	add	r7, sp, #0
 8000bd6:	6078      	str	r0, [r7, #4]
  uint32_t reg_value;
  uint32_t PriorityGroupTmp = (PriorityGroup & (uint32_t)0x07UL);             /* only values 0..7 are used          */
 8000bd8:	687b      	ldr	r3, [r7, #4]
 8000bda:	f003 0307 	and.w	r3, r3, #7
 8000bde:	60fb      	str	r3, [r7, #12]

  reg_value  =  SCB->AIRCR;                                                   /* read old register configuration    */
 8000be0:	4b0c      	ldr	r3, [pc, #48]	@ (8000c14 <__NVIC_SetPriorityGrouping+0x44>)
 8000be2:	68db      	ldr	r3, [r3, #12]
 8000be4:	60bb      	str	r3, [r7, #8]
  reg_value &= ~((uint32_t)(SCB_AIRCR_VECTKEY_Msk | SCB_AIRCR_PRIGROUP_Msk)); /* clear bits to change               */
 8000be6:	68ba      	ldr	r2, [r7, #8]
 8000be8:	f64f 03ff 	movw	r3, #63743	@ 0xf8ff
 8000bec:	4013      	ands	r3, r2
 8000bee:	60bb      	str	r3, [r7, #8]
  reg_value  =  (reg_value                                   |
                ((uint32_t)0x5FAUL << SCB_AIRCR_VECTKEY_Pos) |
                (PriorityGroupTmp << SCB_AIRCR_PRIGROUP_Pos)  );              /* Insert write key and priority group */
 8000bf0:	68fb      	ldr	r3, [r7, #12]
 8000bf2:	021a      	lsls	r2, r3, #8
                ((uint32_t)0x5FAUL << SCB_AIRCR_VECTKEY_Pos) |
 8000bf4:	68bb      	ldr	r3, [r7, #8]
 8000bf6:	4313      	orrs	r3, r2
  reg_value  =  (reg_value                                   |
 8000bf8:	f043 63bf 	orr.w	r3, r3, #100139008	@ 0x5f80000
 8000bfc:	f443 3300 	orr.w	r3, r3, #131072	@ 0x20000
 8000c00:	60bb      	str	r3, [r7, #8]
  SCB->AIRCR =  reg_value;
 8000c02:	4a04      	ldr	r2, [pc, #16]	@ (8000c14 <__NVIC_SetPriorityGrouping+0x44>)
 8000c04:	68bb      	ldr	r3, [r7, #8]
 8000c06:	60d3      	str	r3, [r2, #12]
}
 8000c08:	bf00      	nop
 8000c0a:	3714      	adds	r7, #20
 8000c0c:	46bd      	mov	sp, r7
 8000c0e:	f85d 7b04 	ldr.w	r7, [sp], #4
 8000c12:	4770      	bx	lr
 8000c14:	e000ed00 	.word	0xe000ed00

08000c18 <__NVIC_GetPriorityGrouping>:
  \brief   Get Priority Grouping
  \details Reads the priority grouping field from the NVIC Interrupt Controller.
  \return                Priority grouping field (SCB->AIRCR [10:8] PRIGROUP field).
 */
__STATIC_INLINE uint32_t __NVIC_GetPriorityGrouping(void)
{
 8000c18:	b480      	push	{r7}
 8000c1a:	af00      	add	r7, sp, #0
  return ((uint32_t)((SCB->AIRCR & SCB_AIRCR_PRIGROUP_Msk) >> SCB_AIRCR_PRIGROUP_Pos));
 8000c1c:	4b04      	ldr	r3, [pc, #16]	@ (8000c30 <__NVIC_GetPriorityGrouping+0x18>)
 8000c1e:	68db      	ldr	r3, [r3, #12]
 8000c20:	0a1b      	lsrs	r3, r3, #8
 8000c22:	f003 0307 	and.w	r3, r3, #7
}
 8000c26:	4618      	mov	r0, r3
 8000c28:	46bd      	mov	sp, r7
 8000c2a:	f85d 7b04 	ldr.w	r7, [sp], #4
 8000c2e:	4770      	bx	lr
 8000c30:	e000ed00 	.word	0xe000ed00

08000c34 <__NVIC_EnableIRQ>:
  \details Enables a device specific interrupt in the NVIC interrupt controller.
  \param [in]      IRQn  Device specific interrupt number.
  \note    IRQn must not be negative.
 */
__STATIC_INLINE void __NVIC_EnableIRQ(IRQn_Type IRQn)
{
 8000c34:	b480      	push	{r7}
 8000c36:	b083      	sub	sp, #12
 8000c38:	af00      	add	r7, sp, #0
 8000c3a:	4603      	mov	r3, r0
 8000c3c:	80fb      	strh	r3, [r7, #6]
  if ((int32_t)(IRQn) >= 0)
 8000c3e:	f9b7 3006 	ldrsh.w	r3, [r7, #6]
 8000c42:	2b00      	cmp	r3, #0
 8000c44:	db0b      	blt.n	8000c5e <__NVIC_EnableIRQ+0x2a>
  {
    __COMPILER_BARRIER();
    NVIC->ISER[(((uint32_t)IRQn) >> 5UL)] = (uint32_t)(1UL << (((uint32_t)IRQn) & 0x1FUL));
 8000c46:	88fb      	ldrh	r3, [r7, #6]
 8000c48:	f003 021f 	and.w	r2, r3, #31
 8000c4c:	4907      	ldr	r1, [pc, #28]	@ (8000c6c <__NVIC_EnableIRQ+0x38>)
 8000c4e:	f9b7 3006 	ldrsh.w	r3, [r7, #6]
 8000c52:	095b      	lsrs	r3, r3, #5
 8000c54:	2001      	movs	r0, #1
 8000c56:	fa00 f202 	lsl.w	r2, r0, r2
 8000c5a:	f841 2023 	str.w	r2, [r1, r3, lsl #2]
    __COMPILER_BARRIER();
  }
}
 8000c5e:	bf00      	nop
 8000c60:	370c      	adds	r7, #12
 8000c62:	46bd      	mov	sp, r7
 8000c64:	f85d 7b04 	ldr.w	r7, [sp], #4
 8000c68:	4770      	bx	lr
 8000c6a:	bf00      	nop
 8000c6c:	e000e100 	.word	0xe000e100

08000c70 <__NVIC_SetPriority>:
  \param [in]      IRQn  Interrupt number.
  \param [in]  priority  Priority to set.
  \note    The priority cannot be set for every processor exception.
 */
__STATIC_INLINE void __NVIC_SetPriority(IRQn_Type IRQn, uint32_t priority)
{
 8000c70:	b480      	push	{r7}
 8000c72:	b083      	sub	sp, #12
 8000c74:	af00      	add	r7, sp, #0
 8000c76:	4603      	mov	r3, r0
 8000c78:	6039      	str	r1, [r7, #0]
 8000c7a:	80fb      	strh	r3, [r7, #6]
  if ((int32_t)(IRQn) >= 0)
 8000c7c:	f9b7 3006 	ldrsh.w	r3, [r7, #6]
 8000c80:	2b00      	cmp	r3, #0
 8000c82:	db0a      	blt.n	8000c9a <__NVIC_SetPriority+0x2a>
  {
    NVIC->IPR[((uint32_t)IRQn)]               = (uint8_t)((priority << (8U - __NVIC_PRIO_BITS)) & (uint32_t)0xFFUL);
 8000c84:	683b      	ldr	r3, [r7, #0]
 8000c86:	b2da      	uxtb	r2, r3
 8000c88:	490c      	ldr	r1, [pc, #48]	@ (8000cbc <__NVIC_SetPriority+0x4c>)
 8000c8a:	f9b7 3006 	ldrsh.w	r3, [r7, #6]
 8000c8e:	0112      	lsls	r2, r2, #4
 8000c90:	b2d2      	uxtb	r2, r2
 8000c92:	440b      	add	r3, r1
 8000c94:	f883 2300 	strb.w	r2, [r3, #768]	@ 0x300
  }
  else
  {
    SCB->SHPR[(((uint32_t)IRQn) & 0xFUL)-4UL] = (uint8_t)((priority << (8U - __NVIC_PRIO_BITS)) & (uint32_t)0xFFUL);
  }
}
 8000c98:	e00a      	b.n	8000cb0 <__NVIC_SetPriority+0x40>
    SCB->SHPR[(((uint32_t)IRQn) & 0xFUL)-4UL] = (uint8_t)((priority << (8U - __NVIC_PRIO_BITS)) & (uint32_t)0xFFUL);
 8000c9a:	683b      	ldr	r3, [r7, #0]
 8000c9c:	b2da      	uxtb	r2, r3
 8000c9e:	4908      	ldr	r1, [pc, #32]	@ (8000cc0 <__NVIC_SetPriority+0x50>)
 8000ca0:	88fb      	ldrh	r3, [r7, #6]
 8000ca2:	f003 030f 	and.w	r3, r3, #15
 8000ca6:	3b04      	subs	r3, #4
 8000ca8:	0112      	lsls	r2, r2, #4
 8000caa:	b2d2      	uxtb	r2, r2
 8000cac:	440b      	add	r3, r1
 8000cae:	761a      	strb	r2, [r3, #24]
}
 8000cb0:	bf00      	nop
 8000cb2:	370c      	adds	r7, #12
 8000cb4:	46bd      	mov	sp, r7
 8000cb6:	f85d 7b04 	ldr.w	r7, [sp], #4
 8000cba:	4770      	bx	lr
 8000cbc:	e000e100 	.word	0xe000e100
 8000cc0:	e000ed00 	.word	0xe000ed00

08000cc4 <NVIC_EncodePriority>:
  \param [in]   PreemptPriority  Preemptive priority value (starting from 0).
  \param [in]       SubPriority  Subpriority value (starting from 0).
  \return                        Encoded priority. Value can be used in the function \ref NVIC_SetPriority().
 */
__STATIC_INLINE uint32_t NVIC_EncodePriority (uint32_t PriorityGroup, uint32_t PreemptPriority, uint32_t SubPriority)
{
 8000cc4:	b480      	push	{r7}
 8000cc6:	b089      	sub	sp, #36	@ 0x24
 8000cc8:	af00      	add	r7, sp, #0
 8000cca:	60f8      	str	r0, [r7, #12]
 8000ccc:	60b9      	str	r1, [r7, #8]
 8000cce:	607a      	str	r2, [r7, #4]
  uint32_t PriorityGroupTmp = (PriorityGroup & (uint32_t)0x07UL);   /* only values 0..7 are used          */
 8000cd0:	68fb      	ldr	r3, [r7, #12]
 8000cd2:	f003 0307 	and.w	r3, r3, #7
 8000cd6:	61fb      	str	r3, [r7, #28]
  uint32_t PreemptPriorityBits;
  uint32_t SubPriorityBits;

  PreemptPriorityBits = ((7UL - PriorityGroupTmp) > (uint32_t)(__NVIC_PRIO_BITS)) ? (uint32_t)(__NVIC_PRIO_BITS) : (uint32_t)(7UL - PriorityGroupTmp);
 8000cd8:	69fb      	ldr	r3, [r7, #28]
 8000cda:	f1c3 0307 	rsb	r3, r3, #7
 8000cde:	2b04      	cmp	r3, #4
 8000ce0:	bf28      	it	cs
 8000ce2:	2304      	movcs	r3, #4
 8000ce4:	61bb      	str	r3, [r7, #24]
  SubPriorityBits     = ((PriorityGroupTmp + (uint32_t)(__NVIC_PRIO_BITS)) < (uint32_t)7UL) ? (uint32_t)0UL : (uint32_t)((PriorityGroupTmp - 7UL) + (uint32_t)(__NVIC_PRIO_BITS));
 8000ce6:	69fb      	ldr	r3, [r7, #28]
 8000ce8:	3304      	adds	r3, #4
 8000cea:	2b06      	cmp	r3, #6
 8000cec:	d902      	bls.n	8000cf4 <NVIC_EncodePriority+0x30>
 8000cee:	69fb      	ldr	r3, [r7, #28]
 8000cf0:	3b03      	subs	r3, #3
 8000cf2:	e000      	b.n	8000cf6 <NVIC_EncodePriority+0x32>
 8000cf4:	2300      	movs	r3, #0
 8000cf6:	617b      	str	r3, [r7, #20]

  return (
           ((PreemptPriority & (uint32_t)((1UL << (PreemptPriorityBits)) - 1UL)) << SubPriorityBits) |
 8000cf8:	f04f 32ff 	mov.w	r2, #4294967295
 8000cfc:	69bb      	ldr	r3, [r7, #24]
 8000cfe:	fa02 f303 	lsl.w	r3, r2, r3
 8000d02:	43da      	mvns	r2, r3
 8000d04:	68bb      	ldr	r3, [r7, #8]
 8000d06:	401a      	ands	r2, r3
 8000d08:	697b      	ldr	r3, [r7, #20]
 8000d0a:	409a      	lsls	r2, r3
           ((SubPriority     & (uint32_t)((1UL << (SubPriorityBits    )) - 1UL)))
 8000d0c:	f04f 31ff 	mov.w	r1, #4294967295
 8000d10:	697b      	ldr	r3, [r7, #20]
 8000d12:	fa01 f303 	lsl.w	r3, r1, r3
 8000d16:	43d9      	mvns	r1, r3
 8000d18:	687b      	ldr	r3, [r7, #4]
 8000d1a:	400b      	ands	r3, r1
           ((PreemptPriority & (uint32_t)((1UL << (PreemptPriorityBits)) - 1UL)) << SubPriorityBits) |
 8000d1c:	4313      	orrs	r3, r2
         );
}
 8000d1e:	4618      	mov	r0, r3
 8000d20:	3724      	adds	r7, #36	@ 0x24
 8000d22:	46bd      	mov	sp, r7
 8000d24:	f85d 7b04 	ldr.w	r7, [sp], #4
 8000d28:	4770      	bx	lr

08000d2a <LL_ADC_REG_SetSamplingMode>:
  *         @arg @ref LL_ADC_REG_SAMPLING_MODE_BULB
  *         @arg @ref LL_ADC_REG_SAMPLING_MODE_TRIGGER_CONTROLED
  * @retval None
  */
__STATIC_INLINE void LL_ADC_REG_SetSamplingMode(ADC_TypeDef *ADCx, uint32_t SamplingMode)
{
 8000d2a:	b480      	push	{r7}
 8000d2c:	b083      	sub	sp, #12
 8000d2e:	af00      	add	r7, sp, #0
 8000d30:	6078      	str	r0, [r7, #4]
 8000d32:	6039      	str	r1, [r7, #0]
  MODIFY_REG(ADCx->CFGR2, ADC_CFGR2_BULB | ADC_CFGR2_SMPTRIG, SamplingMode);
 8000d34:	687b      	ldr	r3, [r7, #4]
 8000d36:	691b      	ldr	r3, [r3, #16]
 8000d38:	f023 6240 	bic.w	r2, r3, #201326592	@ 0xc000000
 8000d3c:	683b      	ldr	r3, [r7, #0]
 8000d3e:	431a      	orrs	r2, r3
 8000d40:	687b      	ldr	r3, [r7, #4]
 8000d42:	611a      	str	r2, [r3, #16]
}
 8000d44:	bf00      	nop
 8000d46:	370c      	adds	r7, #12
 8000d48:	46bd      	mov	sp, r7
 8000d4a:	f85d 7b04 	ldr.w	r7, [sp], #4
 8000d4e:	4770      	bx	lr

08000d50 <LL_ADC_REG_SetSequencerRanks>:
  *         (3) On STM32H5, fast channel allows: 2.5 (sampling) + 12.5 (conversion 12b) = 15 ADC clock cycles (fADC)
  *             Other channels are slow channels: 6.5 (sampling) + 12.5 (conversion 12b) = 19 ADC clock cycles (fADC)
  * @retval None
  */
__STATIC_INLINE void LL_ADC_REG_SetSequencerRanks(ADC_TypeDef *ADCx, uint32_t Rank, uint32_t Channel)
{
 8000d50:	b480      	push	{r7}
 8000d52:	b087      	sub	sp, #28
 8000d54:	af00      	add	r7, sp, #0
 8000d56:	60f8      	str	r0, [r7, #12]
 8000d58:	60b9      	str	r1, [r7, #8]
 8000d5a:	607a      	str	r2, [r7, #4]
  /* Set bits with content of parameter "Channel" with bits position          */
  /* in register and register position depending on parameter "Rank".         */
  /* Parameters "Rank" and "Channel" are used with masks because containing   */
  /* other bits reserved for other purpose.                                   */
  __IO uint32_t *preg = __ADC_PTR_REG_OFFSET(ADCx->SQR1,
 8000d5c:	68fb      	ldr	r3, [r7, #12]
 8000d5e:	3330      	adds	r3, #48	@ 0x30
 8000d60:	461a      	mov	r2, r3
 8000d62:	68bb      	ldr	r3, [r7, #8]
 8000d64:	0a1b      	lsrs	r3, r3, #8
 8000d66:	009b      	lsls	r3, r3, #2
 8000d68:	f003 030c 	and.w	r3, r3, #12
 8000d6c:	4413      	add	r3, r2
 8000d6e:	617b      	str	r3, [r7, #20]
                                             ((Rank & ADC_REG_SQRX_REGOFFSET_MASK) >> ADC_SQRX_REGOFFSET_POS));

  MODIFY_REG(*preg,
 8000d70:	697b      	ldr	r3, [r7, #20]
 8000d72:	681a      	ldr	r2, [r3, #0]
 8000d74:	68bb      	ldr	r3, [r7, #8]
 8000d76:	f003 031f 	and.w	r3, r3, #31
 8000d7a:	211f      	movs	r1, #31
 8000d7c:	fa01 f303 	lsl.w	r3, r1, r3
 8000d80:	43db      	mvns	r3, r3
 8000d82:	401a      	ands	r2, r3
 8000d84:	687b      	ldr	r3, [r7, #4]
 8000d86:	0e9b      	lsrs	r3, r3, #26
 8000d88:	f003 011f 	and.w	r1, r3, #31
 8000d8c:	68bb      	ldr	r3, [r7, #8]
 8000d8e:	f003 031f 	and.w	r3, r3, #31
 8000d92:	fa01 f303 	lsl.w	r3, r1, r3
 8000d96:	431a      	orrs	r2, r3
 8000d98:	697b      	ldr	r3, [r7, #20]
 8000d9a:	601a      	str	r2, [r3, #0]
             ADC_CHANNEL_ID_NUMBER_MASK_POSBIT0 << (Rank & ADC_REG_RANK_ID_SQRX_MASK),
             ((Channel & ADC_CHANNEL_ID_NUMBER_MASK) >> ADC_CHANNEL_ID_NUMBER_BITOFFSET_POS)
             << (Rank & ADC_REG_RANK_ID_SQRX_MASK));
}
 8000d9c:	bf00      	nop
 8000d9e:	371c      	adds	r7, #28
 8000da0:	46bd      	mov	sp, r7
 8000da2:	f85d 7b04 	ldr.w	r7, [sp], #4
 8000da6:	4770      	bx	lr

08000da8 <LL_ADC_SetChannelSamplingTime>:
  *             can be replaced by 3.5 ADC clock cycles.
  *             Refer to function @ref LL_ADC_SetSamplingTimeCommonConfig().
  * @retval None
  */
__STATIC_INLINE void LL_ADC_SetChannelSamplingTime(ADC_TypeDef *ADCx, uint32_t Channel, uint32_t SamplingTime)
{
 8000da8:	b480      	push	{r7}
 8000daa:	b087      	sub	sp, #28
 8000dac:	af00      	add	r7, sp, #0
 8000dae:	60f8      	str	r0, [r7, #12]
 8000db0:	60b9      	str	r1, [r7, #8]
 8000db2:	607a      	str	r2, [r7, #4]
  /* Set bits with content of parameter "SamplingTime" with bits position     */
  /* in register and register position depending on parameter "Channel".      */
  /* Parameter "Channel" is used with masks because containing                */
  /* other bits reserved for other purpose.                                   */
  __IO uint32_t *preg = __ADC_PTR_REG_OFFSET(ADCx->SMPR1,
 8000db4:	68fb      	ldr	r3, [r7, #12]
 8000db6:	3314      	adds	r3, #20
 8000db8:	461a      	mov	r2, r3
 8000dba:	68bb      	ldr	r3, [r7, #8]
 8000dbc:	0e5b      	lsrs	r3, r3, #25
 8000dbe:	009b      	lsls	r3, r3, #2
 8000dc0:	f003 0304 	and.w	r3, r3, #4
 8000dc4:	4413      	add	r3, r2
 8000dc6:	617b      	str	r3, [r7, #20]
                                             ((Channel & ADC_CHANNEL_SMPRX_REGOFFSET_MASK) >> ADC_SMPRX_REGOFFSET_POS));

  MODIFY_REG(*preg,
 8000dc8:	697b      	ldr	r3, [r7, #20]
 8000dca:	681a      	ldr	r2, [r3, #0]
 8000dcc:	68bb      	ldr	r3, [r7, #8]
 8000dce:	0d1b      	lsrs	r3, r3, #20
 8000dd0:	f003 031f 	and.w	r3, r3, #31
 8000dd4:	2107      	movs	r1, #7
 8000dd6:	fa01 f303 	lsl.w	r3, r1, r3
 8000dda:	43db      	mvns	r3, r3
 8000ddc:	401a      	ands	r2, r3
 8000dde:	68bb      	ldr	r3, [r7, #8]
 8000de0:	0d1b      	lsrs	r3, r3, #20
 8000de2:	f003 031f 	and.w	r3, r3, #31
 8000de6:	6879      	ldr	r1, [r7, #4]
 8000de8:	fa01 f303 	lsl.w	r3, r1, r3
 8000dec:	431a      	orrs	r2, r3
 8000dee:	697b      	ldr	r3, [r7, #20]
 8000df0:	601a      	str	r2, [r3, #0]
             ADC_SMPR1_SMP0 << ((Channel & ADC_CHANNEL_SMPx_BITOFFSET_MASK) >> ADC_CHANNEL_SMPx_BITOFFSET_POS),
             SamplingTime   << ((Channel & ADC_CHANNEL_SMPx_BITOFFSET_MASK) >> ADC_CHANNEL_SMPx_BITOFFSET_POS));
}
 8000df2:	bf00      	nop
 8000df4:	371c      	adds	r7, #28
 8000df6:	46bd      	mov	sp, r7
 8000df8:	f85d 7b04 	ldr.w	r7, [sp], #4
 8000dfc:	4770      	bx	lr
	...

08000e00 <LL_ADC_SetChannelSingleDiff>:
  *         @arg @ref LL_ADC_SINGLE_ENDED
  *         @arg @ref LL_ADC_DIFFERENTIAL_ENDED
  * @retval None
  */
__STATIC_INLINE void LL_ADC_SetChannelSingleDiff(ADC_TypeDef *ADCx, uint32_t Channel, uint32_t SingleDiff)
{
 8000e00:	b480      	push	{r7}
 8000e02:	b085      	sub	sp, #20
 8000e04:	af00      	add	r7, sp, #0
 8000e06:	60f8      	str	r0, [r7, #12]
 8000e08:	60b9      	str	r1, [r7, #8]
 8000e0a:	607a      	str	r2, [r7, #4]
  /* Bits of channels in single or differential mode are set only for         */
  /* differential mode (for single mode, mask of bits allowed to be set is    */
  /* shifted out of range of bits of channels in single or differential mode. */
  MODIFY_REG(ADCx->DIFSEL,
 8000e0c:	68fb      	ldr	r3, [r7, #12]
 8000e0e:	f8d3 20b0 	ldr.w	r2, [r3, #176]	@ 0xb0
 8000e12:	68bb      	ldr	r3, [r7, #8]
 8000e14:	f3c3 0313 	ubfx	r3, r3, #0, #20
 8000e18:	43db      	mvns	r3, r3
 8000e1a:	401a      	ands	r2, r3
 8000e1c:	687b      	ldr	r3, [r7, #4]
 8000e1e:	f003 0318 	and.w	r3, r3, #24
 8000e22:	4908      	ldr	r1, [pc, #32]	@ (8000e44 <LL_ADC_SetChannelSingleDiff+0x44>)
 8000e24:	40d9      	lsrs	r1, r3
 8000e26:	68bb      	ldr	r3, [r7, #8]
 8000e28:	400b      	ands	r3, r1
 8000e2a:	f3c3 0313 	ubfx	r3, r3, #0, #20
 8000e2e:	431a      	orrs	r2, r3
 8000e30:	68fb      	ldr	r3, [r7, #12]
 8000e32:	f8c3 20b0 	str.w	r2, [r3, #176]	@ 0xb0
             Channel & ADC_SINGLEDIFF_CHANNEL_MASK,
             (Channel & ADC_SINGLEDIFF_CHANNEL_MASK)
             & (ADC_DIFSEL_DIFSEL >> (SingleDiff & ADC_SINGLEDIFF_CHANNEL_SHIFT_MASK)));
}
 8000e36:	bf00      	nop
 8000e38:	3714      	adds	r7, #20
 8000e3a:	46bd      	mov	sp, r7
 8000e3c:	f85d 7b04 	ldr.w	r7, [sp], #4
 8000e40:	4770      	bx	lr
 8000e42:	bf00      	nop
 8000e44:	000fffff 	.word	0x000fffff

08000e48 <LL_ADC_DisableDeepPowerDown>:
  * @rmtoll CR       DEEPPWD        LL_ADC_DisableDeepPowerDown
  * @param  ADCx ADC instance
  * @retval None
  */
__STATIC_INLINE void LL_ADC_DisableDeepPowerDown(ADC_TypeDef *ADCx)
{
 8000e48:	b480      	push	{r7}
 8000e4a:	b083      	sub	sp, #12
 8000e4c:	af00      	add	r7, sp, #0
 8000e4e:	6078      	str	r0, [r7, #4]
  /* Note: Write register with some additional bits forced to state reset     */
  /*       instead of modifying only the selected bit for this function,      */
  /*       to not interfere with bits with HW property "rs".                  */
  CLEAR_BIT(ADCx->CR, (ADC_CR_DEEPPWD | ADC_CR_BITS_PROPERTY_RS));
 8000e50:	687b      	ldr	r3, [r7, #4]
 8000e52:	689b      	ldr	r3, [r3, #8]
 8000e54:	f023 4320 	bic.w	r3, r3, #2684354560	@ 0xa0000000
 8000e58:	f023 033f 	bic.w	r3, r3, #63	@ 0x3f
 8000e5c:	687a      	ldr	r2, [r7, #4]
 8000e5e:	6093      	str	r3, [r2, #8]
}
 8000e60:	bf00      	nop
 8000e62:	370c      	adds	r7, #12
 8000e64:	46bd      	mov	sp, r7
 8000e66:	f85d 7b04 	ldr.w	r7, [sp], #4
 8000e6a:	4770      	bx	lr

08000e6c <LL_ADC_EnableInternalRegulator>:
  * @rmtoll CR       ADVREGEN       LL_ADC_EnableInternalRegulator
  * @param  ADCx ADC instance
  * @retval None
  */
__STATIC_INLINE void LL_ADC_EnableInternalRegulator(ADC_TypeDef *ADCx)
{
 8000e6c:	b480      	push	{r7}
 8000e6e:	b083      	sub	sp, #12
 8000e70:	af00      	add	r7, sp, #0
 8000e72:	6078      	str	r0, [r7, #4]
  /* Note: Write register with some additional bits forced to state reset     */
  /*       instead of modifying only the selected bit for this function,      */
  /*       to not interfere with bits with HW property "rs".                  */
  MODIFY_REG(ADCx->CR,
 8000e74:	687b      	ldr	r3, [r7, #4]
 8000e76:	689b      	ldr	r3, [r3, #8]
 8000e78:	f023 4310 	bic.w	r3, r3, #2415919104	@ 0x90000000
 8000e7c:	f023 033f 	bic.w	r3, r3, #63	@ 0x3f
 8000e80:	f043 5280 	orr.w	r2, r3, #268435456	@ 0x10000000
 8000e84:	687b      	ldr	r3, [r7, #4]
 8000e86:	609a      	str	r2, [r3, #8]
             ADC_CR_BITS_PROPERTY_RS,
             ADC_CR_ADVREGEN);
}
 8000e88:	bf00      	nop
 8000e8a:	370c      	adds	r7, #12
 8000e8c:	46bd      	mov	sp, r7
 8000e8e:	f85d 7b04 	ldr.w	r7, [sp], #4
 8000e92:	4770      	bx	lr

08000e94 <LL_ICACHE_Enable>:
  * @brief  Enable the ICACHE.
  * @rmtoll CR           EN            LL_ICACHE_Enable
  * @retval None
  */
__STATIC_INLINE void LL_ICACHE_Enable(void)
{
 8000e94:	b480      	push	{r7}
 8000e96:	af00      	add	r7, sp, #0
  SET_BIT(ICACHE->CR, ICACHE_CR_EN);
 8000e98:	4b05      	ldr	r3, [pc, #20]	@ (8000eb0 <LL_ICACHE_Enable+0x1c>)
 8000e9a:	681b      	ldr	r3, [r3, #0]
 8000e9c:	4a04      	ldr	r2, [pc, #16]	@ (8000eb0 <LL_ICACHE_Enable+0x1c>)
 8000e9e:	f043 0301 	orr.w	r3, r3, #1
 8000ea2:	6013      	str	r3, [r2, #0]
}
 8000ea4:	bf00      	nop
 8000ea6:	46bd      	mov	sp, r7
 8000ea8:	f85d 7b04 	ldr.w	r7, [sp], #4
 8000eac:	4770      	bx	lr
 8000eae:	bf00      	nop
 8000eb0:	40030400 	.word	0x40030400

08000eb4 <LL_PWR_SetRegulVoltageScaling>:
  *         @arg @ref LL_PWR_REGU_VOLTAGE_SCALE2
  *         @arg @ref LL_PWR_REGU_VOLTAGE_SCALE3
  * @retval None
  */
__STATIC_INLINE void LL_PWR_SetRegulVoltageScaling(uint32_t VoltageScaling)
{
 8000eb4:	b480      	push	{r7}
 8000eb6:	b083      	sub	sp, #12
 8000eb8:	af00      	add	r7, sp, #0
 8000eba:	6078      	str	r0, [r7, #4]
  MODIFY_REG(PWR->VOSCR, PWR_VOSCR_VOS, VoltageScaling);
 8000ebc:	4b06      	ldr	r3, [pc, #24]	@ (8000ed8 <LL_PWR_SetRegulVoltageScaling+0x24>)
 8000ebe:	691b      	ldr	r3, [r3, #16]
 8000ec0:	f023 0230 	bic.w	r2, r3, #48	@ 0x30
 8000ec4:	4904      	ldr	r1, [pc, #16]	@ (8000ed8 <LL_PWR_SetRegulVoltageScaling+0x24>)
 8000ec6:	687b      	ldr	r3, [r7, #4]
 8000ec8:	4313      	orrs	r3, r2
 8000eca:	610b      	str	r3, [r1, #16]
}
 8000ecc:	bf00      	nop
 8000ece:	370c      	adds	r7, #12
 8000ed0:	46bd      	mov	sp, r7
 8000ed2:	f85d 7b04 	ldr.w	r7, [sp], #4
 8000ed6:	4770      	bx	lr
 8000ed8:	44020800 	.word	0x44020800

08000edc <LL_PWR_DisableUCPDDeadBattery>:
  *         control to the UCPD (which should therefore be initialized before doing the disable).
  * @rmtoll UCPDR          UCPD_DBDIS           LL_PWR_DisableUCPDDeadBattery
  * @retval None
  */
__STATIC_INLINE void LL_PWR_DisableUCPDDeadBattery(void)
{
 8000edc:	b480      	push	{r7}
 8000ede:	af00      	add	r7, sp, #0
  SET_BIT(PWR->UCPDR, PWR_UCPDR_UCPD_DBDIS);
 8000ee0:	4b05      	ldr	r3, [pc, #20]	@ (8000ef8 <LL_PWR_DisableUCPDDeadBattery+0x1c>)
 8000ee2:	6adb      	ldr	r3, [r3, #44]	@ 0x2c
 8000ee4:	4a04      	ldr	r2, [pc, #16]	@ (8000ef8 <LL_PWR_DisableUCPDDeadBattery+0x1c>)
 8000ee6:	f043 0301 	orr.w	r3, r3, #1
 8000eea:	62d3      	str	r3, [r2, #44]	@ 0x2c
}
 8000eec:	bf00      	nop
 8000eee:	46bd      	mov	sp, r7
 8000ef0:	f85d 7b04 	ldr.w	r7, [sp], #4
 8000ef4:	4770      	bx	lr
 8000ef6:	bf00      	nop
 8000ef8:	44020800 	.word	0x44020800

08000efc <LL_PWR_IsActiveFlag_VOS>:
  *         scaling range or not.
  * @rmtoll VOSSR          VOSRDY          LL_PWR_IsActiveFlag_VOS
  * @retval State of bit (1 or 0).
  */
__STATIC_INLINE uint32_t LL_PWR_IsActiveFlag_VOS(void)
{
 8000efc:	b480      	push	{r7}
 8000efe:	af00      	add	r7, sp, #0
  return ((READ_BIT(PWR->VOSSR, PWR_VOSSR_VOSRDY) == (PWR_VOSSR_VOSRDY)) ? 1UL : 0UL);
 8000f00:	4b06      	ldr	r3, [pc, #24]	@ (8000f1c <LL_PWR_IsActiveFlag_VOS+0x20>)
 8000f02:	695b      	ldr	r3, [r3, #20]
 8000f04:	f003 0308 	and.w	r3, r3, #8
 8000f08:	2b08      	cmp	r3, #8
 8000f0a:	d101      	bne.n	8000f10 <LL_PWR_IsActiveFlag_VOS+0x14>
 8000f0c:	2301      	movs	r3, #1
 8000f0e:	e000      	b.n	8000f12 <LL_PWR_IsActiveFlag_VOS+0x16>
 8000f10:	2300      	movs	r3, #0
}
 8000f12:	4618      	mov	r0, r3
 8000f14:	46bd      	mov	sp, r7
 8000f16:	f85d 7b04 	ldr.w	r7, [sp], #4
 8000f1a:	4770      	bx	lr
 8000f1c:	44020800 	.word	0x44020800

08000f20 <LL_RCC_HSE_Enable>:
  * @brief  Enable HSE crystal oscillator (HSE ON)
  * @rmtoll CR           HSEON         LL_RCC_HSE_Enable
  * @retval None
  */
__STATIC_INLINE void LL_RCC_HSE_Enable(void)
{
 8000f20:	b480      	push	{r7}
 8000f22:	af00      	add	r7, sp, #0
  SET_BIT(RCC->CR, RCC_CR_HSEON);
 8000f24:	4b05      	ldr	r3, [pc, #20]	@ (8000f3c <LL_RCC_HSE_Enable+0x1c>)
 8000f26:	681b      	ldr	r3, [r3, #0]
 8000f28:	4a04      	ldr	r2, [pc, #16]	@ (8000f3c <LL_RCC_HSE_Enable+0x1c>)
 8000f2a:	f443 3380 	orr.w	r3, r3, #65536	@ 0x10000
 8000f2e:	6013      	str	r3, [r2, #0]
}
 8000f30:	bf00      	nop
 8000f32:	46bd      	mov	sp, r7
 8000f34:	f85d 7b04 	ldr.w	r7, [sp], #4
 8000f38:	4770      	bx	lr
 8000f3a:	bf00      	nop
 8000f3c:	44020c00 	.word	0x44020c00

08000f40 <LL_RCC_HSE_IsReady>:
  * @brief  Check if HSE oscillator Ready
  * @rmtoll CR           HSERDY        LL_RCC_HSE_IsReady
  * @retval State of bit (1 or 0).
  */
__STATIC_INLINE uint32_t LL_RCC_HSE_IsReady(void)
{
 8000f40:	b480      	push	{r7}
 8000f42:	af00      	add	r7, sp, #0
  return ((READ_BIT(RCC->CR, RCC_CR_HSERDY) == RCC_CR_HSERDY) ? 1UL : 0UL);
 8000f44:	4b07      	ldr	r3, [pc, #28]	@ (8000f64 <LL_RCC_HSE_IsReady+0x24>)
 8000f46:	681b      	ldr	r3, [r3, #0]
 8000f48:	f403 3300 	and.w	r3, r3, #131072	@ 0x20000
 8000f4c:	f5b3 3f00 	cmp.w	r3, #131072	@ 0x20000
 8000f50:	d101      	bne.n	8000f56 <LL_RCC_HSE_IsReady+0x16>
 8000f52:	2301      	movs	r3, #1
 8000f54:	e000      	b.n	8000f58 <LL_RCC_HSE_IsReady+0x18>
 8000f56:	2300      	movs	r3, #0
}
 8000f58:	4618      	mov	r0, r3
 8000f5a:	46bd      	mov	sp, r7
 8000f5c:	f85d 7b04 	ldr.w	r7, [sp], #4
 8000f60:	4770      	bx	lr
 8000f62:	bf00      	nop
 8000f64:	44020c00 	.word	0x44020c00

08000f68 <LL_RCC_SetSysClkSource>:
  *         @arg @ref LL_RCC_SYS_CLKSOURCE_HSE
  *         @arg @ref LL_RCC_SYS_CLKSOURCE_PLL1
  * @retval None
  */
__STATIC_INLINE void LL_RCC_SetSysClkSource(uint32_t Source)
{
 8000f68:	b480      	push	{r7}
 8000f6a:	b083      	sub	sp, #12
 8000f6c:	af00      	add	r7, sp, #0
 8000f6e:	6078      	str	r0, [r7, #4]
  MODIFY_REG(RCC->CFGR1, RCC_CFGR1_SW, Source);
 8000f70:	4b06      	ldr	r3, [pc, #24]	@ (8000f8c <LL_RCC_SetSysClkSource+0x24>)
 8000f72:	69db      	ldr	r3, [r3, #28]
 8000f74:	f023 0203 	bic.w	r2, r3, #3
 8000f78:	4904      	ldr	r1, [pc, #16]	@ (8000f8c <LL_RCC_SetSysClkSource+0x24>)
 8000f7a:	687b      	ldr	r3, [r7, #4]
 8000f7c:	4313      	orrs	r3, r2
 8000f7e:	61cb      	str	r3, [r1, #28]
}
 8000f80:	bf00      	nop
 8000f82:	370c      	adds	r7, #12
 8000f84:	46bd      	mov	sp, r7
 8000f86:	f85d 7b04 	ldr.w	r7, [sp], #4
 8000f8a:	4770      	bx	lr
 8000f8c:	44020c00 	.word	0x44020c00

08000f90 <LL_RCC_GetSysClkSource>:
  *         @arg @ref LL_RCC_SYS_CLKSOURCE_STATUS_CSI
  *         @arg @ref LL_RCC_SYS_CLKSOURCE_STATUS_HSE
  *         @arg @ref LL_RCC_SYS_CLKSOURCE_STATUS_PLL1
  */
__STATIC_INLINE uint32_t LL_RCC_GetSysClkSource(void)
{
 8000f90:	b480      	push	{r7}
 8000f92:	af00      	add	r7, sp, #0
  return (uint32_t)(READ_BIT(RCC->CFGR1, RCC_CFGR1_SWS));
 8000f94:	4b04      	ldr	r3, [pc, #16]	@ (8000fa8 <LL_RCC_GetSysClkSource+0x18>)
 8000f96:	69db      	ldr	r3, [r3, #28]
 8000f98:	f003 0318 	and.w	r3, r3, #24
}
 8000f9c:	4618      	mov	r0, r3
 8000f9e:	46bd      	mov	sp, r7
 8000fa0:	f85d 7b04 	ldr.w	r7, [sp], #4
 8000fa4:	4770      	bx	lr
 8000fa6:	bf00      	nop
 8000fa8:	44020c00 	.word	0x44020c00

08000fac <LL_RCC_SetAHBPrescaler>:
  *         @arg @ref LL_RCC_SYSCLK_DIV_256
  *         @arg @ref LL_RCC_SYSCLK_DIV_512
  * @retval None
  */
__STATIC_INLINE void LL_RCC_SetAHBPrescaler(uint32_t Prescaler)
{
 8000fac:	b480      	push	{r7}
 8000fae:	b083      	sub	sp, #12
 8000fb0:	af00      	add	r7, sp, #0
 8000fb2:	6078      	str	r0, [r7, #4]
  MODIFY_REG(RCC->CFGR2, RCC_CFGR2_HPRE, Prescaler);
 8000fb4:	4b06      	ldr	r3, [pc, #24]	@ (8000fd0 <LL_RCC_SetAHBPrescaler+0x24>)
 8000fb6:	6a1b      	ldr	r3, [r3, #32]
 8000fb8:	f023 020f 	bic.w	r2, r3, #15
 8000fbc:	4904      	ldr	r1, [pc, #16]	@ (8000fd0 <LL_RCC_SetAHBPrescaler+0x24>)
 8000fbe:	687b      	ldr	r3, [r7, #4]
 8000fc0:	4313      	orrs	r3, r2
 8000fc2:	620b      	str	r3, [r1, #32]
}
 8000fc4:	bf00      	nop
 8000fc6:	370c      	adds	r7, #12
 8000fc8:	46bd      	mov	sp, r7
 8000fca:	f85d 7b04 	ldr.w	r7, [sp], #4
 8000fce:	4770      	bx	lr
 8000fd0:	44020c00 	.word	0x44020c00

08000fd4 <LL_RCC_SetAPB1Prescaler>:
  *         @arg @ref LL_RCC_APB1_DIV_8
  *         @arg @ref LL_RCC_APB1_DIV_16
  * @retval None
  */
__STATIC_INLINE void LL_RCC_SetAPB1Prescaler(uint32_t Prescaler)
{
 8000fd4:	b480      	push	{r7}
 8000fd6:	b083      	sub	sp, #12
 8000fd8:	af00      	add	r7, sp, #0
 8000fda:	6078      	str	r0, [r7, #4]
  MODIFY_REG(RCC->CFGR2, RCC_CFGR2_PPRE1, Prescaler);
 8000fdc:	4b06      	ldr	r3, [pc, #24]	@ (8000ff8 <LL_RCC_SetAPB1Prescaler+0x24>)
 8000fde:	6a1b      	ldr	r3, [r3, #32]
 8000fe0:	f023 0270 	bic.w	r2, r3, #112	@ 0x70
 8000fe4:	4904      	ldr	r1, [pc, #16]	@ (8000ff8 <LL_RCC_SetAPB1Prescaler+0x24>)
 8000fe6:	687b      	ldr	r3, [r7, #4]
 8000fe8:	4313      	orrs	r3, r2
 8000fea:	620b      	str	r3, [r1, #32]
}
 8000fec:	bf00      	nop
 8000fee:	370c      	adds	r7, #12
 8000ff0:	46bd      	mov	sp, r7
 8000ff2:	f85d 7b04 	ldr.w	r7, [sp], #4
 8000ff6:	4770      	bx	lr
 8000ff8:	44020c00 	.word	0x44020c00

08000ffc <LL_RCC_SetAPB2Prescaler>:
  *         @arg @ref LL_RCC_APB2_DIV_8
  *         @arg @ref LL_RCC_APB2_DIV_16
  * @retval None
  */
__STATIC_INLINE void LL_RCC_SetAPB2Prescaler(uint32_t Prescaler)
{
 8000ffc:	b480      	push	{r7}
 8000ffe:	b083      	sub	sp, #12
 8001000:	af00      	add	r7, sp, #0
 8001002:	6078      	str	r0, [r7, #4]
  MODIFY_REG(RCC->CFGR2, RCC_CFGR2_PPRE2, Prescaler);
 8001004:	4b06      	ldr	r3, [pc, #24]	@ (8001020 <LL_RCC_SetAPB2Prescaler+0x24>)
 8001006:	6a1b      	ldr	r3, [r3, #32]
 8001008:	f423 62e0 	bic.w	r2, r3, #1792	@ 0x700
 800100c:	4904      	ldr	r1, [pc, #16]	@ (8001020 <LL_RCC_SetAPB2Prescaler+0x24>)
 800100e:	687b      	ldr	r3, [r7, #4]
 8001010:	4313      	orrs	r3, r2
 8001012:	620b      	str	r3, [r1, #32]
}
 8001014:	bf00      	nop
 8001016:	370c      	adds	r7, #12
 8001018:	46bd      	mov	sp, r7
 800101a:	f85d 7b04 	ldr.w	r7, [sp], #4
 800101e:	4770      	bx	lr
 8001020:	44020c00 	.word	0x44020c00

08001024 <LL_RCC_SetAPB3Prescaler>:
  *         @arg @ref LL_RCC_APB3_DIV_8
  *         @arg @ref LL_RCC_APB3_DIV_16
  * @retval None
  */
__STATIC_INLINE void LL_RCC_SetAPB3Prescaler(uint32_t Prescaler)
{
 8001024:	b480      	push	{r7}
 8001026:	b083      	sub	sp, #12
 8001028:	af00      	add	r7, sp, #0
 800102a:	6078      	str	r0, [r7, #4]
  MODIFY_REG(RCC->CFGR2, RCC_CFGR2_PPRE3, Prescaler);
 800102c:	4b06      	ldr	r3, [pc, #24]	@ (8001048 <LL_RCC_SetAPB3Prescaler+0x24>)
 800102e:	6a1b      	ldr	r3, [r3, #32]
 8001030:	f423 42e0 	bic.w	r2, r3, #28672	@ 0x7000
 8001034:	4904      	ldr	r1, [pc, #16]	@ (8001048 <LL_RCC_SetAPB3Prescaler+0x24>)
 8001036:	687b      	ldr	r3, [r7, #4]
 8001038:	4313      	orrs	r3, r2
 800103a:	620b      	str	r3, [r1, #32]
}
 800103c:	bf00      	nop
 800103e:	370c      	adds	r7, #12
 8001040:	46bd      	mov	sp, r7
 8001042:	f85d 7b04 	ldr.w	r7, [sp], #4
 8001046:	4770      	bx	lr
 8001048:	44020c00 	.word	0x44020c00

0800104c <LL_RCC_SetClockSource>:
  *
  *         (*) value not defined in all devices.
  * @retval None
  */
__STATIC_INLINE void LL_RCC_SetClockSource(uint32_t ClkSource)
{
 800104c:	b480      	push	{r7}
 800104e:	b085      	sub	sp, #20
 8001050:	af00      	add	r7, sp, #0
 8001052:	6078      	str	r0, [r7, #4]
  uint32_t *pReg = (uint32_t *)((uint32_t)&RCC->CCIPR1 + LL_CLKSOURCE_REG(ClkSource));
 8001054:	687b      	ldr	r3, [r7, #4]
 8001056:	b2da      	uxtb	r2, r3
 8001058:	4b10      	ldr	r3, [pc, #64]	@ (800109c <LL_RCC_SetClockSource+0x50>)
 800105a:	4413      	add	r3, r2
 800105c:	60fb      	str	r3, [r7, #12]
  MODIFY_REG(*pReg, LL_CLKSOURCE_MASK(ClkSource), LL_CLKSOURCE_CONFIG(ClkSource));
 800105e:	68fb      	ldr	r3, [r7, #12]
 8001060:	681a      	ldr	r2, [r3, #0]
 8001062:	687b      	ldr	r3, [r7, #4]
 8001064:	0e19      	lsrs	r1, r3, #24
 8001066:	687b      	ldr	r3, [r7, #4]
 8001068:	0a1b      	lsrs	r3, r3, #8
 800106a:	f003 031f 	and.w	r3, r3, #31
 800106e:	fa01 f303 	lsl.w	r3, r1, r3
 8001072:	43db      	mvns	r3, r3
 8001074:	401a      	ands	r2, r3
 8001076:	687b      	ldr	r3, [r7, #4]
 8001078:	0c1b      	lsrs	r3, r3, #16
 800107a:	b2d9      	uxtb	r1, r3
 800107c:	687b      	ldr	r3, [r7, #4]
 800107e:	0a1b      	lsrs	r3, r3, #8
 8001080:	f003 031f 	and.w	r3, r3, #31
 8001084:	fa01 f303 	lsl.w	r3, r1, r3
 8001088:	431a      	orrs	r2, r3
 800108a:	68fb      	ldr	r3, [r7, #12]
 800108c:	601a      	str	r2, [r3, #0]
}
 800108e:	bf00      	nop
 8001090:	3714      	adds	r7, #20
 8001092:	46bd      	mov	sp, r7
 8001094:	f85d 7b04 	ldr.w	r7, [sp], #4
 8001098:	4770      	bx	lr
 800109a:	bf00      	nop
 800109c:	44020cd8 	.word	0x44020cd8

080010a0 <LL_RCC_SetSPIClockSource>:
  *
  *  (*)  : For stm32h56xxx and stm32h57xxx family lines.
  * @retval None
  */
__STATIC_INLINE void LL_RCC_SetSPIClockSource(uint32_t SPIxSource)
{
 80010a0:	b580      	push	{r7, lr}
 80010a2:	b082      	sub	sp, #8
 80010a4:	af00      	add	r7, sp, #0
 80010a6:	6078      	str	r0, [r7, #4]
  LL_RCC_SetClockSource(SPIxSource);
 80010a8:	6878      	ldr	r0, [r7, #4]
 80010aa:	f7ff ffcf 	bl	800104c <LL_RCC_SetClockSource>
}
 80010ae:	bf00      	nop
 80010b0:	3708      	adds	r7, #8
 80010b2:	46bd      	mov	sp, r7
 80010b4:	bd80      	pop	{r7, pc}
	...

080010b8 <LL_RCC_SetADCDACClockSource>:
  *         @arg @ref LL_RCC_ADCDAC_CLKSOURCE_HSI
  *         @arg @ref LL_RCC_ADCDAC_CLKSOURCE_CSI
  * @retval None
  */
__STATIC_INLINE void LL_RCC_SetADCDACClockSource(uint32_t ADCDACxSource)
{
 80010b8:	b480      	push	{r7}
 80010ba:	b083      	sub	sp, #12
 80010bc:	af00      	add	r7, sp, #0
 80010be:	6078      	str	r0, [r7, #4]
  MODIFY_REG(RCC->CCIPR5, RCC_CCIPR5_ADCDACSEL, ADCDACxSource);
 80010c0:	4b07      	ldr	r3, [pc, #28]	@ (80010e0 <LL_RCC_SetADCDACClockSource+0x28>)
 80010c2:	f8d3 30e8 	ldr.w	r3, [r3, #232]	@ 0xe8
 80010c6:	f023 0207 	bic.w	r2, r3, #7
 80010ca:	4905      	ldr	r1, [pc, #20]	@ (80010e0 <LL_RCC_SetADCDACClockSource+0x28>)
 80010cc:	687b      	ldr	r3, [r7, #4]
 80010ce:	4313      	orrs	r3, r2
 80010d0:	f8c1 30e8 	str.w	r3, [r1, #232]	@ 0xe8
}
 80010d4:	bf00      	nop
 80010d6:	370c      	adds	r7, #12
 80010d8:	46bd      	mov	sp, r7
 80010da:	f85d 7b04 	ldr.w	r7, [sp], #4
 80010de:	4770      	bx	lr
 80010e0:	44020c00 	.word	0x44020c00

080010e4 <LL_RCC_PLL1_Enable>:
  * @brief  Enable PLL1
  * @rmtoll CR           PLL1ON         LL_RCC_PLL1_Enable
  * @retval None
  */
__STATIC_INLINE void LL_RCC_PLL1_Enable(void)
{
 80010e4:	b480      	push	{r7}
 80010e6:	af00      	add	r7, sp, #0
  SET_BIT(RCC->CR, RCC_CR_PLL1ON);
 80010e8:	4b05      	ldr	r3, [pc, #20]	@ (8001100 <LL_RCC_PLL1_Enable+0x1c>)
 80010ea:	681b      	ldr	r3, [r3, #0]
 80010ec:	4a04      	ldr	r2, [pc, #16]	@ (8001100 <LL_RCC_PLL1_Enable+0x1c>)
 80010ee:	f043 7380 	orr.w	r3, r3, #16777216	@ 0x1000000
 80010f2:	6013      	str	r3, [r2, #0]
}
 80010f4:	bf00      	nop
 80010f6:	46bd      	mov	sp, r7
 80010f8:	f85d 7b04 	ldr.w	r7, [sp], #4
 80010fc:	4770      	bx	lr
 80010fe:	bf00      	nop
 8001100:	44020c00 	.word	0x44020c00

08001104 <LL_RCC_PLL1_IsReady>:
  * @brief  Check if PLL1 Ready
  * @rmtoll CR           PLL1RDY        LL_RCC_PLL1_IsReady
  * @retval State of bit (1 or 0).
  */
__STATIC_INLINE uint32_t LL_RCC_PLL1_IsReady(void)
{
 8001104:	b480      	push	{r7}
 8001106:	af00      	add	r7, sp, #0
  return ((READ_BIT(RCC->CR, RCC_CR_PLL1RDY) == RCC_CR_PLL1RDY) ? 1UL : 0UL);
 8001108:	4b07      	ldr	r3, [pc, #28]	@ (8001128 <LL_RCC_PLL1_IsReady+0x24>)
 800110a:	681b      	ldr	r3, [r3, #0]
 800110c:	f003 7300 	and.w	r3, r3, #33554432	@ 0x2000000
 8001110:	f1b3 7f00 	cmp.w	r3, #33554432	@ 0x2000000
 8001114:	d101      	bne.n	800111a <LL_RCC_PLL1_IsReady+0x16>
 8001116:	2301      	movs	r3, #1
 8001118:	e000      	b.n	800111c <LL_RCC_PLL1_IsReady+0x18>
 800111a:	2300      	movs	r3, #0
}
 800111c:	4618      	mov	r0, r3
 800111e:	46bd      	mov	sp, r7
 8001120:	f85d 7b04 	ldr.w	r7, [sp], #4
 8001124:	4770      	bx	lr
 8001126:	bf00      	nop
 8001128:	44020c00 	.word	0x44020c00

0800112c <LL_RCC_PLL1Q_Enable>:
  * @note   This API shall be called only when PLL1 is disabled.
  * @rmtoll PLL1CFGR      PLL1QEN        LL_RCC_PLL1Q_Enable
  * @retval None
  */
__STATIC_INLINE void LL_RCC_PLL1Q_Enable(void)
{
 800112c:	b480      	push	{r7}
 800112e:	af00      	add	r7, sp, #0
  SET_BIT(RCC->PLL1CFGR, RCC_PLL1CFGR_PLL1QEN);
 8001130:	4b05      	ldr	r3, [pc, #20]	@ (8001148 <LL_RCC_PLL1Q_Enable+0x1c>)
 8001132:	6a9b      	ldr	r3, [r3, #40]	@ 0x28
 8001134:	4a04      	ldr	r2, [pc, #16]	@ (8001148 <LL_RCC_PLL1Q_Enable+0x1c>)
 8001136:	f443 3300 	orr.w	r3, r3, #131072	@ 0x20000
 800113a:	6293      	str	r3, [r2, #40]	@ 0x28
}
 800113c:	bf00      	nop
 800113e:	46bd      	mov	sp, r7
 8001140:	f85d 7b04 	ldr.w	r7, [sp], #4
 8001144:	4770      	bx	lr
 8001146:	bf00      	nop
 8001148:	44020c00 	.word	0x44020c00

0800114c <LL_RCC_PLL1_SetSource>:
  *         @arg @ref LL_RCC_PLL1SOURCE_CSI
  *         @arg @ref LL_RCC_PLL1SOURCE_HSE
  * @retval None
  */
__STATIC_INLINE void LL_RCC_PLL1_SetSource(uint32_t PLL1Source)
{
 800114c:	b480      	push	{r7}
 800114e:	b083      	sub	sp, #12
 8001150:	af00      	add	r7, sp, #0
 8001152:	6078      	str	r0, [r7, #4]
  MODIFY_REG(RCC->PLL1CFGR, RCC_PLL1CFGR_PLL1SRC, PLL1Source);
 8001154:	4b06      	ldr	r3, [pc, #24]	@ (8001170 <LL_RCC_PLL1_SetSource+0x24>)
 8001156:	6a9b      	ldr	r3, [r3, #40]	@ 0x28
 8001158:	f023 0203 	bic.w	r2, r3, #3
 800115c:	4904      	ldr	r1, [pc, #16]	@ (8001170 <LL_RCC_PLL1_SetSource+0x24>)
 800115e:	687b      	ldr	r3, [r7, #4]
 8001160:	4313      	orrs	r3, r2
 8001162:	628b      	str	r3, [r1, #40]	@ 0x28
}
 8001164:	bf00      	nop
 8001166:	370c      	adds	r7, #12
 8001168:	46bd      	mov	sp, r7
 800116a:	f85d 7b04 	ldr.w	r7, [sp], #4
 800116e:	4770      	bx	lr
 8001170:	44020c00 	.word	0x44020c00

08001174 <LL_RCC_PLL1_SetN>:
  * @brief  Set Main PLL1 multiplication factor for VCO
  * @rmtoll PLL1CFGR      PLL1N          LL_RCC_PLL1_SetN
  * @param PLL1N parameter can be a value between 4 and 512
  */
__STATIC_INLINE void LL_RCC_PLL1_SetN(uint32_t PLL1N)
{
 8001174:	b480      	push	{r7}
 8001176:	b083      	sub	sp, #12
 8001178:	af00      	add	r7, sp, #0
 800117a:	6078      	str	r0, [r7, #4]
  MODIFY_REG(RCC->PLL1DIVR, RCC_PLL1DIVR_PLL1N, (PLL1N - 1UL) << RCC_PLL1DIVR_PLL1N_Pos);
 800117c:	4b08      	ldr	r3, [pc, #32]	@ (80011a0 <LL_RCC_PLL1_SetN+0x2c>)
 800117e:	6b5b      	ldr	r3, [r3, #52]	@ 0x34
 8001180:	f423 73ff 	bic.w	r3, r3, #510	@ 0x1fe
 8001184:	f023 0301 	bic.w	r3, r3, #1
 8001188:	687a      	ldr	r2, [r7, #4]
 800118a:	3a01      	subs	r2, #1
 800118c:	4904      	ldr	r1, [pc, #16]	@ (80011a0 <LL_RCC_PLL1_SetN+0x2c>)
 800118e:	4313      	orrs	r3, r2
 8001190:	634b      	str	r3, [r1, #52]	@ 0x34
}
 8001192:	bf00      	nop
 8001194:	370c      	adds	r7, #12
 8001196:	46bd      	mov	sp, r7
 8001198:	f85d 7b04 	ldr.w	r7, [sp], #4
 800119c:	4770      	bx	lr
 800119e:	bf00      	nop
 80011a0:	44020c00 	.word	0x44020c00

080011a4 <LL_RCC_PLL1_SetP>:
  * @note Used for System clock
  * @rmtoll PLL1CFGR      PLL1P       LL_RCC_PLL1_SetP
  * @param PLL1P parameter can be a value between 2 and 128 (odd value not allowed)
  */
__STATIC_INLINE void LL_RCC_PLL1_SetP(uint32_t PLL1P)
{
 80011a4:	b480      	push	{r7}
 80011a6:	b083      	sub	sp, #12
 80011a8:	af00      	add	r7, sp, #0
 80011aa:	6078      	str	r0, [r7, #4]
  MODIFY_REG(RCC->PLL1DIVR, RCC_PLL1DIVR_PLL1P, (PLL1P - 1UL) << RCC_PLL1DIVR_PLL1P_Pos);
 80011ac:	4b07      	ldr	r3, [pc, #28]	@ (80011cc <LL_RCC_PLL1_SetP+0x28>)
 80011ae:	6b5b      	ldr	r3, [r3, #52]	@ 0x34
 80011b0:	f423 427e 	bic.w	r2, r3, #65024	@ 0xfe00
 80011b4:	687b      	ldr	r3, [r7, #4]
 80011b6:	3b01      	subs	r3, #1
 80011b8:	025b      	lsls	r3, r3, #9
 80011ba:	4904      	ldr	r1, [pc, #16]	@ (80011cc <LL_RCC_PLL1_SetP+0x28>)
 80011bc:	4313      	orrs	r3, r2
 80011be:	634b      	str	r3, [r1, #52]	@ 0x34
}
 80011c0:	bf00      	nop
 80011c2:	370c      	adds	r7, #12
 80011c4:	46bd      	mov	sp, r7
 80011c6:	f85d 7b04 	ldr.w	r7, [sp], #4
 80011ca:	4770      	bx	lr
 80011cc:	44020c00 	.word	0x44020c00

080011d0 <LL_RCC_PLL1_SetQ>:
  * @note Used for peripherals clocks
  * @rmtoll PLLCFGR      PLL1Q          LL_RCC_PLL1_SetQ
  * @param PLL1Q parameter can be a value between 1 and 128
  */
__STATIC_INLINE void LL_RCC_PLL1_SetQ(uint32_t PLL1Q)
{
 80011d0:	b480      	push	{r7}
 80011d2:	b083      	sub	sp, #12
 80011d4:	af00      	add	r7, sp, #0
 80011d6:	6078      	str	r0, [r7, #4]
  MODIFY_REG(RCC->PLL1DIVR, RCC_PLL1DIVR_PLL1Q, (PLL1Q - 1UL) << RCC_PLL1DIVR_PLL1Q_Pos);
 80011d8:	4b07      	ldr	r3, [pc, #28]	@ (80011f8 <LL_RCC_PLL1_SetQ+0x28>)
 80011da:	6b5b      	ldr	r3, [r3, #52]	@ 0x34
 80011dc:	f423 02fe 	bic.w	r2, r3, #8323072	@ 0x7f0000
 80011e0:	687b      	ldr	r3, [r7, #4]
 80011e2:	3b01      	subs	r3, #1
 80011e4:	041b      	lsls	r3, r3, #16
 80011e6:	4904      	ldr	r1, [pc, #16]	@ (80011f8 <LL_RCC_PLL1_SetQ+0x28>)
 80011e8:	4313      	orrs	r3, r2
 80011ea:	634b      	str	r3, [r1, #52]	@ 0x34
}
 80011ec:	bf00      	nop
 80011ee:	370c      	adds	r7, #12
 80011f0:	46bd      	mov	sp, r7
 80011f2:	f85d 7b04 	ldr.w	r7, [sp], #4
 80011f6:	4770      	bx	lr
 80011f8:	44020c00 	.word	0x44020c00

080011fc <LL_RCC_PLL1_SetR>:
  * @note Used for trace
  * @rmtoll PLL1DIVR      PLL1R          LL_RCC_PLL1_SetR
  * @param PLL1R parameter can be a value between 1 and 128
  */
__STATIC_INLINE void LL_RCC_PLL1_SetR(uint32_t PLL1R)
{
 80011fc:	b480      	push	{r7}
 80011fe:	b083      	sub	sp, #12
 8001200:	af00      	add	r7, sp, #0
 8001202:	6078      	str	r0, [r7, #4]
  MODIFY_REG(RCC->PLL1DIVR, RCC_PLL1DIVR_PLL1R, (PLL1R - 1UL) << RCC_PLL1DIVR_PLL1R_Pos);
 8001204:	4b07      	ldr	r3, [pc, #28]	@ (8001224 <LL_RCC_PLL1_SetR+0x28>)
 8001206:	6b5b      	ldr	r3, [r3, #52]	@ 0x34
 8001208:	f023 42fe 	bic.w	r2, r3, #2130706432	@ 0x7f000000
 800120c:	687b      	ldr	r3, [r7, #4]
 800120e:	3b01      	subs	r3, #1
 8001210:	061b      	lsls	r3, r3, #24
 8001212:	4904      	ldr	r1, [pc, #16]	@ (8001224 <LL_RCC_PLL1_SetR+0x28>)
 8001214:	4313      	orrs	r3, r2
 8001216:	634b      	str	r3, [r1, #52]	@ 0x34
}
 8001218:	bf00      	nop
 800121a:	370c      	adds	r7, #12
 800121c:	46bd      	mov	sp, r7
 800121e:	f85d 7b04 	ldr.w	r7, [sp], #4
 8001222:	4770      	bx	lr
 8001224:	44020c00 	.word	0x44020c00

08001228 <LL_RCC_PLL1_SetM>:
  * @brief  Set Division factor for the main PLL and other PLL
  * @rmtoll PLL1CFGR      PLL1M          LL_RCC_PLL1_SetM
  * @param PLL1M parameter can be a value between 1 and 63
  */
__STATIC_INLINE void LL_RCC_PLL1_SetM(uint32_t PLL1M)
{
 8001228:	b480      	push	{r7}
 800122a:	b083      	sub	sp, #12
 800122c:	af00      	add	r7, sp, #0
 800122e:	6078      	str	r0, [r7, #4]
  MODIFY_REG(RCC->PLL1CFGR, RCC_PLL1CFGR_PLL1M, PLL1M  << RCC_PLL1CFGR_PLL1M_Pos);
 8001230:	4b07      	ldr	r3, [pc, #28]	@ (8001250 <LL_RCC_PLL1_SetM+0x28>)
 8001232:	6a9b      	ldr	r3, [r3, #40]	@ 0x28
 8001234:	f423 527c 	bic.w	r2, r3, #16128	@ 0x3f00
 8001238:	687b      	ldr	r3, [r7, #4]
 800123a:	021b      	lsls	r3, r3, #8
 800123c:	4904      	ldr	r1, [pc, #16]	@ (8001250 <LL_RCC_PLL1_SetM+0x28>)
 800123e:	4313      	orrs	r3, r2
 8001240:	628b      	str	r3, [r1, #40]	@ 0x28
}
 8001242:	bf00      	nop
 8001244:	370c      	adds	r7, #12
 8001246:	46bd      	mov	sp, r7
 8001248:	f85d 7b04 	ldr.w	r7, [sp], #4
 800124c:	4770      	bx	lr
 800124e:	bf00      	nop
 8001250:	44020c00 	.word	0x44020c00

08001254 <LL_RCC_PLL1_SetVCOInputRange>:
  *         @arg @ref LL_RCC_PLLINPUTRANGE_4_8
  *         @arg @ref LL_RCC_PLLINPUTRANGE_8_16
  * @retval None
  */
__STATIC_INLINE void LL_RCC_PLL1_SetVCOInputRange(uint32_t InputRange)
{
 8001254:	b480      	push	{r7}
 8001256:	b083      	sub	sp, #12
 8001258:	af00      	add	r7, sp, #0
 800125a:	6078      	str	r0, [r7, #4]
  MODIFY_REG(RCC->PLL1CFGR, RCC_PLL1CFGR_PLL1RGE, InputRange << RCC_PLL1CFGR_PLL1RGE_Pos);
 800125c:	4b07      	ldr	r3, [pc, #28]	@ (800127c <LL_RCC_PLL1_SetVCOInputRange+0x28>)
 800125e:	6a9b      	ldr	r3, [r3, #40]	@ 0x28
 8001260:	f023 020c 	bic.w	r2, r3, #12
 8001264:	687b      	ldr	r3, [r7, #4]
 8001266:	009b      	lsls	r3, r3, #2
 8001268:	4904      	ldr	r1, [pc, #16]	@ (800127c <LL_RCC_PLL1_SetVCOInputRange+0x28>)
 800126a:	4313      	orrs	r3, r2
 800126c:	628b      	str	r3, [r1, #40]	@ 0x28
}
 800126e:	bf00      	nop
 8001270:	370c      	adds	r7, #12
 8001272:	46bd      	mov	sp, r7
 8001274:	f85d 7b04 	ldr.w	r7, [sp], #4
 8001278:	4770      	bx	lr
 800127a:	bf00      	nop
 800127c:	44020c00 	.word	0x44020c00

08001280 <LL_RCC_PLL1_SetVCOOutputRange>:
  *         @arg @ref LL_RCC_PLLVCORANGE_WIDE
  *         @arg @ref LL_RCC_PLLVCORANGE_MEDIUM
  * @retval None
  */
__STATIC_INLINE void LL_RCC_PLL1_SetVCOOutputRange(uint32_t VCORange)
{
 8001280:	b480      	push	{r7}
 8001282:	b083      	sub	sp, #12
 8001284:	af00      	add	r7, sp, #0
 8001286:	6078      	str	r0, [r7, #4]
  MODIFY_REG(RCC->PLL1CFGR, RCC_PLL1CFGR_PLL1VCOSEL, VCORange << RCC_PLL1CFGR_PLL1VCOSEL_Pos);
 8001288:	4b07      	ldr	r3, [pc, #28]	@ (80012a8 <LL_RCC_PLL1_SetVCOOutputRange+0x28>)
 800128a:	6a9b      	ldr	r3, [r3, #40]	@ 0x28
 800128c:	f023 0220 	bic.w	r2, r3, #32
 8001290:	687b      	ldr	r3, [r7, #4]
 8001292:	015b      	lsls	r3, r3, #5
 8001294:	4904      	ldr	r1, [pc, #16]	@ (80012a8 <LL_RCC_PLL1_SetVCOOutputRange+0x28>)
 8001296:	4313      	orrs	r3, r2
 8001298:	628b      	str	r3, [r1, #40]	@ 0x28
}
 800129a:	bf00      	nop
 800129c:	370c      	adds	r7, #12
 800129e:	46bd      	mov	sp, r7
 80012a0:	f85d 7b04 	ldr.w	r7, [sp], #4
 80012a4:	4770      	bx	lr
 80012a6:	bf00      	nop
 80012a8:	44020c00 	.word	0x44020c00

080012ac <LL_AHB2_GRP1_EnableClock>:
  *
  *  (*)  : Not available for all stm32h5xxxx family lines.
  * @retval None
  */
__STATIC_INLINE void LL_AHB2_GRP1_EnableClock(uint32_t Periphs)
{
 80012ac:	b480      	push	{r7}
 80012ae:	b085      	sub	sp, #20
 80012b0:	af00      	add	r7, sp, #0
 80012b2:	6078      	str	r0, [r7, #4]
  __IO uint32_t tmpreg;
  SET_BIT(RCC->AHB2ENR, Periphs);
 80012b4:	4b0a      	ldr	r3, [pc, #40]	@ (80012e0 <LL_AHB2_GRP1_EnableClock+0x34>)
 80012b6:	f8d3 208c 	ldr.w	r2, [r3, #140]	@ 0x8c
 80012ba:	4909      	ldr	r1, [pc, #36]	@ (80012e0 <LL_AHB2_GRP1_EnableClock+0x34>)
 80012bc:	687b      	ldr	r3, [r7, #4]
 80012be:	4313      	orrs	r3, r2
 80012c0:	f8c1 308c 	str.w	r3, [r1, #140]	@ 0x8c
  /* Delay after an RCC peripheral clock enabling */
  tmpreg = READ_BIT(RCC->AHB2ENR, Periphs);
 80012c4:	4b06      	ldr	r3, [pc, #24]	@ (80012e0 <LL_AHB2_GRP1_EnableClock+0x34>)
 80012c6:	f8d3 208c 	ldr.w	r2, [r3, #140]	@ 0x8c
 80012ca:	687b      	ldr	r3, [r7, #4]
 80012cc:	4013      	ands	r3, r2
 80012ce:	60fb      	str	r3, [r7, #12]
  (void)tmpreg;
 80012d0:	68fb      	ldr	r3, [r7, #12]
}
 80012d2:	bf00      	nop
 80012d4:	3714      	adds	r7, #20
 80012d6:	46bd      	mov	sp, r7
 80012d8:	f85d 7b04 	ldr.w	r7, [sp], #4
 80012dc:	4770      	bx	lr
 80012de:	bf00      	nop
 80012e0:	44020c00 	.word	0x44020c00

080012e4 <LL_APB1_GRP1_EnableClock>:
  *
  *  (*)  : Not available for all stm32h5xxxx family lines.
  * @retval None
  */
__STATIC_INLINE void LL_APB1_GRP1_EnableClock(uint32_t Periphs)
{
 80012e4:	b480      	push	{r7}
 80012e6:	b085      	sub	sp, #20
 80012e8:	af00      	add	r7, sp, #0
 80012ea:	6078      	str	r0, [r7, #4]
  __IO uint32_t tmpreg;
  SET_BIT(RCC->APB1LENR, Periphs);
 80012ec:	4b0a      	ldr	r3, [pc, #40]	@ (8001318 <LL_APB1_GRP1_EnableClock+0x34>)
 80012ee:	f8d3 209c 	ldr.w	r2, [r3, #156]	@ 0x9c
 80012f2:	4909      	ldr	r1, [pc, #36]	@ (8001318 <LL_APB1_GRP1_EnableClock+0x34>)
 80012f4:	687b      	ldr	r3, [r7, #4]
 80012f6:	4313      	orrs	r3, r2
 80012f8:	f8c1 309c 	str.w	r3, [r1, #156]	@ 0x9c
  /* Delay after an RCC peripheral clock enabling */
  tmpreg = READ_BIT(RCC->APB1LENR, Periphs);
 80012fc:	4b06      	ldr	r3, [pc, #24]	@ (8001318 <LL_APB1_GRP1_EnableClock+0x34>)
 80012fe:	f8d3 209c 	ldr.w	r2, [r3, #156]	@ 0x9c
 8001302:	687b      	ldr	r3, [r7, #4]
 8001304:	4013      	ands	r3, r2
 8001306:	60fb      	str	r3, [r7, #12]
  (void)tmpreg;
 8001308:	68fb      	ldr	r3, [r7, #12]
}
 800130a:	bf00      	nop
 800130c:	3714      	adds	r7, #20
 800130e:	46bd      	mov	sp, r7
 8001310:	f85d 7b04 	ldr.w	r7, [sp], #4
 8001314:	4770      	bx	lr
 8001316:	bf00      	nop
 8001318:	44020c00 	.word	0x44020c00

0800131c <LL_APB2_GRP1_EnableClock>:
  *
  *  (*)  : Not available for all stm32h5xxxx family lines.
  * @retval None
  */
__STATIC_INLINE void LL_APB2_GRP1_EnableClock(uint32_t Periphs)
{
 800131c:	b480      	push	{r7}
 800131e:	b085      	sub	sp, #20
 8001320:	af00      	add	r7, sp, #0
 8001322:	6078      	str	r0, [r7, #4]
  __IO uint32_t tmpreg;
  SET_BIT(RCC->APB2ENR, Periphs);
 8001324:	4b0a      	ldr	r3, [pc, #40]	@ (8001350 <LL_APB2_GRP1_EnableClock+0x34>)
 8001326:	f8d3 20a4 	ldr.w	r2, [r3, #164]	@ 0xa4
 800132a:	4909      	ldr	r1, [pc, #36]	@ (8001350 <LL_APB2_GRP1_EnableClock+0x34>)
 800132c:	687b      	ldr	r3, [r7, #4]
 800132e:	4313      	orrs	r3, r2
 8001330:	f8c1 30a4 	str.w	r3, [r1, #164]	@ 0xa4
  /* Delay after an RCC peripheral clock enabling */
  tmpreg = READ_BIT(RCC->APB2ENR, Periphs);
 8001334:	4b06      	ldr	r3, [pc, #24]	@ (8001350 <LL_APB2_GRP1_EnableClock+0x34>)
 8001336:	f8d3 20a4 	ldr.w	r2, [r3, #164]	@ 0xa4
 800133a:	687b      	ldr	r3, [r7, #4]
 800133c:	4013      	ands	r3, r2
 800133e:	60fb      	str	r3, [r7, #12]
  (void)tmpreg;
 8001340:	68fb      	ldr	r3, [r7, #12]
}
 8001342:	bf00      	nop
 8001344:	3714      	adds	r7, #20
 8001346:	46bd      	mov	sp, r7
 8001348:	f85d 7b04 	ldr.w	r7, [sp], #4
 800134c:	4770      	bx	lr
 800134e:	bf00      	nop
 8001350:	44020c00 	.word	0x44020c00

08001354 <LL_FLASH_SetLatency>:
  *         @arg @ref LL_FLASH_LATENCY_14
  *         @arg @ref LL_FLASH_LATENCY_15
  * @retval None
  */
__STATIC_INLINE void LL_FLASH_SetLatency(uint32_t Latency)
{
 8001354:	b480      	push	{r7}
 8001356:	b083      	sub	sp, #12
 8001358:	af00      	add	r7, sp, #0
 800135a:	6078      	str	r0, [r7, #4]
  MODIFY_REG(FLASH->ACR, FLASH_ACR_LATENCY, Latency);
 800135c:	4b06      	ldr	r3, [pc, #24]	@ (8001378 <LL_FLASH_SetLatency+0x24>)
 800135e:	681b      	ldr	r3, [r3, #0]
 8001360:	f023 020f 	bic.w	r2, r3, #15
 8001364:	4904      	ldr	r1, [pc, #16]	@ (8001378 <LL_FLASH_SetLatency+0x24>)
 8001366:	687b      	ldr	r3, [r7, #4]
 8001368:	4313      	orrs	r3, r2
 800136a:	600b      	str	r3, [r1, #0]
}
 800136c:	bf00      	nop
 800136e:	370c      	adds	r7, #12
 8001370:	46bd      	mov	sp, r7
 8001372:	f85d 7b04 	ldr.w	r7, [sp], #4
 8001376:	4770      	bx	lr
 8001378:	40022000 	.word	0x40022000

0800137c <LL_FLASH_GetLatency>:
  *         @arg @ref LL_FLASH_LATENCY_13
  *         @arg @ref LL_FLASH_LATENCY_14
  *         @arg @ref LL_FLASH_LATENCY_15
  */
__STATIC_INLINE uint32_t LL_FLASH_GetLatency(void)
{
 800137c:	b480      	push	{r7}
 800137e:	af00      	add	r7, sp, #0
  return (uint32_t)(READ_BIT(FLASH->ACR, FLASH_ACR_LATENCY));
 8001380:	4b04      	ldr	r3, [pc, #16]	@ (8001394 <LL_FLASH_GetLatency+0x18>)
 8001382:	681b      	ldr	r3, [r3, #0]
 8001384:	f003 030f 	and.w	r3, r3, #15
}
 8001388:	4618      	mov	r0, r3
 800138a:	46bd      	mov	sp, r7
 800138c:	f85d 7b04 	ldr.w	r7, [sp], #4
 8001390:	4770      	bx	lr
 8001392:	bf00      	nop
 8001394:	40022000 	.word	0x40022000

08001398 <LL_EXTI_SetEXTISource>:
  *         @arg @ref LL_EXTI_EXTI_LINE14
  *         @arg @ref LL_EXTI_EXTI_LINE15
  * @retval None
  */
__STATIC_INLINE void LL_EXTI_SetEXTISource(uint32_t Port, uint32_t Line)
{
 8001398:	b480      	push	{r7}
 800139a:	b083      	sub	sp, #12
 800139c:	af00      	add	r7, sp, #0
 800139e:	6078      	str	r0, [r7, #4]
 80013a0:	6039      	str	r1, [r7, #0]
  MODIFY_REG(EXTI->EXTICR[Line & 0x03U], EXTI_EXTICR1_EXTI0 << (Line >> LL_EXTI_REGISTER_PINPOS_SHFT), \
 80013a2:	4a10      	ldr	r2, [pc, #64]	@ (80013e4 <LL_EXTI_SetEXTISource+0x4c>)
 80013a4:	683b      	ldr	r3, [r7, #0]
 80013a6:	f003 0303 	and.w	r3, r3, #3
 80013aa:	3318      	adds	r3, #24
 80013ac:	f852 2023 	ldr.w	r2, [r2, r3, lsl #2]
 80013b0:	683b      	ldr	r3, [r7, #0]
 80013b2:	0c1b      	lsrs	r3, r3, #16
 80013b4:	210f      	movs	r1, #15
 80013b6:	fa01 f303 	lsl.w	r3, r1, r3
 80013ba:	43db      	mvns	r3, r3
 80013bc:	ea02 0103 	and.w	r1, r2, r3
 80013c0:	683b      	ldr	r3, [r7, #0]
 80013c2:	0c1b      	lsrs	r3, r3, #16
 80013c4:	687a      	ldr	r2, [r7, #4]
 80013c6:	409a      	lsls	r2, r3
 80013c8:	4806      	ldr	r0, [pc, #24]	@ (80013e4 <LL_EXTI_SetEXTISource+0x4c>)
 80013ca:	683b      	ldr	r3, [r7, #0]
 80013cc:	f003 0303 	and.w	r3, r3, #3
 80013d0:	430a      	orrs	r2, r1
 80013d2:	3318      	adds	r3, #24
 80013d4:	f840 2023 	str.w	r2, [r0, r3, lsl #2]
             Port << (Line >> LL_EXTI_REGISTER_PINPOS_SHFT));
}
 80013d8:	bf00      	nop
 80013da:	370c      	adds	r7, #12
 80013dc:	46bd      	mov	sp, r7
 80013de:	f85d 7b04 	ldr.w	r7, [sp], #4
 80013e2:	4770      	bx	lr
 80013e4:	44022000 	.word	0x44022000

080013e8 <LL_SPI_SetStandard>:
  *         @arg @ref LL_SPI_PROTOCOL_MOTOROLA
  *         @arg @ref LL_SPI_PROTOCOL_TI
  * @retval None
  */
__STATIC_INLINE void LL_SPI_SetStandard(SPI_TypeDef *SPIx, uint32_t Standard)
{
 80013e8:	b480      	push	{r7}
 80013ea:	b083      	sub	sp, #12
 80013ec:	af00      	add	r7, sp, #0
 80013ee:	6078      	str	r0, [r7, #4]
 80013f0:	6039      	str	r1, [r7, #0]
  MODIFY_REG(SPIx->CFG2, SPI_CFG2_SP, Standard);
 80013f2:	687b      	ldr	r3, [r7, #4]
 80013f4:	68db      	ldr	r3, [r3, #12]
 80013f6:	f423 1260 	bic.w	r2, r3, #3670016	@ 0x380000
 80013fa:	683b      	ldr	r3, [r7, #0]
 80013fc:	431a      	orrs	r2, r3
 80013fe:	687b      	ldr	r3, [r7, #4]
 8001400:	60da      	str	r2, [r3, #12]
}
 8001402:	bf00      	nop
 8001404:	370c      	adds	r7, #12
 8001406:	46bd      	mov	sp, r7
 8001408:	f85d 7b04 	ldr.w	r7, [sp], #4
 800140c:	4770      	bx	lr

0800140e <LL_SPI_EnableNSSPulseMgt>:
  * @rmtoll CFG2         SSOM          LL_SPI_EnableNSSPulseMgt
  * @param  SPIx SPI Instance
  * @retval None
  */
__STATIC_INLINE void LL_SPI_EnableNSSPulseMgt(SPI_TypeDef *SPIx)
{
 800140e:	b480      	push	{r7}
 8001410:	b083      	sub	sp, #12
 8001412:	af00      	add	r7, sp, #0
 8001414:	6078      	str	r0, [r7, #4]
  SET_BIT(SPIx->CFG2, SPI_CFG2_SSOM);
 8001416:	687b      	ldr	r3, [r7, #4]
 8001418:	68db      	ldr	r3, [r3, #12]
 800141a:	f043 4280 	orr.w	r2, r3, #1073741824	@ 0x40000000
 800141e:	687b      	ldr	r3, [r7, #4]
 8001420:	60da      	str	r2, [r3, #12]
}
 8001422:	bf00      	nop
 8001424:	370c      	adds	r7, #12
 8001426:	46bd      	mov	sp, r7
 8001428:	f85d 7b04 	ldr.w	r7, [sp], #4
 800142c:	4770      	bx	lr

0800142e <LL_TIM_EnableARRPreload>:
  * @rmtoll CR1          ARPE          LL_TIM_EnableARRPreload
  * @param  TIMx Timer instance
  * @retval None
  */
__STATIC_INLINE void LL_TIM_EnableARRPreload(TIM_TypeDef *TIMx)
{
 800142e:	b480      	push	{r7}
 8001430:	b083      	sub	sp, #12
 8001432:	af00      	add	r7, sp, #0
 8001434:	6078      	str	r0, [r7, #4]
  SET_BIT(TIMx->CR1, TIM_CR1_ARPE);
 8001436:	687b      	ldr	r3, [r7, #4]
 8001438:	681b      	ldr	r3, [r3, #0]
 800143a:	f043 0280 	orr.w	r2, r3, #128	@ 0x80
 800143e:	687b      	ldr	r3, [r7, #4]
 8001440:	601a      	str	r2, [r3, #0]
}
 8001442:	bf00      	nop
 8001444:	370c      	adds	r7, #12
 8001446:	46bd      	mov	sp, r7
 8001448:	f85d 7b04 	ldr.w	r7, [sp], #4
 800144c:	4770      	bx	lr

0800144e <LL_TIM_DisableARRPreload>:
  * @rmtoll CR1          ARPE          LL_TIM_DisableARRPreload
  * @param  TIMx Timer instance
  * @retval None
  */
__STATIC_INLINE void LL_TIM_DisableARRPreload(TIM_TypeDef *TIMx)
{
 800144e:	b480      	push	{r7}
 8001450:	b083      	sub	sp, #12
 8001452:	af00      	add	r7, sp, #0
 8001454:	6078      	str	r0, [r7, #4]
  CLEAR_BIT(TIMx->CR1, TIM_CR1_ARPE);
 8001456:	687b      	ldr	r3, [r7, #4]
 8001458:	681b      	ldr	r3, [r3, #0]
 800145a:	f023 0280 	bic.w	r2, r3, #128	@ 0x80
 800145e:	687b      	ldr	r3, [r7, #4]
 8001460:	601a      	str	r2, [r3, #0]
}
 8001462:	bf00      	nop
 8001464:	370c      	adds	r7, #12
 8001466:	46bd      	mov	sp, r7
 8001468:	f85d 7b04 	ldr.w	r7, [sp], #4
 800146c:	4770      	bx	lr

0800146e <LL_TIM_SetClockSource>:
  *         @arg @ref LL_TIM_CLOCKSOURCE_EXT_MODE1
  *         @arg @ref LL_TIM_CLOCKSOURCE_EXT_MODE2
  * @retval None
  */
__STATIC_INLINE void LL_TIM_SetClockSource(TIM_TypeDef *TIMx, uint32_t ClockSource)
{
 800146e:	b480      	push	{r7}
 8001470:	b083      	sub	sp, #12
 8001472:	af00      	add	r7, sp, #0
 8001474:	6078      	str	r0, [r7, #4]
 8001476:	6039      	str	r1, [r7, #0]
  MODIFY_REG(TIMx->SMCR, TIM_SMCR_SMS | TIM_SMCR_ECE, ClockSource);
 8001478:	687b      	ldr	r3, [r7, #4]
 800147a:	689b      	ldr	r3, [r3, #8]
 800147c:	f423 33a0 	bic.w	r3, r3, #81920	@ 0x14000
 8001480:	f023 0307 	bic.w	r3, r3, #7
 8001484:	683a      	ldr	r2, [r7, #0]
 8001486:	431a      	orrs	r2, r3
 8001488:	687b      	ldr	r3, [r7, #4]
 800148a:	609a      	str	r2, [r3, #8]
}
 800148c:	bf00      	nop
 800148e:	370c      	adds	r7, #12
 8001490:	46bd      	mov	sp, r7
 8001492:	f85d 7b04 	ldr.w	r7, [sp], #4
 8001496:	4770      	bx	lr

08001498 <LL_TIM_SetTriggerOutput>:
  *         @arg @ref LL_TIM_TRGO_OC4REF
  *         @arg @ref LL_TIM_TRGO_ENCODERCLK
  * @retval None
  */
__STATIC_INLINE void LL_TIM_SetTriggerOutput(TIM_TypeDef *TIMx, uint32_t TimerSynchronization)
{
 8001498:	b480      	push	{r7}
 800149a:	b083      	sub	sp, #12
 800149c:	af00      	add	r7, sp, #0
 800149e:	6078      	str	r0, [r7, #4]
 80014a0:	6039      	str	r1, [r7, #0]
  MODIFY_REG(TIMx->CR2, TIM_CR2_MMS, TimerSynchronization);
 80014a2:	687b      	ldr	r3, [r7, #4]
 80014a4:	685b      	ldr	r3, [r3, #4]
 80014a6:	f023 7300 	bic.w	r3, r3, #33554432	@ 0x2000000
 80014aa:	f023 0370 	bic.w	r3, r3, #112	@ 0x70
 80014ae:	683a      	ldr	r2, [r7, #0]
 80014b0:	431a      	orrs	r2, r3
 80014b2:	687b      	ldr	r3, [r7, #4]
 80014b4:	605a      	str	r2, [r3, #4]
}
 80014b6:	bf00      	nop
 80014b8:	370c      	adds	r7, #12
 80014ba:	46bd      	mov	sp, r7
 80014bc:	f85d 7b04 	ldr.w	r7, [sp], #4
 80014c0:	4770      	bx	lr

080014c2 <LL_TIM_SetTriggerOutput2>:
  *         @arg @ref LL_TIM_TRGO2_OC5_RISING_OC6_RISING
  *         @arg @ref LL_TIM_TRGO2_OC5_RISING_OC6_FALLING
  * @retval None
  */
__STATIC_INLINE void LL_TIM_SetTriggerOutput2(TIM_TypeDef *TIMx, uint32_t ADCSynchronization)
{
 80014c2:	b480      	push	{r7}
 80014c4:	b083      	sub	sp, #12
 80014c6:	af00      	add	r7, sp, #0
 80014c8:	6078      	str	r0, [r7, #4]
 80014ca:	6039      	str	r1, [r7, #0]
  MODIFY_REG(TIMx->CR2, TIM_CR2_MMS2, ADCSynchronization);
 80014cc:	687b      	ldr	r3, [r7, #4]
 80014ce:	685b      	ldr	r3, [r3, #4]
 80014d0:	f423 0270 	bic.w	r2, r3, #15728640	@ 0xf00000
 80014d4:	683b      	ldr	r3, [r7, #0]
 80014d6:	431a      	orrs	r2, r3
 80014d8:	687b      	ldr	r3, [r7, #4]
 80014da:	605a      	str	r2, [r3, #4]
}
 80014dc:	bf00      	nop
 80014de:	370c      	adds	r7, #12
 80014e0:	46bd      	mov	sp, r7
 80014e2:	f85d 7b04 	ldr.w	r7, [sp], #4
 80014e6:	4770      	bx	lr

080014e8 <LL_TIM_DisableMasterSlaveMode>:
  * @rmtoll SMCR         MSM           LL_TIM_DisableMasterSlaveMode
  * @param  TIMx Timer instance
  * @retval None
  */
__STATIC_INLINE void LL_TIM_DisableMasterSlaveMode(TIM_TypeDef *TIMx)
{
 80014e8:	b480      	push	{r7}
 80014ea:	b083      	sub	sp, #12
 80014ec:	af00      	add	r7, sp, #0
 80014ee:	6078      	str	r0, [r7, #4]
  CLEAR_BIT(TIMx->SMCR, TIM_SMCR_MSM);
 80014f0:	687b      	ldr	r3, [r7, #4]
 80014f2:	689b      	ldr	r3, [r3, #8]
 80014f4:	f023 0280 	bic.w	r2, r3, #128	@ 0x80
 80014f8:	687b      	ldr	r3, [r7, #4]
 80014fa:	609a      	str	r2, [r3, #8]
}
 80014fc:	bf00      	nop
 80014fe:	370c      	adds	r7, #12
 8001500:	46bd      	mov	sp, r7
 8001502:	f85d 7b04 	ldr.w	r7, [sp], #4
 8001506:	4770      	bx	lr

08001508 <LL_GPIO_SetPinMode>:
  *         @arg @ref LL_GPIO_MODE_ALTERNATE
  *         @arg @ref LL_GPIO_MODE_ANALOG
  * @retval None
  */
__STATIC_INLINE void LL_GPIO_SetPinMode(GPIO_TypeDef *GPIOx, uint32_t Pin, uint32_t Mode)
{
 8001508:	b480      	push	{r7}
 800150a:	b08b      	sub	sp, #44	@ 0x2c
 800150c:	af00      	add	r7, sp, #0
 800150e:	60f8      	str	r0, [r7, #12]
 8001510:	60b9      	str	r1, [r7, #8]
 8001512:	607a      	str	r2, [r7, #4]
  MODIFY_REG(GPIOx->MODER, (GPIO_MODER_MODE0 << (POSITION_VAL(Pin) * GPIO_MODER_MODE1_Pos)),
 8001514:	68fb      	ldr	r3, [r7, #12]
 8001516:	681a      	ldr	r2, [r3, #0]
 8001518:	68bb      	ldr	r3, [r7, #8]
 800151a:	617b      	str	r3, [r7, #20]
  uint32_t result;

#if ((defined (__ARM_ARCH_7M__      ) && (__ARM_ARCH_7M__      == 1)) || \
     (defined (__ARM_ARCH_7EM__     ) && (__ARM_ARCH_7EM__     == 1)) || \
     (defined (__ARM_ARCH_8M_MAIN__ ) && (__ARM_ARCH_8M_MAIN__ == 1))    )
   __ASM ("rbit %0, %1" : "=r" (result) : "r" (value) );
 800151c:	697b      	ldr	r3, [r7, #20]
 800151e:	fa93 f3a3 	rbit	r3, r3
 8001522:	613b      	str	r3, [r7, #16]
    result |= value & 1U;
    s--;
  }
  result <<= s;                        /* shift when v's highest bits are zero */
#endif
  return result;
 8001524:	693b      	ldr	r3, [r7, #16]
 8001526:	61bb      	str	r3, [r7, #24]
     optimisations using the logic "value was passed to __builtin_clz, so it
     is non-zero".
     ARM GCC 7.3 and possibly earlier will optimise this test away, leaving a
     single CLZ instruction.
   */
  if (value == 0U)
 8001528:	69bb      	ldr	r3, [r7, #24]
 800152a:	2b00      	cmp	r3, #0
 800152c:	d101      	bne.n	8001532 <LL_GPIO_SetPinMode+0x2a>
  {
    return 32U;
 800152e:	2320      	movs	r3, #32
 8001530:	e003      	b.n	800153a <LL_GPIO_SetPinMode+0x32>
  }
  return __builtin_clz(value);
 8001532:	69bb      	ldr	r3, [r7, #24]
 8001534:	fab3 f383 	clz	r3, r3
 8001538:	b2db      	uxtb	r3, r3
 800153a:	005b      	lsls	r3, r3, #1
 800153c:	2103      	movs	r1, #3
 800153e:	fa01 f303 	lsl.w	r3, r1, r3
 8001542:	43db      	mvns	r3, r3
 8001544:	401a      	ands	r2, r3
 8001546:	68bb      	ldr	r3, [r7, #8]
 8001548:	623b      	str	r3, [r7, #32]
   __ASM ("rbit %0, %1" : "=r" (result) : "r" (value) );
 800154a:	6a3b      	ldr	r3, [r7, #32]
 800154c:	fa93 f3a3 	rbit	r3, r3
 8001550:	61fb      	str	r3, [r7, #28]
  return result;
 8001552:	69fb      	ldr	r3, [r7, #28]
 8001554:	627b      	str	r3, [r7, #36]	@ 0x24
  if (value == 0U)
 8001556:	6a7b      	ldr	r3, [r7, #36]	@ 0x24
 8001558:	2b00      	cmp	r3, #0
 800155a:	d101      	bne.n	8001560 <LL_GPIO_SetPinMode+0x58>
    return 32U;
 800155c:	2320      	movs	r3, #32
 800155e:	e003      	b.n	8001568 <LL_GPIO_SetPinMode+0x60>
  return __builtin_clz(value);
 8001560:	6a7b      	ldr	r3, [r7, #36]	@ 0x24
 8001562:	fab3 f383 	clz	r3, r3
 8001566:	b2db      	uxtb	r3, r3
 8001568:	005b      	lsls	r3, r3, #1
 800156a:	6879      	ldr	r1, [r7, #4]
 800156c:	fa01 f303 	lsl.w	r3, r1, r3
 8001570:	431a      	orrs	r2, r3
 8001572:	68fb      	ldr	r3, [r7, #12]
 8001574:	601a      	str	r2, [r3, #0]
             (Mode << (POSITION_VAL(Pin) * GPIO_MODER_MODE1_Pos)));
}
 8001576:	bf00      	nop
 8001578:	372c      	adds	r7, #44	@ 0x2c
 800157a:	46bd      	mov	sp, r7
 800157c:	f85d 7b04 	ldr.w	r7, [sp], #4
 8001580:	4770      	bx	lr

08001582 <LL_GPIO_SetPinPull>:
  *         @arg @ref LL_GPIO_PULL_UP
  *         @arg @ref LL_GPIO_PULL_DOWN
  * @retval None
  */
__STATIC_INLINE void LL_GPIO_SetPinPull(GPIO_TypeDef *GPIOx, uint32_t Pin, uint32_t Pull)
{
 8001582:	b480      	push	{r7}
 8001584:	b08b      	sub	sp, #44	@ 0x2c
 8001586:	af00      	add	r7, sp, #0
 8001588:	60f8      	str	r0, [r7, #12]
 800158a:	60b9      	str	r1, [r7, #8]
 800158c:	607a      	str	r2, [r7, #4]
  MODIFY_REG(GPIOx->PUPDR, (GPIO_PUPDR_PUPD0 << (POSITION_VAL(Pin) * GPIO_PUPDR_PUPD1_Pos)),
 800158e:	68fb      	ldr	r3, [r7, #12]
 8001590:	68da      	ldr	r2, [r3, #12]
 8001592:	68bb      	ldr	r3, [r7, #8]
 8001594:	617b      	str	r3, [r7, #20]
   __ASM ("rbit %0, %1" : "=r" (result) : "r" (value) );
 8001596:	697b      	ldr	r3, [r7, #20]
 8001598:	fa93 f3a3 	rbit	r3, r3
 800159c:	613b      	str	r3, [r7, #16]
  return result;
 800159e:	693b      	ldr	r3, [r7, #16]
 80015a0:	61bb      	str	r3, [r7, #24]
  if (value == 0U)
 80015a2:	69bb      	ldr	r3, [r7, #24]
 80015a4:	2b00      	cmp	r3, #0
 80015a6:	d101      	bne.n	80015ac <LL_GPIO_SetPinPull+0x2a>
    return 32U;
 80015a8:	2320      	movs	r3, #32
 80015aa:	e003      	b.n	80015b4 <LL_GPIO_SetPinPull+0x32>
  return __builtin_clz(value);
 80015ac:	69bb      	ldr	r3, [r7, #24]
 80015ae:	fab3 f383 	clz	r3, r3
 80015b2:	b2db      	uxtb	r3, r3
 80015b4:	005b      	lsls	r3, r3, #1
 80015b6:	2103      	movs	r1, #3
 80015b8:	fa01 f303 	lsl.w	r3, r1, r3
 80015bc:	43db      	mvns	r3, r3
 80015be:	401a      	ands	r2, r3
 80015c0:	68bb      	ldr	r3, [r7, #8]
 80015c2:	623b      	str	r3, [r7, #32]
   __ASM ("rbit %0, %1" : "=r" (result) : "r" (value) );
 80015c4:	6a3b      	ldr	r3, [r7, #32]
 80015c6:	fa93 f3a3 	rbit	r3, r3
 80015ca:	61fb      	str	r3, [r7, #28]
  return result;
 80015cc:	69fb      	ldr	r3, [r7, #28]
 80015ce:	627b      	str	r3, [r7, #36]	@ 0x24
  if (value == 0U)
 80015d0:	6a7b      	ldr	r3, [r7, #36]	@ 0x24
 80015d2:	2b00      	cmp	r3, #0
 80015d4:	d101      	bne.n	80015da <LL_GPIO_SetPinPull+0x58>
    return 32U;
 80015d6:	2320      	movs	r3, #32
 80015d8:	e003      	b.n	80015e2 <LL_GPIO_SetPinPull+0x60>
  return __builtin_clz(value);
 80015da:	6a7b      	ldr	r3, [r7, #36]	@ 0x24
 80015dc:	fab3 f383 	clz	r3, r3
 80015e0:	b2db      	uxtb	r3, r3
 80015e2:	005b      	lsls	r3, r3, #1
 80015e4:	6879      	ldr	r1, [r7, #4]
 80015e6:	fa01 f303 	lsl.w	r3, r1, r3
 80015ea:	431a      	orrs	r2, r3
 80015ec:	68fb      	ldr	r3, [r7, #12]
 80015ee:	60da      	str	r2, [r3, #12]
             (Pull << (POSITION_VAL(Pin) * GPIO_PUPDR_PUPD1_Pos)));
}
 80015f0:	bf00      	nop
 80015f2:	372c      	adds	r7, #44	@ 0x2c
 80015f4:	46bd      	mov	sp, r7
 80015f6:	f85d 7b04 	ldr.w	r7, [sp], #4
 80015fa:	4770      	bx	lr

080015fc <LL_GPIO_ResetOutputPin>:
  *         @arg @ref LL_GPIO_PIN_15
  *         @arg @ref LL_GPIO_PIN_ALL
  * @retval None
  */
__STATIC_INLINE void LL_GPIO_ResetOutputPin(GPIO_TypeDef *GPIOx, uint32_t PinMask)
{
 80015fc:	b480      	push	{r7}
 80015fe:	b083      	sub	sp, #12
 8001600:	af00      	add	r7, sp, #0
 8001602:	6078      	str	r0, [r7, #4]
 8001604:	6039      	str	r1, [r7, #0]
  WRITE_REG(GPIOx->BRR, PinMask);
 8001606:	687b      	ldr	r3, [r7, #4]
 8001608:	683a      	ldr	r2, [r7, #0]
 800160a:	629a      	str	r2, [r3, #40]	@ 0x28
}
 800160c:	bf00      	nop
 800160e:	370c      	adds	r7, #12
 8001610:	46bd      	mov	sp, r7
 8001612:	f85d 7b04 	ldr.w	r7, [sp], #4
 8001616:	4770      	bx	lr

08001618 <main>:
/**
  * @brief  The application entry point.
  * @retval int
  */
int main(void)
{
 8001618:	b580      	push	{r7, lr}
 800161a:	af00      	add	r7, sp, #0
  /* MCU Configuration--------------------------------------------------------*/

  /* Reset of all peripherals, Initializes the Flash interface and the Systick. */

  /* System interrupt init*/
  NVIC_SetPriorityGrouping(NVIC_PRIORITYGROUP_4);
 800161c:	2003      	movs	r0, #3
 800161e:	f7ff fad7 	bl	8000bd0 <__NVIC_SetPriorityGrouping>

  /* SysTick_IRQn interrupt configuration */
  NVIC_SetPriority(SysTick_IRQn, NVIC_EncodePriority(NVIC_GetPriorityGrouping(),15, 0));
 8001622:	f7ff faf9 	bl	8000c18 <__NVIC_GetPriorityGrouping>
 8001626:	4603      	mov	r3, r0
 8001628:	2200      	movs	r2, #0
 800162a:	210f      	movs	r1, #15
 800162c:	4618      	mov	r0, r3
 800162e:	f7ff fb49 	bl	8000cc4 <NVIC_EncodePriority>
 8001632:	4603      	mov	r3, r0
 8001634:	4619      	mov	r1, r3
 8001636:	f04f 30ff 	mov.w	r0, #4294967295
 800163a:	f7ff fb19 	bl	8000c70 <__NVIC_SetPriority>

  /** Disable the internal Pull-Up in Dead Battery pins of UCPD peripheral
  */
  LL_PWR_DisableUCPDDeadBattery();
 800163e:	f7ff fc4d 	bl	8000edc <LL_PWR_DisableUCPDDeadBattery>
  /* USER CODE BEGIN Init */

  /* USER CODE END Init */

  /* Configure the system clock */
  SystemClock_Config();
 8001642:	f000 f817 	bl	8001674 <SystemClock_Config>
  /* USER CODE BEGIN SysInit */

  /* USER CODE END SysInit */

  /* Initialize all configured peripherals */
  MX_GPIO_Init();
 8001646:	f000 fb51 	bl	8001cec <MX_GPIO_Init>
  MX_ICACHE_Init();
 800164a:	f000 f9b1 	bl	80019b0 <MX_ICACHE_Init>
  MX_ADC2_Init();
 800164e:	f000 f90f 	bl	8001870 <MX_ADC2_Init>
  MX_ADC1_Init();
 8001652:	f000 f86d 	bl	8001730 <MX_ADC1_Init>
  MX_TIM1_Init();
 8001656:	f000 fa0f 	bl	8001a78 <MX_TIM1_Init>
  MX_TIM3_Init();
 800165a:	f000 fa53 	bl	8001b04 <MX_TIM3_Init>
  MX_TIM4_Init();
 800165e:	f000 fa91 	bl	8001b84 <MX_TIM4_Init>
  MX_TIM7_Init();
 8001662:	f000 fb09 	bl	8001c78 <MX_TIM7_Init>
  MX_TIM6_Init();
 8001666:	f000 facd 	bl	8001c04 <MX_TIM6_Init>
  MX_SPI2_Init();
 800166a:	f000 f9a7 	bl	80019bc <MX_SPI2_Init>
  while (1)
  {
    /* USER CODE END WHILE */

    /* USER CODE BEGIN 3 */
	  Init();
 800166e:	f002 fb8b 	bl	8003d88 <Init>
 8001672:	e7fc      	b.n	800166e <main+0x56>

08001674 <SystemClock_Config>:
/**
  * @brief System Clock Configuration
  * @retval None
  */
void SystemClock_Config(void)
{
 8001674:	b580      	push	{r7, lr}
 8001676:	af00      	add	r7, sp, #0
  LL_FLASH_SetLatency(LL_FLASH_LATENCY_1);
 8001678:	2001      	movs	r0, #1
 800167a:	f7ff fe6b 	bl	8001354 <LL_FLASH_SetLatency>
  while(LL_FLASH_GetLatency()!= LL_FLASH_LATENCY_1)
 800167e:	bf00      	nop
 8001680:	f7ff fe7c 	bl	800137c <LL_FLASH_GetLatency>
 8001684:	4603      	mov	r3, r0
 8001686:	2b01      	cmp	r3, #1
 8001688:	d1fa      	bne.n	8001680 <SystemClock_Config+0xc>
  {
  }

  LL_PWR_SetRegulVoltageScaling(LL_PWR_REGU_VOLTAGE_SCALE3);
 800168a:	2000      	movs	r0, #0
 800168c:	f7ff fc12 	bl	8000eb4 <LL_PWR_SetRegulVoltageScaling>
  while (LL_PWR_IsActiveFlag_VOS() == 0)
 8001690:	bf00      	nop
 8001692:	f7ff fc33 	bl	8000efc <LL_PWR_IsActiveFlag_VOS>
 8001696:	4603      	mov	r3, r0
 8001698:	2b00      	cmp	r3, #0
 800169a:	d0fa      	beq.n	8001692 <SystemClock_Config+0x1e>
  {
  }
  LL_RCC_HSE_Enable();
 800169c:	f7ff fc40 	bl	8000f20 <LL_RCC_HSE_Enable>

   /* Wait till HSE is ready */
  while(LL_RCC_HSE_IsReady() != 1)
 80016a0:	bf00      	nop
 80016a2:	f7ff fc4d 	bl	8000f40 <LL_RCC_HSE_IsReady>
 80016a6:	4603      	mov	r3, r0
 80016a8:	2b01      	cmp	r3, #1
 80016aa:	d1fa      	bne.n	80016a2 <SystemClock_Config+0x2e>
  {
  }

  LL_RCC_PLL1_SetSource(LL_RCC_PLL1SOURCE_HSE);
 80016ac:	2003      	movs	r0, #3
 80016ae:	f7ff fd4d 	bl	800114c <LL_RCC_PLL1_SetSource>
  LL_RCC_PLL1_SetVCOInputRange(LL_RCC_PLLINPUTRANGE_4_8);
 80016b2:	2002      	movs	r0, #2
 80016b4:	f7ff fdce 	bl	8001254 <LL_RCC_PLL1_SetVCOInputRange>
  LL_RCC_PLL1_SetVCOOutputRange(LL_RCC_PLLVCORANGE_WIDE);
 80016b8:	2000      	movs	r0, #0
 80016ba:	f7ff fde1 	bl	8001280 <LL_RCC_PLL1_SetVCOOutputRange>
  LL_RCC_PLL1_SetM(4);
 80016be:	2004      	movs	r0, #4
 80016c0:	f7ff fdb2 	bl	8001228 <LL_RCC_PLL1_SetM>
  LL_RCC_PLL1_SetN(32);
 80016c4:	2020      	movs	r0, #32
 80016c6:	f7ff fd55 	bl	8001174 <LL_RCC_PLL1_SetN>
  LL_RCC_PLL1_SetP(2);
 80016ca:	2002      	movs	r0, #2
 80016cc:	f7ff fd6a 	bl	80011a4 <LL_RCC_PLL1_SetP>
  LL_RCC_PLL1_SetQ(2);
 80016d0:	2002      	movs	r0, #2
 80016d2:	f7ff fd7d 	bl	80011d0 <LL_RCC_PLL1_SetQ>
  LL_RCC_PLL1_SetR(2);
 80016d6:	2002      	movs	r0, #2
 80016d8:	f7ff fd90 	bl	80011fc <LL_RCC_PLL1_SetR>
  LL_RCC_PLL1Q_Enable();
 80016dc:	f7ff fd26 	bl	800112c <LL_RCC_PLL1Q_Enable>
  LL_RCC_PLL1_Enable();
 80016e0:	f7ff fd00 	bl	80010e4 <LL_RCC_PLL1_Enable>

   /* Wait till PLL is ready */
  while(LL_RCC_PLL1_IsReady() != 1)
 80016e4:	bf00      	nop
 80016e6:	f7ff fd0d 	bl	8001104 <LL_RCC_PLL1_IsReady>
 80016ea:	4603      	mov	r3, r0
 80016ec:	2b01      	cmp	r3, #1
 80016ee:	d1fa      	bne.n	80016e6 <SystemClock_Config+0x72>
  {
  }

  LL_RCC_SetSysClkSource(LL_RCC_SYS_CLKSOURCE_HSE);
 80016f0:	2002      	movs	r0, #2
 80016f2:	f7ff fc39 	bl	8000f68 <LL_RCC_SetSysClkSource>

   /* Wait till System clock is ready */
  while(LL_RCC_GetSysClkSource() != LL_RCC_SYS_CLKSOURCE_STATUS_HSE)
 80016f6:	bf00      	nop
 80016f8:	f7ff fc4a 	bl	8000f90 <LL_RCC_GetSysClkSource>
 80016fc:	4603      	mov	r3, r0
 80016fe:	2b10      	cmp	r3, #16
 8001700:	d1fa      	bne.n	80016f8 <SystemClock_Config+0x84>
  {
  }

  LL_RCC_SetAHBPrescaler(LL_RCC_SYSCLK_DIV_1);
 8001702:	2000      	movs	r0, #0
 8001704:	f7ff fc52 	bl	8000fac <LL_RCC_SetAHBPrescaler>
  LL_RCC_SetAPB1Prescaler(LL_RCC_APB1_DIV_1);
 8001708:	2000      	movs	r0, #0
 800170a:	f7ff fc63 	bl	8000fd4 <LL_RCC_SetAPB1Prescaler>
  LL_RCC_SetAPB2Prescaler(LL_RCC_APB2_DIV_2);
 800170e:	f44f 6080 	mov.w	r0, #1024	@ 0x400
 8001712:	f7ff fc73 	bl	8000ffc <LL_RCC_SetAPB2Prescaler>
  LL_RCC_SetAPB3Prescaler(LL_RCC_APB3_DIV_1);
 8001716:	2000      	movs	r0, #0
 8001718:	f7ff fc84 	bl	8001024 <LL_RCC_SetAPB3Prescaler>

  LL_Init1msTick(25000000);
 800171c:	4803      	ldr	r0, [pc, #12]	@ (800172c <SystemClock_Config+0xb8>)
 800171e:	f001 fc59 	bl	8002fd4 <LL_Init1msTick>

  LL_SetSystemCoreClock(25000000);
 8001722:	4802      	ldr	r0, [pc, #8]	@ (800172c <SystemClock_Config+0xb8>)
 8001724:	f001 fc64 	bl	8002ff0 <LL_SetSystemCoreClock>
}
 8001728:	bf00      	nop
 800172a:	bd80      	pop	{r7, pc}
 800172c:	017d7840 	.word	0x017d7840

08001730 <MX_ADC1_Init>:
  * @brief ADC1 Initialization Function
  * @param None
  * @retval None
  */
static void MX_ADC1_Init(void)
{
 8001730:	b580      	push	{r7, lr}
 8001732:	b094      	sub	sp, #80	@ 0x50
 8001734:	af00      	add	r7, sp, #0

  /* USER CODE BEGIN ADC1_Init 0 */

  /* USER CODE END ADC1_Init 0 */

  LL_ADC_CommonInitTypeDef ADC_CommonInitStruct = {0};
 8001736:	f107 033c 	add.w	r3, r7, #60	@ 0x3c
 800173a:	2200      	movs	r2, #0
 800173c:	601a      	str	r2, [r3, #0]
 800173e:	605a      	str	r2, [r3, #4]
 8001740:	609a      	str	r2, [r3, #8]
 8001742:	60da      	str	r2, [r3, #12]
  LL_ADC_InitTypeDef ADC_InitStruct = {0};
 8001744:	f107 0330 	add.w	r3, r7, #48	@ 0x30
 8001748:	2200      	movs	r2, #0
 800174a:	601a      	str	r2, [r3, #0]
 800174c:	605a      	str	r2, [r3, #4]
 800174e:	609a      	str	r2, [r3, #8]
  LL_ADC_REG_InitTypeDef ADC_REG_InitStruct = {0};
 8001750:	f107 0318 	add.w	r3, r7, #24
 8001754:	2200      	movs	r2, #0
 8001756:	601a      	str	r2, [r3, #0]
 8001758:	605a      	str	r2, [r3, #4]
 800175a:	609a      	str	r2, [r3, #8]
 800175c:	60da      	str	r2, [r3, #12]
 800175e:	611a      	str	r2, [r3, #16]
 8001760:	615a      	str	r2, [r3, #20]

  LL_GPIO_InitTypeDef GPIO_InitStruct = {0};
 8001762:	463b      	mov	r3, r7
 8001764:	2200      	movs	r2, #0
 8001766:	601a      	str	r2, [r3, #0]
 8001768:	605a      	str	r2, [r3, #4]
 800176a:	609a      	str	r2, [r3, #8]
 800176c:	60da      	str	r2, [r3, #12]
 800176e:	611a      	str	r2, [r3, #16]
 8001770:	615a      	str	r2, [r3, #20]

  LL_RCC_SetADCDACClockSource(LL_RCC_ADCDAC_CLKSOURCE_HCLK);
 8001772:	2000      	movs	r0, #0
 8001774:	f7ff fca0 	bl	80010b8 <LL_RCC_SetADCDACClockSource>

  /* Peripheral clock enable */
  LL_AHB2_GRP1_EnableClock(LL_AHB2_GRP1_PERIPH_ADC);
 8001778:	f44f 6080 	mov.w	r0, #1024	@ 0x400
 800177c:	f7ff fd96 	bl	80012ac <LL_AHB2_GRP1_EnableClock>

  LL_AHB2_GRP1_EnableClock(LL_AHB2_GRP1_PERIPH_GPIOA);
 8001780:	2001      	movs	r0, #1
 8001782:	f7ff fd93 	bl	80012ac <LL_AHB2_GRP1_EnableClock>
  /**ADC1 GPIO Configuration
  PA7   ------> ADC1_INP7
  */
  GPIO_InitStruct.Pin = ADC_Sensor1_Pin;
 8001786:	2380      	movs	r3, #128	@ 0x80
 8001788:	603b      	str	r3, [r7, #0]
  GPIO_InitStruct.Mode = LL_GPIO_MODE_ANALOG;
 800178a:	2303      	movs	r3, #3
 800178c:	607b      	str	r3, [r7, #4]
  GPIO_InitStruct.Pull = LL_GPIO_PULL_NO;
 800178e:	2300      	movs	r3, #0
 8001790:	613b      	str	r3, [r7, #16]
  LL_GPIO_Init(ADC_Sensor1_GPIO_Port, &GPIO_InitStruct);
 8001792:	463b      	mov	r3, r7
 8001794:	4619      	mov	r1, r3
 8001796:	482f      	ldr	r0, [pc, #188]	@ (8001854 <MX_ADC1_Init+0x124>)
 8001798:	f001 f9b1 	bl	8002afe <LL_GPIO_Init>

  /* USER CODE END ADC1_Init 1 */

  /** Configure the ADC multi-mode
  */
  ADC_CommonInitStruct.CommonClock = LL_ADC_CLOCK_ASYNC_DIV1;
 800179c:	2300      	movs	r3, #0
 800179e:	63fb      	str	r3, [r7, #60]	@ 0x3c
  ADC_CommonInitStruct.Multimode = LL_ADC_MULTI_INDEPENDENT;
 80017a0:	2300      	movs	r3, #0
 80017a2:	643b      	str	r3, [r7, #64]	@ 0x40
  LL_ADC_CommonInit(__LL_ADC_COMMON_INSTANCE(ADC1), &ADC_CommonInitStruct);
 80017a4:	f107 033c 	add.w	r3, r7, #60	@ 0x3c
 80017a8:	4619      	mov	r1, r3
 80017aa:	482b      	ldr	r0, [pc, #172]	@ (8001858 <MX_ADC1_Init+0x128>)
 80017ac:	f000 fd7c 	bl	80022a8 <LL_ADC_CommonInit>

  /** Common config
  */
  ADC_InitStruct.Resolution = LL_ADC_RESOLUTION_12B;
 80017b0:	2300      	movs	r3, #0
 80017b2:	633b      	str	r3, [r7, #48]	@ 0x30
  ADC_InitStruct.DataAlignment = LL_ADC_DATA_ALIGN_RIGHT;
 80017b4:	2300      	movs	r3, #0
 80017b6:	637b      	str	r3, [r7, #52]	@ 0x34
  ADC_InitStruct.LowPowerMode = LL_ADC_LP_MODE_NONE;
 80017b8:	2300      	movs	r3, #0
 80017ba:	63bb      	str	r3, [r7, #56]	@ 0x38
  LL_ADC_Init(ADC1, &ADC_InitStruct);
 80017bc:	f107 0330 	add.w	r3, r7, #48	@ 0x30
 80017c0:	4619      	mov	r1, r3
 80017c2:	4826      	ldr	r0, [pc, #152]	@ (800185c <MX_ADC1_Init+0x12c>)
 80017c4:	f000 fdb0 	bl	8002328 <LL_ADC_Init>
  ADC_REG_InitStruct.TriggerSource = LL_ADC_REG_TRIG_SOFTWARE;
 80017c8:	2300      	movs	r3, #0
 80017ca:	61bb      	str	r3, [r7, #24]
  ADC_REG_InitStruct.SequencerLength = LL_ADC_REG_SEQ_SCAN_DISABLE;
 80017cc:	2300      	movs	r3, #0
 80017ce:	61fb      	str	r3, [r7, #28]
  ADC_REG_InitStruct.SequencerDiscont = LL_ADC_REG_SEQ_DISCONT_DISABLE;
 80017d0:	2300      	movs	r3, #0
 80017d2:	623b      	str	r3, [r7, #32]
  ADC_REG_InitStruct.ContinuousMode = LL_ADC_REG_CONV_SINGLE;
 80017d4:	2300      	movs	r3, #0
 80017d6:	627b      	str	r3, [r7, #36]	@ 0x24
  ADC_REG_InitStruct.Overrun = LL_ADC_REG_OVR_DATA_PRESERVED;
 80017d8:	2300      	movs	r3, #0
 80017da:	62fb      	str	r3, [r7, #44]	@ 0x2c
  LL_ADC_REG_Init(ADC1, &ADC_REG_InitStruct);
 80017dc:	f107 0318 	add.w	r3, r7, #24
 80017e0:	4619      	mov	r1, r3
 80017e2:	481e      	ldr	r0, [pc, #120]	@ (800185c <MX_ADC1_Init+0x12c>)
 80017e4:	f000 fdc6 	bl	8002374 <LL_ADC_REG_Init>
  LL_ADC_REG_SetSamplingMode(ADC1, LL_ADC_REG_SAMPLING_MODE_NORMAL);
 80017e8:	2100      	movs	r1, #0
 80017ea:	481c      	ldr	r0, [pc, #112]	@ (800185c <MX_ADC1_Init+0x12c>)
 80017ec:	f7ff fa9d 	bl	8000d2a <LL_ADC_REG_SetSamplingMode>

  /* Disable ADC deep power down (enabled by default after reset state) */
  LL_ADC_DisableDeepPowerDown(ADC1);
 80017f0:	481a      	ldr	r0, [pc, #104]	@ (800185c <MX_ADC1_Init+0x12c>)
 80017f2:	f7ff fb29 	bl	8000e48 <LL_ADC_DisableDeepPowerDown>
  /* Enable ADC internal voltage regulator */
  LL_ADC_EnableInternalRegulator(ADC1);
 80017f6:	4819      	ldr	r0, [pc, #100]	@ (800185c <MX_ADC1_Init+0x12c>)
 80017f8:	f7ff fb38 	bl	8000e6c <LL_ADC_EnableInternalRegulator>
  /* Note: Variable divided by 2 to compensate partially */
  /* CPU processing cycles (depends on compilation optimization). */
  /* Note: If system core clock frequency is below 200kHz, wait time */
  /* is only a few CPU processing cycles. */
  uint32_t wait_loop_index;
  wait_loop_index = ((LL_ADC_DELAY_INTERNAL_REGUL_STAB_US * (SystemCoreClock / (100000 * 2))) / 10);
 80017fc:	4b18      	ldr	r3, [pc, #96]	@ (8001860 <MX_ADC1_Init+0x130>)
 80017fe:	681b      	ldr	r3, [r3, #0]
 8001800:	099b      	lsrs	r3, r3, #6
 8001802:	4a18      	ldr	r2, [pc, #96]	@ (8001864 <MX_ADC1_Init+0x134>)
 8001804:	fba2 2303 	umull	r2, r3, r2, r3
 8001808:	099a      	lsrs	r2, r3, #6
 800180a:	4613      	mov	r3, r2
 800180c:	009b      	lsls	r3, r3, #2
 800180e:	4413      	add	r3, r2
 8001810:	009b      	lsls	r3, r3, #2
 8001812:	461a      	mov	r2, r3
 8001814:	4b14      	ldr	r3, [pc, #80]	@ (8001868 <MX_ADC1_Init+0x138>)
 8001816:	fba3 2302 	umull	r2, r3, r3, r2
 800181a:	08db      	lsrs	r3, r3, #3
 800181c:	64fb      	str	r3, [r7, #76]	@ 0x4c
  while(wait_loop_index != 0)
 800181e:	e002      	b.n	8001826 <MX_ADC1_Init+0xf6>
  {
    wait_loop_index--;
 8001820:	6cfb      	ldr	r3, [r7, #76]	@ 0x4c
 8001822:	3b01      	subs	r3, #1
 8001824:	64fb      	str	r3, [r7, #76]	@ 0x4c
  while(wait_loop_index != 0)
 8001826:	6cfb      	ldr	r3, [r7, #76]	@ 0x4c
 8001828:	2b00      	cmp	r3, #0
 800182a:	d1f9      	bne.n	8001820 <MX_ADC1_Init+0xf0>
  }

  /** Configure Regular Channel
  */
  LL_ADC_REG_SetSequencerRanks(ADC1, LL_ADC_REG_RANK_1, LL_ADC_CHANNEL_7);
 800182c:	4a0f      	ldr	r2, [pc, #60]	@ (800186c <MX_ADC1_Init+0x13c>)
 800182e:	2106      	movs	r1, #6
 8001830:	480a      	ldr	r0, [pc, #40]	@ (800185c <MX_ADC1_Init+0x12c>)
 8001832:	f7ff fa8d 	bl	8000d50 <LL_ADC_REG_SetSequencerRanks>
  LL_ADC_SetChannelSamplingTime(ADC1, LL_ADC_CHANNEL_7, LL_ADC_SAMPLINGTIME_2CYCLES_5);
 8001836:	2200      	movs	r2, #0
 8001838:	490c      	ldr	r1, [pc, #48]	@ (800186c <MX_ADC1_Init+0x13c>)
 800183a:	4808      	ldr	r0, [pc, #32]	@ (800185c <MX_ADC1_Init+0x12c>)
 800183c:	f7ff fab4 	bl	8000da8 <LL_ADC_SetChannelSamplingTime>
  LL_ADC_SetChannelSingleDiff(ADC1, LL_ADC_CHANNEL_7, LL_ADC_SINGLE_ENDED);
 8001840:	227f      	movs	r2, #127	@ 0x7f
 8001842:	490a      	ldr	r1, [pc, #40]	@ (800186c <MX_ADC1_Init+0x13c>)
 8001844:	4805      	ldr	r0, [pc, #20]	@ (800185c <MX_ADC1_Init+0x12c>)
 8001846:	f7ff fadb 	bl	8000e00 <LL_ADC_SetChannelSingleDiff>
  /* USER CODE BEGIN ADC1_Init 2 */

  /* USER CODE END ADC1_Init 2 */

}
 800184a:	bf00      	nop
 800184c:	3750      	adds	r7, #80	@ 0x50
 800184e:	46bd      	mov	sp, r7
 8001850:	bd80      	pop	{r7, pc}
 8001852:	bf00      	nop
 8001854:	42020000 	.word	0x42020000
 8001858:	42028300 	.word	0x42028300
 800185c:	42028000 	.word	0x42028000
 8001860:	20000000 	.word	0x20000000
 8001864:	053e2d63 	.word	0x053e2d63
 8001868:	cccccccd 	.word	0xcccccccd
 800186c:	1d500080 	.word	0x1d500080

08001870 <MX_ADC2_Init>:
  * @brief ADC2 Initialization Function
  * @param None
  * @retval None
  */
static void MX_ADC2_Init(void)
{
 8001870:	b580      	push	{r7, lr}
 8001872:	b094      	sub	sp, #80	@ 0x50
 8001874:	af00      	add	r7, sp, #0

  /* USER CODE BEGIN ADC2_Init 0 */

  /* USER CODE END ADC2_Init 0 */

  LL_ADC_CommonInitTypeDef ADC_CommonInitStruct = {0};
 8001876:	f107 033c 	add.w	r3, r7, #60	@ 0x3c
 800187a:	2200      	movs	r2, #0
 800187c:	601a      	str	r2, [r3, #0]
 800187e:	605a      	str	r2, [r3, #4]
 8001880:	609a      	str	r2, [r3, #8]
 8001882:	60da      	str	r2, [r3, #12]
  LL_ADC_InitTypeDef ADC_InitStruct = {0};
 8001884:	f107 0330 	add.w	r3, r7, #48	@ 0x30
 8001888:	2200      	movs	r2, #0
 800188a:	601a      	str	r2, [r3, #0]
 800188c:	605a      	str	r2, [r3, #4]
 800188e:	609a      	str	r2, [r3, #8]
  LL_ADC_REG_InitTypeDef ADC_REG_InitStruct = {0};
 8001890:	f107 0318 	add.w	r3, r7, #24
 8001894:	2200      	movs	r2, #0
 8001896:	601a      	str	r2, [r3, #0]
 8001898:	605a      	str	r2, [r3, #4]
 800189a:	609a      	str	r2, [r3, #8]
 800189c:	60da      	str	r2, [r3, #12]
 800189e:	611a      	str	r2, [r3, #16]
 80018a0:	615a      	str	r2, [r3, #20]

  LL_GPIO_InitTypeDef GPIO_InitStruct = {0};
 80018a2:	463b      	mov	r3, r7
 80018a4:	2200      	movs	r2, #0
 80018a6:	601a      	str	r2, [r3, #0]
 80018a8:	605a      	str	r2, [r3, #4]
 80018aa:	609a      	str	r2, [r3, #8]
 80018ac:	60da      	str	r2, [r3, #12]
 80018ae:	611a      	str	r2, [r3, #16]
 80018b0:	615a      	str	r2, [r3, #20]

  LL_RCC_SetADCDACClockSource(LL_RCC_ADCDAC_CLKSOURCE_HCLK);
 80018b2:	2000      	movs	r0, #0
 80018b4:	f7ff fc00 	bl	80010b8 <LL_RCC_SetADCDACClockSource>

  /* Peripheral clock enable */
  LL_AHB2_GRP1_EnableClock(LL_AHB2_GRP1_PERIPH_ADC);
 80018b8:	f44f 6080 	mov.w	r0, #1024	@ 0x400
 80018bc:	f7ff fcf6 	bl	80012ac <LL_AHB2_GRP1_EnableClock>

  LL_AHB2_GRP1_EnableClock(LL_AHB2_GRP1_PERIPH_GPIOB);
 80018c0:	2002      	movs	r0, #2
 80018c2:	f7ff fcf3 	bl	80012ac <LL_AHB2_GRP1_EnableClock>
  /**ADC2 GPIO Configuration
  PB0   ------> ADC2_INP9
  */
  GPIO_InitStruct.Pin = ADC_Battery_Pin;
 80018c6:	2301      	movs	r3, #1
 80018c8:	603b      	str	r3, [r7, #0]
  GPIO_InitStruct.Mode = LL_GPIO_MODE_ANALOG;
 80018ca:	2303      	movs	r3, #3
 80018cc:	607b      	str	r3, [r7, #4]
  GPIO_InitStruct.Pull = LL_GPIO_PULL_NO;
 80018ce:	2300      	movs	r3, #0
 80018d0:	613b      	str	r3, [r7, #16]
  LL_GPIO_Init(ADC_Battery_GPIO_Port, &GPIO_InitStruct);
 80018d2:	463b      	mov	r3, r7
 80018d4:	4619      	mov	r1, r3
 80018d6:	482f      	ldr	r0, [pc, #188]	@ (8001994 <MX_ADC2_Init+0x124>)
 80018d8:	f001 f911 	bl	8002afe <LL_GPIO_Init>

  /* USER CODE END ADC2_Init 1 */

  /** Configure the ADC multi-mode
  */
  ADC_CommonInitStruct.CommonClock = LL_ADC_CLOCK_ASYNC_DIV1;
 80018dc:	2300      	movs	r3, #0
 80018de:	63fb      	str	r3, [r7, #60]	@ 0x3c
  ADC_CommonInitStruct.Multimode = LL_ADC_MULTI_INDEPENDENT;
 80018e0:	2300      	movs	r3, #0
 80018e2:	643b      	str	r3, [r7, #64]	@ 0x40
  LL_ADC_CommonInit(__LL_ADC_COMMON_INSTANCE(ADC2), &ADC_CommonInitStruct);
 80018e4:	f107 033c 	add.w	r3, r7, #60	@ 0x3c
 80018e8:	4619      	mov	r1, r3
 80018ea:	482b      	ldr	r0, [pc, #172]	@ (8001998 <MX_ADC2_Init+0x128>)
 80018ec:	f000 fcdc 	bl	80022a8 <LL_ADC_CommonInit>

  /** Common config
  */
  ADC_InitStruct.Resolution = LL_ADC_RESOLUTION_12B;
 80018f0:	2300      	movs	r3, #0
 80018f2:	633b      	str	r3, [r7, #48]	@ 0x30
  ADC_InitStruct.DataAlignment = LL_ADC_DATA_ALIGN_RIGHT;
 80018f4:	2300      	movs	r3, #0
 80018f6:	637b      	str	r3, [r7, #52]	@ 0x34
  ADC_InitStruct.LowPowerMode = LL_ADC_LP_MODE_NONE;
 80018f8:	2300      	movs	r3, #0
 80018fa:	63bb      	str	r3, [r7, #56]	@ 0x38
  LL_ADC_Init(ADC2, &ADC_InitStruct);
 80018fc:	f107 0330 	add.w	r3, r7, #48	@ 0x30
 8001900:	4619      	mov	r1, r3
 8001902:	4826      	ldr	r0, [pc, #152]	@ (800199c <MX_ADC2_Init+0x12c>)
 8001904:	f000 fd10 	bl	8002328 <LL_ADC_Init>
  ADC_REG_InitStruct.TriggerSource = LL_ADC_REG_TRIG_SOFTWARE;
 8001908:	2300      	movs	r3, #0
 800190a:	61bb      	str	r3, [r7, #24]
  ADC_REG_InitStruct.SequencerLength = LL_ADC_REG_SEQ_SCAN_DISABLE;
 800190c:	2300      	movs	r3, #0
 800190e:	61fb      	str	r3, [r7, #28]
  ADC_REG_InitStruct.SequencerDiscont = LL_ADC_REG_SEQ_DISCONT_DISABLE;
 8001910:	2300      	movs	r3, #0
 8001912:	623b      	str	r3, [r7, #32]
  ADC_REG_InitStruct.ContinuousMode = LL_ADC_REG_CONV_SINGLE;
 8001914:	2300      	movs	r3, #0
 8001916:	627b      	str	r3, [r7, #36]	@ 0x24
  ADC_REG_InitStruct.Overrun = LL_ADC_REG_OVR_DATA_PRESERVED;
 8001918:	2300      	movs	r3, #0
 800191a:	62fb      	str	r3, [r7, #44]	@ 0x2c
  LL_ADC_REG_Init(ADC2, &ADC_REG_InitStruct);
 800191c:	f107 0318 	add.w	r3, r7, #24
 8001920:	4619      	mov	r1, r3
 8001922:	481e      	ldr	r0, [pc, #120]	@ (800199c <MX_ADC2_Init+0x12c>)
 8001924:	f000 fd26 	bl	8002374 <LL_ADC_REG_Init>
  LL_ADC_REG_SetSamplingMode(ADC2, LL_ADC_REG_SAMPLING_MODE_NORMAL);
 8001928:	2100      	movs	r1, #0
 800192a:	481c      	ldr	r0, [pc, #112]	@ (800199c <MX_ADC2_Init+0x12c>)
 800192c:	f7ff f9fd 	bl	8000d2a <LL_ADC_REG_SetSamplingMode>

  /* Disable ADC deep power down (enabled by default after reset state) */
  LL_ADC_DisableDeepPowerDown(ADC2);
 8001930:	481a      	ldr	r0, [pc, #104]	@ (800199c <MX_ADC2_Init+0x12c>)
 8001932:	f7ff fa89 	bl	8000e48 <LL_ADC_DisableDeepPowerDown>
  /* Enable ADC internal voltage regulator */
  LL_ADC_EnableInternalRegulator(ADC2);
 8001936:	4819      	ldr	r0, [pc, #100]	@ (800199c <MX_ADC2_Init+0x12c>)
 8001938:	f7ff fa98 	bl	8000e6c <LL_ADC_EnableInternalRegulator>
  /* Note: Variable divided by 2 to compensate partially */
  /* CPU processing cycles (depends on compilation optimization). */
  /* Note: If system core clock frequency is below 200kHz, wait time */
  /* is only a few CPU processing cycles. */
  uint32_t wait_loop_index;
  wait_loop_index = ((LL_ADC_DELAY_INTERNAL_REGUL_STAB_US * (SystemCoreClock / (100000 * 2))) / 10);
 800193c:	4b18      	ldr	r3, [pc, #96]	@ (80019a0 <MX_ADC2_Init+0x130>)
 800193e:	681b      	ldr	r3, [r3, #0]
 8001940:	099b      	lsrs	r3, r3, #6
 8001942:	4a18      	ldr	r2, [pc, #96]	@ (80019a4 <MX_ADC2_Init+0x134>)
 8001944:	fba2 2303 	umull	r2, r3, r2, r3
 8001948:	099a      	lsrs	r2, r3, #6
 800194a:	4613      	mov	r3, r2
 800194c:	009b      	lsls	r3, r3, #2
 800194e:	4413      	add	r3, r2
 8001950:	009b      	lsls	r3, r3, #2
 8001952:	461a      	mov	r2, r3
 8001954:	4b14      	ldr	r3, [pc, #80]	@ (80019a8 <MX_ADC2_Init+0x138>)
 8001956:	fba3 2302 	umull	r2, r3, r3, r2
 800195a:	08db      	lsrs	r3, r3, #3
 800195c:	64fb      	str	r3, [r7, #76]	@ 0x4c
  while(wait_loop_index != 0)
 800195e:	e002      	b.n	8001966 <MX_ADC2_Init+0xf6>
  {
    wait_loop_index--;
 8001960:	6cfb      	ldr	r3, [r7, #76]	@ 0x4c
 8001962:	3b01      	subs	r3, #1
 8001964:	64fb      	str	r3, [r7, #76]	@ 0x4c
  while(wait_loop_index != 0)
 8001966:	6cfb      	ldr	r3, [r7, #76]	@ 0x4c
 8001968:	2b00      	cmp	r3, #0
 800196a:	d1f9      	bne.n	8001960 <MX_ADC2_Init+0xf0>
  }

  /** Configure Regular Channel
  */
  LL_ADC_REG_SetSequencerRanks(ADC2, LL_ADC_REG_RANK_1, LL_ADC_CHANNEL_9);
 800196c:	4a0f      	ldr	r2, [pc, #60]	@ (80019ac <MX_ADC2_Init+0x13c>)
 800196e:	2106      	movs	r1, #6
 8001970:	480a      	ldr	r0, [pc, #40]	@ (800199c <MX_ADC2_Init+0x12c>)
 8001972:	f7ff f9ed 	bl	8000d50 <LL_ADC_REG_SetSequencerRanks>
  LL_ADC_SetChannelSamplingTime(ADC2, LL_ADC_CHANNEL_9, LL_ADC_SAMPLINGTIME_2CYCLES_5);
 8001976:	2200      	movs	r2, #0
 8001978:	490c      	ldr	r1, [pc, #48]	@ (80019ac <MX_ADC2_Init+0x13c>)
 800197a:	4808      	ldr	r0, [pc, #32]	@ (800199c <MX_ADC2_Init+0x12c>)
 800197c:	f7ff fa14 	bl	8000da8 <LL_ADC_SetChannelSamplingTime>
  LL_ADC_SetChannelSingleDiff(ADC2, LL_ADC_CHANNEL_9, LL_ADC_SINGLE_ENDED);
 8001980:	227f      	movs	r2, #127	@ 0x7f
 8001982:	490a      	ldr	r1, [pc, #40]	@ (80019ac <MX_ADC2_Init+0x13c>)
 8001984:	4805      	ldr	r0, [pc, #20]	@ (800199c <MX_ADC2_Init+0x12c>)
 8001986:	f7ff fa3b 	bl	8000e00 <LL_ADC_SetChannelSingleDiff>
  /* USER CODE BEGIN ADC2_Init 2 */

  /* USER CODE END ADC2_Init 2 */

}
 800198a:	bf00      	nop
 800198c:	3750      	adds	r7, #80	@ 0x50
 800198e:	46bd      	mov	sp, r7
 8001990:	bd80      	pop	{r7, pc}
 8001992:	bf00      	nop
 8001994:	42020400 	.word	0x42020400
 8001998:	42028300 	.word	0x42028300
 800199c:	42028100 	.word	0x42028100
 80019a0:	20000000 	.word	0x20000000
 80019a4:	053e2d63 	.word	0x053e2d63
 80019a8:	cccccccd 	.word	0xcccccccd
 80019ac:	25b00200 	.word	0x25b00200

080019b0 <MX_ICACHE_Init>:
  * @brief ICACHE Initialization Function
  * @param None
  * @retval None
  */
static void MX_ICACHE_Init(void)
{
 80019b0:	b580      	push	{r7, lr}
 80019b2:	af00      	add	r7, sp, #0

  /* USER CODE END ICACHE_Init 1 */

  /** Enable instruction cache (default 2-ways set associative cache)
  */
  LL_ICACHE_Enable();
 80019b4:	f7ff fa6e 	bl	8000e94 <LL_ICACHE_Enable>
  /* USER CODE BEGIN ICACHE_Init 2 */

  /* USER CODE END ICACHE_Init 2 */

}
 80019b8:	bf00      	nop
 80019ba:	bd80      	pop	{r7, pc}

080019bc <MX_SPI2_Init>:
  * @brief SPI2 Initialization Function
  * @param None
  * @retval None
  */
static void MX_SPI2_Init(void)
{
 80019bc:	b580      	push	{r7, lr}
 80019be:	b090      	sub	sp, #64	@ 0x40
 80019c0:	af00      	add	r7, sp, #0

  /* USER CODE BEGIN SPI2_Init 0 */

  /* USER CODE END SPI2_Init 0 */

  LL_SPI_InitTypeDef SPI_InitStruct = {0};
 80019c2:	f107 0318 	add.w	r3, r7, #24
 80019c6:	2228      	movs	r2, #40	@ 0x28
 80019c8:	2100      	movs	r1, #0
 80019ca:	4618      	mov	r0, r3
 80019cc:	f002 ffae 	bl	800492c <memset>

  LL_GPIO_InitTypeDef GPIO_InitStruct = {0};
 80019d0:	463b      	mov	r3, r7
 80019d2:	2200      	movs	r2, #0
 80019d4:	601a      	str	r2, [r3, #0]
 80019d6:	605a      	str	r2, [r3, #4]
 80019d8:	609a      	str	r2, [r3, #8]
 80019da:	60da      	str	r2, [r3, #12]
 80019dc:	611a      	str	r2, [r3, #16]
 80019de:	615a      	str	r2, [r3, #20]

  LL_RCC_SetSPIClockSource(LL_RCC_SPI2_CLKSOURCE_PLL1Q);
 80019e0:	4822      	ldr	r0, [pc, #136]	@ (8001a6c <MX_SPI2_Init+0xb0>)
 80019e2:	f7ff fb5d 	bl	80010a0 <LL_RCC_SetSPIClockSource>

  /* Peripheral clock enable */
  LL_APB1_GRP1_EnableClock(LL_APB1_GRP1_PERIPH_SPI2);
 80019e6:	f44f 4080 	mov.w	r0, #16384	@ 0x4000
 80019ea:	f7ff fc7b 	bl	80012e4 <LL_APB1_GRP1_EnableClock>

  LL_AHB2_GRP1_EnableClock(LL_AHB2_GRP1_PERIPH_GPIOB);
 80019ee:	2002      	movs	r0, #2
 80019f0:	f7ff fc5c 	bl	80012ac <LL_AHB2_GRP1_EnableClock>
  /**SPI2 GPIO Configuration
  PB10   ------> SPI2_SCK
  PB15   ------> SPI2_MOSI
  */
  GPIO_InitStruct.Pin = OLED_SCL_Pin|OLED_SDA_Pin;
 80019f4:	f44f 4304 	mov.w	r3, #33792	@ 0x8400
 80019f8:	603b      	str	r3, [r7, #0]
  GPIO_InitStruct.Mode = LL_GPIO_MODE_ALTERNATE;
 80019fa:	2302      	movs	r3, #2
 80019fc:	607b      	str	r3, [r7, #4]
  GPIO_InitStruct.Speed = LL_GPIO_SPEED_FREQ_LOW;
 80019fe:	2300      	movs	r3, #0
 8001a00:	60bb      	str	r3, [r7, #8]
  GPIO_InitStruct.OutputType = LL_GPIO_OUTPUT_PUSHPULL;
 8001a02:	2300      	movs	r3, #0
 8001a04:	60fb      	str	r3, [r7, #12]
  GPIO_InitStruct.Pull = LL_GPIO_PULL_NO;
 8001a06:	2300      	movs	r3, #0
 8001a08:	613b      	str	r3, [r7, #16]
  GPIO_InitStruct.Alternate = LL_GPIO_AF_5;
 8001a0a:	2305      	movs	r3, #5
 8001a0c:	617b      	str	r3, [r7, #20]
  LL_GPIO_Init(GPIOB, &GPIO_InitStruct);
 8001a0e:	463b      	mov	r3, r7
 8001a10:	4619      	mov	r1, r3
 8001a12:	4817      	ldr	r0, [pc, #92]	@ (8001a70 <MX_SPI2_Init+0xb4>)
 8001a14:	f001 f873 	bl	8002afe <LL_GPIO_Init>

  /* USER CODE BEGIN SPI2_Init 1 */

  /* USER CODE END SPI2_Init 1 */
  /* SPI2 parameter configuration*/
  SPI_InitStruct.TransferDirection = LL_SPI_HALF_DUPLEX_TX;
 8001a18:	f44f 23c1 	mov.w	r3, #395264	@ 0x60800
 8001a1c:	61bb      	str	r3, [r7, #24]
  SPI_InitStruct.Mode = LL_SPI_MODE_MASTER;
 8001a1e:	f44f 0380 	mov.w	r3, #4194304	@ 0x400000
 8001a22:	61fb      	str	r3, [r7, #28]
  SPI_InitStruct.DataWidth = LL_SPI_DATAWIDTH_8BIT;
 8001a24:	2307      	movs	r3, #7
 8001a26:	623b      	str	r3, [r7, #32]
  SPI_InitStruct.ClockPolarity = LL_SPI_POLARITY_LOW;
 8001a28:	2300      	movs	r3, #0
 8001a2a:	627b      	str	r3, [r7, #36]	@ 0x24
  SPI_InitStruct.ClockPhase = LL_SPI_PHASE_1EDGE;
 8001a2c:	2300      	movs	r3, #0
 8001a2e:	62bb      	str	r3, [r7, #40]	@ 0x28
  SPI_InitStruct.NSS = LL_SPI_NSS_SOFT;
 8001a30:	f04f 6380 	mov.w	r3, #67108864	@ 0x4000000
 8001a34:	62fb      	str	r3, [r7, #44]	@ 0x2c
  SPI_InitStruct.BaudRate = LL_SPI_BAUDRATEPRESCALER_DIV8;
 8001a36:	f04f 5300 	mov.w	r3, #536870912	@ 0x20000000
 8001a3a:	633b      	str	r3, [r7, #48]	@ 0x30
  SPI_InitStruct.BitOrder = LL_SPI_MSB_FIRST;
 8001a3c:	2300      	movs	r3, #0
 8001a3e:	637b      	str	r3, [r7, #52]	@ 0x34
  SPI_InitStruct.CRCCalculation = LL_SPI_CRCCALCULATION_DISABLE;
 8001a40:	2300      	movs	r3, #0
 8001a42:	63bb      	str	r3, [r7, #56]	@ 0x38
  SPI_InitStruct.CRCPoly = 0x7;
 8001a44:	2307      	movs	r3, #7
 8001a46:	63fb      	str	r3, [r7, #60]	@ 0x3c
  LL_SPI_Init(SPI2, &SPI_InitStruct);
 8001a48:	f107 0318 	add.w	r3, r7, #24
 8001a4c:	4619      	mov	r1, r3
 8001a4e:	4809      	ldr	r0, [pc, #36]	@ (8001a74 <MX_SPI2_Init+0xb8>)
 8001a50:	f001 f916 	bl	8002c80 <LL_SPI_Init>
  LL_SPI_SetStandard(SPI2, LL_SPI_PROTOCOL_MOTOROLA);
 8001a54:	2100      	movs	r1, #0
 8001a56:	4807      	ldr	r0, [pc, #28]	@ (8001a74 <MX_SPI2_Init+0xb8>)
 8001a58:	f7ff fcc6 	bl	80013e8 <LL_SPI_SetStandard>
  LL_SPI_EnableNSSPulseMgt(SPI2);
 8001a5c:	4805      	ldr	r0, [pc, #20]	@ (8001a74 <MX_SPI2_Init+0xb8>)
 8001a5e:	f7ff fcd6 	bl	800140e <LL_SPI_EnableNSSPulseMgt>
  /* USER CODE BEGIN SPI2_Init 2 */

  /* USER CODE END SPI2_Init 2 */

}
 8001a62:	bf00      	nop
 8001a64:	3740      	adds	r7, #64	@ 0x40
 8001a66:	46bd      	mov	sp, r7
 8001a68:	bd80      	pop	{r7, pc}
 8001a6a:	bf00      	nop
 8001a6c:	07000308 	.word	0x07000308
 8001a70:	42020400 	.word	0x42020400
 8001a74:	40003800 	.word	0x40003800

08001a78 <MX_TIM1_Init>:
  * @brief TIM1 Initialization Function
  * @param None
  * @retval None
  */
static void MX_TIM1_Init(void)
{
 8001a78:	b580      	push	{r7, lr}
 8001a7a:	b086      	sub	sp, #24
 8001a7c:	af00      	add	r7, sp, #0

  /* USER CODE BEGIN TIM1_Init 0 */

  /* USER CODE END TIM1_Init 0 */

  LL_TIM_InitTypeDef TIM_InitStruct = {0};
 8001a7e:	1d3b      	adds	r3, r7, #4
 8001a80:	2200      	movs	r2, #0
 8001a82:	601a      	str	r2, [r3, #0]
 8001a84:	605a      	str	r2, [r3, #4]
 8001a86:	609a      	str	r2, [r3, #8]
 8001a88:	60da      	str	r2, [r3, #12]
 8001a8a:	611a      	str	r2, [r3, #16]

  /* Peripheral clock enable */
  LL_APB2_GRP1_EnableClock(LL_APB2_GRP1_PERIPH_TIM1);
 8001a8c:	f44f 6000 	mov.w	r0, #2048	@ 0x800
 8001a90:	f7ff fc44 	bl	800131c <LL_APB2_GRP1_EnableClock>

  /* TIM1 interrupt Init */
  NVIC_SetPriority(TIM1_BRK_IRQn, NVIC_EncodePriority(NVIC_GetPriorityGrouping(),0, 0));
 8001a94:	f7ff f8c0 	bl	8000c18 <__NVIC_GetPriorityGrouping>
 8001a98:	4603      	mov	r3, r0
 8001a9a:	2200      	movs	r2, #0
 8001a9c:	2100      	movs	r1, #0
 8001a9e:	4618      	mov	r0, r3
 8001aa0:	f7ff f910 	bl	8000cc4 <NVIC_EncodePriority>
 8001aa4:	4603      	mov	r3, r0
 8001aa6:	4619      	mov	r1, r3
 8001aa8:	2029      	movs	r0, #41	@ 0x29
 8001aaa:	f7ff f8e1 	bl	8000c70 <__NVIC_SetPriority>
  NVIC_EnableIRQ(TIM1_BRK_IRQn);
 8001aae:	2029      	movs	r0, #41	@ 0x29
 8001ab0:	f7ff f8c0 	bl	8000c34 <__NVIC_EnableIRQ>

  /* USER CODE BEGIN TIM1_Init 1 */

  /* USER CODE END TIM1_Init 1 */
  TIM_InitStruct.Prescaler = 24;
 8001ab4:	2318      	movs	r3, #24
 8001ab6:	80bb      	strh	r3, [r7, #4]
  TIM_InitStruct.CounterMode = LL_TIM_COUNTERMODE_UP;
 8001ab8:	2300      	movs	r3, #0
 8001aba:	60bb      	str	r3, [r7, #8]
  TIM_InitStruct.Autoreload = 65535;
 8001abc:	f64f 73ff 	movw	r3, #65535	@ 0xffff
 8001ac0:	60fb      	str	r3, [r7, #12]
  TIM_InitStruct.ClockDivision = LL_TIM_CLOCKDIVISION_DIV1;
 8001ac2:	2300      	movs	r3, #0
 8001ac4:	613b      	str	r3, [r7, #16]
  TIM_InitStruct.RepetitionCounter = 0;
 8001ac6:	2300      	movs	r3, #0
 8001ac8:	617b      	str	r3, [r7, #20]
  LL_TIM_Init(TIM1, &TIM_InitStruct);
 8001aca:	1d3b      	adds	r3, r7, #4
 8001acc:	4619      	mov	r1, r3
 8001ace:	480c      	ldr	r0, [pc, #48]	@ (8001b00 <MX_TIM1_Init+0x88>)
 8001ad0:	f001 f98e 	bl	8002df0 <LL_TIM_Init>
  LL_TIM_DisableARRPreload(TIM1);
 8001ad4:	480a      	ldr	r0, [pc, #40]	@ (8001b00 <MX_TIM1_Init+0x88>)
 8001ad6:	f7ff fcba 	bl	800144e <LL_TIM_DisableARRPreload>
  LL_TIM_SetClockSource(TIM1, LL_TIM_CLOCKSOURCE_INTERNAL);
 8001ada:	2100      	movs	r1, #0
 8001adc:	4808      	ldr	r0, [pc, #32]	@ (8001b00 <MX_TIM1_Init+0x88>)
 8001ade:	f7ff fcc6 	bl	800146e <LL_TIM_SetClockSource>
  LL_TIM_SetTriggerOutput(TIM1, LL_TIM_TRGO_RESET);
 8001ae2:	2100      	movs	r1, #0
 8001ae4:	4806      	ldr	r0, [pc, #24]	@ (8001b00 <MX_TIM1_Init+0x88>)
 8001ae6:	f7ff fcd7 	bl	8001498 <LL_TIM_SetTriggerOutput>
  LL_TIM_SetTriggerOutput2(TIM1, LL_TIM_TRGO2_RESET);
 8001aea:	2100      	movs	r1, #0
 8001aec:	4804      	ldr	r0, [pc, #16]	@ (8001b00 <MX_TIM1_Init+0x88>)
 8001aee:	f7ff fce8 	bl	80014c2 <LL_TIM_SetTriggerOutput2>
  LL_TIM_DisableMasterSlaveMode(TIM1);
 8001af2:	4803      	ldr	r0, [pc, #12]	@ (8001b00 <MX_TIM1_Init+0x88>)
 8001af4:	f7ff fcf8 	bl	80014e8 <LL_TIM_DisableMasterSlaveMode>
  /* USER CODE BEGIN TIM1_Init 2 */

  /* USER CODE END TIM1_Init 2 */

}
 8001af8:	bf00      	nop
 8001afa:	3718      	adds	r7, #24
 8001afc:	46bd      	mov	sp, r7
 8001afe:	bd80      	pop	{r7, pc}
 8001b00:	40012c00 	.word	0x40012c00

08001b04 <MX_TIM3_Init>:
  * @brief TIM3 Initialization Function
  * @param None
  * @retval None
  */
static void MX_TIM3_Init(void)
{
 8001b04:	b580      	push	{r7, lr}
 8001b06:	b086      	sub	sp, #24
 8001b08:	af00      	add	r7, sp, #0

  /* USER CODE BEGIN TIM3_Init 0 */

  /* USER CODE END TIM3_Init 0 */

  LL_TIM_InitTypeDef TIM_InitStruct = {0};
 8001b0a:	1d3b      	adds	r3, r7, #4
 8001b0c:	2200      	movs	r2, #0
 8001b0e:	601a      	str	r2, [r3, #0]
 8001b10:	605a      	str	r2, [r3, #4]
 8001b12:	609a      	str	r2, [r3, #8]
 8001b14:	60da      	str	r2, [r3, #12]
 8001b16:	611a      	str	r2, [r3, #16]

  /* Peripheral clock enable */
  LL_APB1_GRP1_EnableClock(LL_APB1_GRP1_PERIPH_TIM3);
 8001b18:	2002      	movs	r0, #2
 8001b1a:	f7ff fbe3 	bl	80012e4 <LL_APB1_GRP1_EnableClock>

  /* TIM3 interrupt Init */
  NVIC_SetPriority(TIM3_IRQn, NVIC_EncodePriority(NVIC_GetPriorityGrouping(),0, 0));
 8001b1e:	f7ff f87b 	bl	8000c18 <__NVIC_GetPriorityGrouping>
 8001b22:	4603      	mov	r3, r0
 8001b24:	2200      	movs	r2, #0
 8001b26:	2100      	movs	r1, #0
 8001b28:	4618      	mov	r0, r3
 8001b2a:	f7ff f8cb 	bl	8000cc4 <NVIC_EncodePriority>
 8001b2e:	4603      	mov	r3, r0
 8001b30:	4619      	mov	r1, r3
 8001b32:	202e      	movs	r0, #46	@ 0x2e
 8001b34:	f7ff f89c 	bl	8000c70 <__NVIC_SetPriority>
  NVIC_EnableIRQ(TIM3_IRQn);
 8001b38:	202e      	movs	r0, #46	@ 0x2e
 8001b3a:	f7ff f87b 	bl	8000c34 <__NVIC_EnableIRQ>

  /* USER CODE BEGIN TIM3_Init 1 */

  /* USER CODE END TIM3_Init 1 */
  TIM_InitStruct.Prescaler = 249;
 8001b3e:	23f9      	movs	r3, #249	@ 0xf9
 8001b40:	80bb      	strh	r3, [r7, #4]
  TIM_InitStruct.CounterMode = LL_TIM_COUNTERMODE_UP;
 8001b42:	2300      	movs	r3, #0
 8001b44:	60bb      	str	r3, [r7, #8]
  TIM_InitStruct.Autoreload = 65535;
 8001b46:	f64f 73ff 	movw	r3, #65535	@ 0xffff
 8001b4a:	60fb      	str	r3, [r7, #12]
  TIM_InitStruct.ClockDivision = LL_TIM_CLOCKDIVISION_DIV1;
 8001b4c:	2300      	movs	r3, #0
 8001b4e:	613b      	str	r3, [r7, #16]
  LL_TIM_Init(TIM3, &TIM_InitStruct);
 8001b50:	1d3b      	adds	r3, r7, #4
 8001b52:	4619      	mov	r1, r3
 8001b54:	480a      	ldr	r0, [pc, #40]	@ (8001b80 <MX_TIM3_Init+0x7c>)
 8001b56:	f001 f94b 	bl	8002df0 <LL_TIM_Init>
  LL_TIM_EnableARRPreload(TIM3);
 8001b5a:	4809      	ldr	r0, [pc, #36]	@ (8001b80 <MX_TIM3_Init+0x7c>)
 8001b5c:	f7ff fc67 	bl	800142e <LL_TIM_EnableARRPreload>
  LL_TIM_SetClockSource(TIM3, LL_TIM_CLOCKSOURCE_INTERNAL);
 8001b60:	2100      	movs	r1, #0
 8001b62:	4807      	ldr	r0, [pc, #28]	@ (8001b80 <MX_TIM3_Init+0x7c>)
 8001b64:	f7ff fc83 	bl	800146e <LL_TIM_SetClockSource>
  LL_TIM_SetTriggerOutput(TIM3, LL_TIM_TRGO_RESET);
 8001b68:	2100      	movs	r1, #0
 8001b6a:	4805      	ldr	r0, [pc, #20]	@ (8001b80 <MX_TIM3_Init+0x7c>)
 8001b6c:	f7ff fc94 	bl	8001498 <LL_TIM_SetTriggerOutput>
  LL_TIM_DisableMasterSlaveMode(TIM3);
 8001b70:	4803      	ldr	r0, [pc, #12]	@ (8001b80 <MX_TIM3_Init+0x7c>)
 8001b72:	f7ff fcb9 	bl	80014e8 <LL_TIM_DisableMasterSlaveMode>
  /* USER CODE BEGIN TIM3_Init 2 */

  /* USER CODE END TIM3_Init 2 */

}
 8001b76:	bf00      	nop
 8001b78:	3718      	adds	r7, #24
 8001b7a:	46bd      	mov	sp, r7
 8001b7c:	bd80      	pop	{r7, pc}
 8001b7e:	bf00      	nop
 8001b80:	40000400 	.word	0x40000400

08001b84 <MX_TIM4_Init>:
  * @brief TIM4 Initialization Function
  * @param None
  * @retval None
  */
static void MX_TIM4_Init(void)
{
 8001b84:	b580      	push	{r7, lr}
 8001b86:	b086      	sub	sp, #24
 8001b88:	af00      	add	r7, sp, #0

  /* USER CODE BEGIN TIM4_Init 0 */

  /* USER CODE END TIM4_Init 0 */

  LL_TIM_InitTypeDef TIM_InitStruct = {0};
 8001b8a:	1d3b      	adds	r3, r7, #4
 8001b8c:	2200      	movs	r2, #0
 8001b8e:	601a      	str	r2, [r3, #0]
 8001b90:	605a      	str	r2, [r3, #4]
 8001b92:	609a      	str	r2, [r3, #8]
 8001b94:	60da      	str	r2, [r3, #12]
 8001b96:	611a      	str	r2, [r3, #16]

  /* Peripheral clock enable */
  LL_APB1_GRP1_EnableClock(LL_APB1_GRP1_PERIPH_TIM4);
 8001b98:	2004      	movs	r0, #4
 8001b9a:	f7ff fba3 	bl	80012e4 <LL_APB1_GRP1_EnableClock>

  /* TIM4 interrupt Init */
  NVIC_SetPriority(TIM4_IRQn, NVIC_EncodePriority(NVIC_GetPriorityGrouping(),0, 0));
 8001b9e:	f7ff f83b 	bl	8000c18 <__NVIC_GetPriorityGrouping>
 8001ba2:	4603      	mov	r3, r0
 8001ba4:	2200      	movs	r2, #0
 8001ba6:	2100      	movs	r1, #0
 8001ba8:	4618      	mov	r0, r3
 8001baa:	f7ff f88b 	bl	8000cc4 <NVIC_EncodePriority>
 8001bae:	4603      	mov	r3, r0
 8001bb0:	4619      	mov	r1, r3
 8001bb2:	202f      	movs	r0, #47	@ 0x2f
 8001bb4:	f7ff f85c 	bl	8000c70 <__NVIC_SetPriority>
  NVIC_EnableIRQ(TIM4_IRQn);
 8001bb8:	202f      	movs	r0, #47	@ 0x2f
 8001bba:	f7ff f83b 	bl	8000c34 <__NVIC_EnableIRQ>

  /* USER CODE BEGIN TIM4_Init 1 */

  /* USER CODE END TIM4_Init 1 */
  TIM_InitStruct.Prescaler = 249;
 8001bbe:	23f9      	movs	r3, #249	@ 0xf9
 8001bc0:	80bb      	strh	r3, [r7, #4]
  TIM_InitStruct.CounterMode = LL_TIM_COUNTERMODE_UP;
 8001bc2:	2300      	movs	r3, #0
 8001bc4:	60bb      	str	r3, [r7, #8]
  TIM_InitStruct.Autoreload = 65535;
 8001bc6:	f64f 73ff 	movw	r3, #65535	@ 0xffff
 8001bca:	60fb      	str	r3, [r7, #12]
  TIM_InitStruct.ClockDivision = LL_TIM_CLOCKDIVISION_DIV1;
 8001bcc:	2300      	movs	r3, #0
 8001bce:	613b      	str	r3, [r7, #16]
  LL_TIM_Init(TIM4, &TIM_InitStruct);
 8001bd0:	1d3b      	adds	r3, r7, #4
 8001bd2:	4619      	mov	r1, r3
 8001bd4:	480a      	ldr	r0, [pc, #40]	@ (8001c00 <MX_TIM4_Init+0x7c>)
 8001bd6:	f001 f90b 	bl	8002df0 <LL_TIM_Init>
  LL_TIM_EnableARRPreload(TIM4);
 8001bda:	4809      	ldr	r0, [pc, #36]	@ (8001c00 <MX_TIM4_Init+0x7c>)
 8001bdc:	f7ff fc27 	bl	800142e <LL_TIM_EnableARRPreload>
  LL_TIM_SetClockSource(TIM4, LL_TIM_CLOCKSOURCE_INTERNAL);
 8001be0:	2100      	movs	r1, #0
 8001be2:	4807      	ldr	r0, [pc, #28]	@ (8001c00 <MX_TIM4_Init+0x7c>)
 8001be4:	f7ff fc43 	bl	800146e <LL_TIM_SetClockSource>
  LL_TIM_SetTriggerOutput(TIM4, LL_TIM_TRGO_RESET);
 8001be8:	2100      	movs	r1, #0
 8001bea:	4805      	ldr	r0, [pc, #20]	@ (8001c00 <MX_TIM4_Init+0x7c>)
 8001bec:	f7ff fc54 	bl	8001498 <LL_TIM_SetTriggerOutput>
  LL_TIM_DisableMasterSlaveMode(TIM4);
 8001bf0:	4803      	ldr	r0, [pc, #12]	@ (8001c00 <MX_TIM4_Init+0x7c>)
 8001bf2:	f7ff fc79 	bl	80014e8 <LL_TIM_DisableMasterSlaveMode>
  /* USER CODE BEGIN TIM4_Init 2 */

  /* USER CODE END TIM4_Init 2 */

}
 8001bf6:	bf00      	nop
 8001bf8:	3718      	adds	r7, #24
 8001bfa:	46bd      	mov	sp, r7
 8001bfc:	bd80      	pop	{r7, pc}
 8001bfe:	bf00      	nop
 8001c00:	40000800 	.word	0x40000800

08001c04 <MX_TIM6_Init>:
  * @brief TIM6 Initialization Function
  * @param None
  * @retval None
  */
static void MX_TIM6_Init(void)
{
 8001c04:	b580      	push	{r7, lr}
 8001c06:	b086      	sub	sp, #24
 8001c08:	af00      	add	r7, sp, #0

  /* USER CODE BEGIN TIM6_Init 0 */

  /* USER CODE END TIM6_Init 0 */

  LL_TIM_InitTypeDef TIM_InitStruct = {0};
 8001c0a:	1d3b      	adds	r3, r7, #4
 8001c0c:	2200      	movs	r2, #0
 8001c0e:	601a      	str	r2, [r3, #0]
 8001c10:	605a      	str	r2, [r3, #4]
 8001c12:	609a      	str	r2, [r3, #8]
 8001c14:	60da      	str	r2, [r3, #12]
 8001c16:	611a      	str	r2, [r3, #16]

  /* Peripheral clock enable */
  LL_APB1_GRP1_EnableClock(LL_APB1_GRP1_PERIPH_TIM6);
 8001c18:	2010      	movs	r0, #16
 8001c1a:	f7ff fb63 	bl	80012e4 <LL_APB1_GRP1_EnableClock>

  /* TIM6 interrupt Init */
  NVIC_SetPriority(TIM6_IRQn, NVIC_EncodePriority(NVIC_GetPriorityGrouping(),0, 0));
 8001c1e:	f7fe fffb 	bl	8000c18 <__NVIC_GetPriorityGrouping>
 8001c22:	4603      	mov	r3, r0
 8001c24:	2200      	movs	r2, #0
 8001c26:	2100      	movs	r1, #0
 8001c28:	4618      	mov	r0, r3
 8001c2a:	f7ff f84b 	bl	8000cc4 <NVIC_EncodePriority>
 8001c2e:	4603      	mov	r3, r0
 8001c30:	4619      	mov	r1, r3
 8001c32:	2031      	movs	r0, #49	@ 0x31
 8001c34:	f7ff f81c 	bl	8000c70 <__NVIC_SetPriority>
  NVIC_EnableIRQ(TIM6_IRQn);
 8001c38:	2031      	movs	r0, #49	@ 0x31
 8001c3a:	f7fe fffb 	bl	8000c34 <__NVIC_EnableIRQ>

  /* USER CODE BEGIN TIM6_Init 1 */

  /* USER CODE END TIM6_Init 1 */
  TIM_InitStruct.Prescaler = 0;
 8001c3e:	2300      	movs	r3, #0
 8001c40:	80bb      	strh	r3, [r7, #4]
  TIM_InitStruct.CounterMode = LL_TIM_COUNTERMODE_UP;
 8001c42:	2300      	movs	r3, #0
 8001c44:	60bb      	str	r3, [r7, #8]
  TIM_InitStruct.Autoreload = 9999;
 8001c46:	f242 730f 	movw	r3, #9999	@ 0x270f
 8001c4a:	60fb      	str	r3, [r7, #12]
  LL_TIM_Init(TIM6, &TIM_InitStruct);
 8001c4c:	1d3b      	adds	r3, r7, #4
 8001c4e:	4619      	mov	r1, r3
 8001c50:	4808      	ldr	r0, [pc, #32]	@ (8001c74 <MX_TIM6_Init+0x70>)
 8001c52:	f001 f8cd 	bl	8002df0 <LL_TIM_Init>
  LL_TIM_DisableARRPreload(TIM6);
 8001c56:	4807      	ldr	r0, [pc, #28]	@ (8001c74 <MX_TIM6_Init+0x70>)
 8001c58:	f7ff fbf9 	bl	800144e <LL_TIM_DisableARRPreload>
  LL_TIM_SetTriggerOutput(TIM6, LL_TIM_TRGO_RESET);
 8001c5c:	2100      	movs	r1, #0
 8001c5e:	4805      	ldr	r0, [pc, #20]	@ (8001c74 <MX_TIM6_Init+0x70>)
 8001c60:	f7ff fc1a 	bl	8001498 <LL_TIM_SetTriggerOutput>
  LL_TIM_DisableMasterSlaveMode(TIM6);
 8001c64:	4803      	ldr	r0, [pc, #12]	@ (8001c74 <MX_TIM6_Init+0x70>)
 8001c66:	f7ff fc3f 	bl	80014e8 <LL_TIM_DisableMasterSlaveMode>
  /* USER CODE BEGIN TIM6_Init 2 */

  /* USER CODE END TIM6_Init 2 */

}
 8001c6a:	bf00      	nop
 8001c6c:	3718      	adds	r7, #24
 8001c6e:	46bd      	mov	sp, r7
 8001c70:	bd80      	pop	{r7, pc}
 8001c72:	bf00      	nop
 8001c74:	40001000 	.word	0x40001000

08001c78 <MX_TIM7_Init>:
  * @brief TIM7 Initialization Function
  * @param None
  * @retval None
  */
static void MX_TIM7_Init(void)
{
 8001c78:	b580      	push	{r7, lr}
 8001c7a:	b086      	sub	sp, #24
 8001c7c:	af00      	add	r7, sp, #0

  /* USER CODE BEGIN TIM7_Init 0 */

  /* USER CODE END TIM7_Init 0 */

  LL_TIM_InitTypeDef TIM_InitStruct = {0};
 8001c7e:	1d3b      	adds	r3, r7, #4
 8001c80:	2200      	movs	r2, #0
 8001c82:	601a      	str	r2, [r3, #0]
 8001c84:	605a      	str	r2, [r3, #4]
 8001c86:	609a      	str	r2, [r3, #8]
 8001c88:	60da      	str	r2, [r3, #12]
 8001c8a:	611a      	str	r2, [r3, #16]

  /* Peripheral clock enable */
  LL_APB1_GRP1_EnableClock(LL_APB1_GRP1_PERIPH_TIM7);
 8001c8c:	2020      	movs	r0, #32
 8001c8e:	f7ff fb29 	bl	80012e4 <LL_APB1_GRP1_EnableClock>

  /* TIM7 interrupt Init */
  NVIC_SetPriority(TIM7_IRQn, NVIC_EncodePriority(NVIC_GetPriorityGrouping(),0, 0));
 8001c92:	f7fe ffc1 	bl	8000c18 <__NVIC_GetPriorityGrouping>
 8001c96:	4603      	mov	r3, r0
 8001c98:	2200      	movs	r2, #0
 8001c9a:	2100      	movs	r1, #0
 8001c9c:	4618      	mov	r0, r3
 8001c9e:	f7ff f811 	bl	8000cc4 <NVIC_EncodePriority>
 8001ca2:	4603      	mov	r3, r0
 8001ca4:	4619      	mov	r1, r3
 8001ca6:	2032      	movs	r0, #50	@ 0x32
 8001ca8:	f7fe ffe2 	bl	8000c70 <__NVIC_SetPriority>
  NVIC_EnableIRQ(TIM7_IRQn);
 8001cac:	2032      	movs	r0, #50	@ 0x32
 8001cae:	f7fe ffc1 	bl	8000c34 <__NVIC_EnableIRQ>

  /* USER CODE BEGIN TIM7_Init 1 */

  /* USER CODE END TIM7_Init 1 */
  TIM_InitStruct.Prescaler = 249;
 8001cb2:	23f9      	movs	r3, #249	@ 0xf9
 8001cb4:	80bb      	strh	r3, [r7, #4]
  TIM_InitStruct.CounterMode = LL_TIM_COUNTERMODE_UP;
 8001cb6:	2300      	movs	r3, #0
 8001cb8:	60bb      	str	r3, [r7, #8]
  TIM_InitStruct.Autoreload = 499;
 8001cba:	f240 13f3 	movw	r3, #499	@ 0x1f3
 8001cbe:	60fb      	str	r3, [r7, #12]
  LL_TIM_Init(TIM7, &TIM_InitStruct);
 8001cc0:	1d3b      	adds	r3, r7, #4
 8001cc2:	4619      	mov	r1, r3
 8001cc4:	4808      	ldr	r0, [pc, #32]	@ (8001ce8 <MX_TIM7_Init+0x70>)
 8001cc6:	f001 f893 	bl	8002df0 <LL_TIM_Init>
  LL_TIM_EnableARRPreload(TIM7);
 8001cca:	4807      	ldr	r0, [pc, #28]	@ (8001ce8 <MX_TIM7_Init+0x70>)
 8001ccc:	f7ff fbaf 	bl	800142e <LL_TIM_EnableARRPreload>
  LL_TIM_SetTriggerOutput(TIM7, LL_TIM_TRGO_RESET);
 8001cd0:	2100      	movs	r1, #0
 8001cd2:	4805      	ldr	r0, [pc, #20]	@ (8001ce8 <MX_TIM7_Init+0x70>)
 8001cd4:	f7ff fbe0 	bl	8001498 <LL_TIM_SetTriggerOutput>
  LL_TIM_DisableMasterSlaveMode(TIM7);
 8001cd8:	4803      	ldr	r0, [pc, #12]	@ (8001ce8 <MX_TIM7_Init+0x70>)
 8001cda:	f7ff fc05 	bl	80014e8 <LL_TIM_DisableMasterSlaveMode>
  /* USER CODE BEGIN TIM7_Init 2 */

  /* USER CODE END TIM7_Init 2 */

}
 8001cde:	bf00      	nop
 8001ce0:	3718      	adds	r7, #24
 8001ce2:	46bd      	mov	sp, r7
 8001ce4:	bd80      	pop	{r7, pc}
 8001ce6:	bf00      	nop
 8001ce8:	40001400 	.word	0x40001400

08001cec <MX_GPIO_Init>:
  * @brief GPIO Initialization Function
  * @param None
  * @retval None
  */
static void MX_GPIO_Init(void)
{
 8001cec:	b580      	push	{r7, lr}
 8001cee:	b08a      	sub	sp, #40	@ 0x28
 8001cf0:	af00      	add	r7, sp, #0
  LL_EXTI_InitTypeDef EXTI_InitStruct = {0};
 8001cf2:	f107 031c 	add.w	r3, r7, #28
 8001cf6:	2200      	movs	r2, #0
 8001cf8:	601a      	str	r2, [r3, #0]
 8001cfa:	605a      	str	r2, [r3, #4]
 8001cfc:	609a      	str	r2, [r3, #8]
  LL_GPIO_InitTypeDef GPIO_InitStruct = {0};
 8001cfe:	1d3b      	adds	r3, r7, #4
 8001d00:	2200      	movs	r2, #0
 8001d02:	601a      	str	r2, [r3, #0]
 8001d04:	605a      	str	r2, [r3, #4]
 8001d06:	609a      	str	r2, [r3, #8]
 8001d08:	60da      	str	r2, [r3, #12]
 8001d0a:	611a      	str	r2, [r3, #16]
 8001d0c:	615a      	str	r2, [r3, #20]
/* USER CODE BEGIN MX_GPIO_Init_1 */
/* USER CODE END MX_GPIO_Init_1 */

  /* GPIO Ports Clock Enable */
  LL_AHB2_GRP1_EnableClock(LL_AHB2_GRP1_PERIPH_GPIOC);
 8001d0e:	2004      	movs	r0, #4
 8001d10:	f7ff facc 	bl	80012ac <LL_AHB2_GRP1_EnableClock>
  LL_AHB2_GRP1_EnableClock(LL_AHB2_GRP1_PERIPH_GPIOH);
 8001d14:	2080      	movs	r0, #128	@ 0x80
 8001d16:	f7ff fac9 	bl	80012ac <LL_AHB2_GRP1_EnableClock>
  LL_AHB2_GRP1_EnableClock(LL_AHB2_GRP1_PERIPH_GPIOA);
 8001d1a:	2001      	movs	r0, #1
 8001d1c:	f7ff fac6 	bl	80012ac <LL_AHB2_GRP1_EnableClock>
  LL_AHB2_GRP1_EnableClock(LL_AHB2_GRP1_PERIPH_GPIOB);
 8001d20:	2002      	movs	r0, #2
 8001d22:	f7ff fac3 	bl	80012ac <LL_AHB2_GRP1_EnableClock>
  LL_AHB2_GRP1_EnableClock(LL_AHB2_GRP1_PERIPH_GPIOD);
 8001d26:	2008      	movs	r0, #8
 8001d28:	f7ff fac0 	bl	80012ac <LL_AHB2_GRP1_EnableClock>

  /**/
  LL_GPIO_ResetOutputPin(GPIOC, Sensor_Mux0_Pin|Sensor_Mux1_Pin|Sensor_Mux2_Pin|Sensor_MuxX_Pin
 8001d2c:	f240 31cf 	movw	r1, #975	@ 0x3cf
 8001d30:	484f      	ldr	r0, [pc, #316]	@ (8001e70 <MX_GPIO_Init+0x184>)
 8001d32:	f7ff fc63 	bl	80015fc <LL_GPIO_ResetOutputPin>
                          |Motor_L1_Pin|Motor_L2_Pin|Motor_L3_Pin|Motor_L4_Pin);

  /**/
  LL_GPIO_ResetOutputPin(LED2_GPIO_Port, LED2_Pin);
 8001d36:	2120      	movs	r1, #32
 8001d38:	484e      	ldr	r0, [pc, #312]	@ (8001e74 <MX_GPIO_Init+0x188>)
 8001d3a:	f7ff fc5f 	bl	80015fc <LL_GPIO_ResetOutputPin>

  /**/
  LL_GPIO_ResetOutputPin(GPIOB, OLED_CS_Pin|OLED_DC_Pin|Motor_R1_Pin|Motor_R2_Pin
 8001d3e:	f246 11c0 	movw	r1, #25024	@ 0x61c0
 8001d42:	484d      	ldr	r0, [pc, #308]	@ (8001e78 <MX_GPIO_Init+0x18c>)
 8001d44:	f7ff fc5a 	bl	80015fc <LL_GPIO_ResetOutputPin>
                          |Motor_R3_Pin);

  /**/
  LL_GPIO_ResetOutputPin(Motor_R4_GPIO_Port, Motor_R4_Pin);
 8001d48:	2104      	movs	r1, #4
 8001d4a:	484c      	ldr	r0, [pc, #304]	@ (8001e7c <MX_GPIO_Init+0x190>)
 8001d4c:	f7ff fc56 	bl	80015fc <LL_GPIO_ResetOutputPin>

  /**/
  LL_EXTI_SetEXTISource(LL_EXTI_EXTI_PORTC, LL_EXTI_EXTI_LINE13);
 8001d50:	494b      	ldr	r1, [pc, #300]	@ (8001e80 <MX_GPIO_Init+0x194>)
 8001d52:	2002      	movs	r0, #2
 8001d54:	f7ff fb20 	bl	8001398 <LL_EXTI_SetEXTISource>

  /**/
  EXTI_InitStruct.Line_0_31 = LL_EXTI_LINE_13;
 8001d58:	f44f 5300 	mov.w	r3, #8192	@ 0x2000
 8001d5c:	61fb      	str	r3, [r7, #28]
  EXTI_InitStruct.Line_32_63 = LL_EXTI_LINE_NONE;
 8001d5e:	2300      	movs	r3, #0
 8001d60:	623b      	str	r3, [r7, #32]
  EXTI_InitStruct.LineCommand = ENABLE;
 8001d62:	2301      	movs	r3, #1
 8001d64:	f887 3024 	strb.w	r3, [r7, #36]	@ 0x24
  EXTI_InitStruct.Mode = LL_EXTI_MODE_IT;
 8001d68:	2300      	movs	r3, #0
 8001d6a:	f887 3025 	strb.w	r3, [r7, #37]	@ 0x25
  EXTI_InitStruct.Trigger = LL_EXTI_TRIGGER_RISING;
 8001d6e:	2301      	movs	r3, #1
 8001d70:	f887 3026 	strb.w	r3, [r7, #38]	@ 0x26
  LL_EXTI_Init(&EXTI_InitStruct);
 8001d74:	f107 031c 	add.w	r3, r7, #28
 8001d78:	4618      	mov	r0, r3
 8001d7a:	f000 fc85 	bl	8002688 <LL_EXTI_Init>

  /**/
  LL_GPIO_SetPinPull(B1_GPIO_Port, B1_Pin, LL_GPIO_PULL_NO);
 8001d7e:	2200      	movs	r2, #0
 8001d80:	f44f 5100 	mov.w	r1, #8192	@ 0x2000
 8001d84:	483a      	ldr	r0, [pc, #232]	@ (8001e70 <MX_GPIO_Init+0x184>)
 8001d86:	f7ff fbfc 	bl	8001582 <LL_GPIO_SetPinPull>

  /**/
  LL_GPIO_SetPinMode(B1_GPIO_Port, B1_Pin, LL_GPIO_MODE_INPUT);
 8001d8a:	2200      	movs	r2, #0
 8001d8c:	f44f 5100 	mov.w	r1, #8192	@ 0x2000
 8001d90:	4837      	ldr	r0, [pc, #220]	@ (8001e70 <MX_GPIO_Init+0x184>)
 8001d92:	f7ff fbb9 	bl	8001508 <LL_GPIO_SetPinMode>

  /**/
  GPIO_InitStruct.Pin = Sensor_Mux0_Pin|Sensor_Mux1_Pin|Sensor_Mux2_Pin|Sensor_MuxX_Pin;
 8001d96:	230f      	movs	r3, #15
 8001d98:	607b      	str	r3, [r7, #4]
  GPIO_InitStruct.Mode = LL_GPIO_MODE_OUTPUT;
 8001d9a:	2301      	movs	r3, #1
 8001d9c:	60bb      	str	r3, [r7, #8]
  GPIO_InitStruct.Speed = LL_GPIO_SPEED_FREQ_LOW;
 8001d9e:	2300      	movs	r3, #0
 8001da0:	60fb      	str	r3, [r7, #12]
  GPIO_InitStruct.OutputType = LL_GPIO_OUTPUT_PUSHPULL;
 8001da2:	2300      	movs	r3, #0
 8001da4:	613b      	str	r3, [r7, #16]
  GPIO_InitStruct.Pull = LL_GPIO_PULL_NO;
 8001da6:	2300      	movs	r3, #0
 8001da8:	617b      	str	r3, [r7, #20]
  LL_GPIO_Init(GPIOC, &GPIO_InitStruct);
 8001daa:	1d3b      	adds	r3, r7, #4
 8001dac:	4619      	mov	r1, r3
 8001dae:	4830      	ldr	r0, [pc, #192]	@ (8001e70 <MX_GPIO_Init+0x184>)
 8001db0:	f000 fea5 	bl	8002afe <LL_GPIO_Init>

  /**/
  GPIO_InitStruct.Pin = LED2_Pin;
 8001db4:	2320      	movs	r3, #32
 8001db6:	607b      	str	r3, [r7, #4]
  GPIO_InitStruct.Mode = LL_GPIO_MODE_OUTPUT;
 8001db8:	2301      	movs	r3, #1
 8001dba:	60bb      	str	r3, [r7, #8]
  GPIO_InitStruct.Speed = LL_GPIO_SPEED_FREQ_LOW;
 8001dbc:	2300      	movs	r3, #0
 8001dbe:	60fb      	str	r3, [r7, #12]
  GPIO_InitStruct.OutputType = LL_GPIO_OUTPUT_PUSHPULL;
 8001dc0:	2300      	movs	r3, #0
 8001dc2:	613b      	str	r3, [r7, #16]
  GPIO_InitStruct.Pull = LL_GPIO_PULL_NO;
 8001dc4:	2300      	movs	r3, #0
 8001dc6:	617b      	str	r3, [r7, #20]
  LL_GPIO_Init(LED2_GPIO_Port, &GPIO_InitStruct);
 8001dc8:	1d3b      	adds	r3, r7, #4
 8001dca:	4619      	mov	r1, r3
 8001dcc:	4829      	ldr	r0, [pc, #164]	@ (8001e74 <MX_GPIO_Init+0x188>)
 8001dce:	f000 fe96 	bl	8002afe <LL_GPIO_Init>

  /**/
  GPIO_InitStruct.Pin = OLED_CS_Pin|OLED_DC_Pin;
 8001dd2:	f44f 43c0 	mov.w	r3, #24576	@ 0x6000
 8001dd6:	607b      	str	r3, [r7, #4]
  GPIO_InitStruct.Mode = LL_GPIO_MODE_OUTPUT;
 8001dd8:	2301      	movs	r3, #1
 8001dda:	60bb      	str	r3, [r7, #8]
  GPIO_InitStruct.Speed = LL_GPIO_SPEED_FREQ_LOW;
 8001ddc:	2300      	movs	r3, #0
 8001dde:	60fb      	str	r3, [r7, #12]
  GPIO_InitStruct.OutputType = LL_GPIO_OUTPUT_PUSHPULL;
 8001de0:	2300      	movs	r3, #0
 8001de2:	613b      	str	r3, [r7, #16]
  GPIO_InitStruct.Pull = LL_GPIO_PULL_UP;
 8001de4:	2301      	movs	r3, #1
 8001de6:	617b      	str	r3, [r7, #20]
  LL_GPIO_Init(GPIOB, &GPIO_InitStruct);
 8001de8:	1d3b      	adds	r3, r7, #4
 8001dea:	4619      	mov	r1, r3
 8001dec:	4822      	ldr	r0, [pc, #136]	@ (8001e78 <MX_GPIO_Init+0x18c>)
 8001dee:	f000 fe86 	bl	8002afe <LL_GPIO_Init>

  /**/
  GPIO_InitStruct.Pin = Motor_L1_Pin|Motor_L2_Pin|Motor_L3_Pin|Motor_L4_Pin;
 8001df2:	f44f 7370 	mov.w	r3, #960	@ 0x3c0
 8001df6:	607b      	str	r3, [r7, #4]
  GPIO_InitStruct.Mode = LL_GPIO_MODE_OUTPUT;
 8001df8:	2301      	movs	r3, #1
 8001dfa:	60bb      	str	r3, [r7, #8]
  GPIO_InitStruct.Speed = LL_GPIO_SPEED_FREQ_LOW;
 8001dfc:	2300      	movs	r3, #0
 8001dfe:	60fb      	str	r3, [r7, #12]
  GPIO_InitStruct.OutputType = LL_GPIO_OUTPUT_PUSHPULL;
 8001e00:	2300      	movs	r3, #0
 8001e02:	613b      	str	r3, [r7, #16]
  GPIO_InitStruct.Pull = LL_GPIO_PULL_DOWN;
 8001e04:	2302      	movs	r3, #2
 8001e06:	617b      	str	r3, [r7, #20]
  LL_GPIO_Init(GPIOC, &GPIO_InitStruct);
 8001e08:	1d3b      	adds	r3, r7, #4
 8001e0a:	4619      	mov	r1, r3
 8001e0c:	4818      	ldr	r0, [pc, #96]	@ (8001e70 <MX_GPIO_Init+0x184>)
 8001e0e:	f000 fe76 	bl	8002afe <LL_GPIO_Init>

  /**/
  GPIO_InitStruct.Pin = Motor_R4_Pin;
 8001e12:	2304      	movs	r3, #4
 8001e14:	607b      	str	r3, [r7, #4]
  GPIO_InitStruct.Mode = LL_GPIO_MODE_OUTPUT;
 8001e16:	2301      	movs	r3, #1
 8001e18:	60bb      	str	r3, [r7, #8]
  GPIO_InitStruct.Speed = LL_GPIO_SPEED_FREQ_LOW;
 8001e1a:	2300      	movs	r3, #0
 8001e1c:	60fb      	str	r3, [r7, #12]
  GPIO_InitStruct.OutputType = LL_GPIO_OUTPUT_PUSHPULL;
 8001e1e:	2300      	movs	r3, #0
 8001e20:	613b      	str	r3, [r7, #16]
  GPIO_InitStruct.Pull = LL_GPIO_PULL_DOWN;
 8001e22:	2302      	movs	r3, #2
 8001e24:	617b      	str	r3, [r7, #20]
  LL_GPIO_Init(Motor_R4_GPIO_Port, &GPIO_InitStruct);
 8001e26:	1d3b      	adds	r3, r7, #4
 8001e28:	4619      	mov	r1, r3
 8001e2a:	4814      	ldr	r0, [pc, #80]	@ (8001e7c <MX_GPIO_Init+0x190>)
 8001e2c:	f000 fe67 	bl	8002afe <LL_GPIO_Init>

  /**/
  GPIO_InitStruct.Pin = SWL_Pin|SWR_Pin;
 8001e30:	2330      	movs	r3, #48	@ 0x30
 8001e32:	607b      	str	r3, [r7, #4]
  GPIO_InitStruct.Mode = LL_GPIO_MODE_INPUT;
 8001e34:	2300      	movs	r3, #0
 8001e36:	60bb      	str	r3, [r7, #8]
  GPIO_InitStruct.Pull = LL_GPIO_PULL_UP;
 8001e38:	2301      	movs	r3, #1
 8001e3a:	617b      	str	r3, [r7, #20]
  LL_GPIO_Init(GPIOB, &GPIO_InitStruct);
 8001e3c:	1d3b      	adds	r3, r7, #4
 8001e3e:	4619      	mov	r1, r3
 8001e40:	480d      	ldr	r0, [pc, #52]	@ (8001e78 <MX_GPIO_Init+0x18c>)
 8001e42:	f000 fe5c 	bl	8002afe <LL_GPIO_Init>

  /**/
  GPIO_InitStruct.Pin = Motor_R1_Pin|Motor_R2_Pin|Motor_R3_Pin;
 8001e46:	f44f 73e0 	mov.w	r3, #448	@ 0x1c0
 8001e4a:	607b      	str	r3, [r7, #4]
  GPIO_InitStruct.Mode = LL_GPIO_MODE_OUTPUT;
 8001e4c:	2301      	movs	r3, #1
 8001e4e:	60bb      	str	r3, [r7, #8]
  GPIO_InitStruct.Speed = LL_GPIO_SPEED_FREQ_LOW;
 8001e50:	2300      	movs	r3, #0
 8001e52:	60fb      	str	r3, [r7, #12]
  GPIO_InitStruct.OutputType = LL_GPIO_OUTPUT_PUSHPULL;
 8001e54:	2300      	movs	r3, #0
 8001e56:	613b      	str	r3, [r7, #16]
  GPIO_InitStruct.Pull = LL_GPIO_PULL_DOWN;
 8001e58:	2302      	movs	r3, #2
 8001e5a:	617b      	str	r3, [r7, #20]
  LL_GPIO_Init(GPIOB, &GPIO_InitStruct);
 8001e5c:	1d3b      	adds	r3, r7, #4
 8001e5e:	4619      	mov	r1, r3
 8001e60:	4805      	ldr	r0, [pc, #20]	@ (8001e78 <MX_GPIO_Init+0x18c>)
 8001e62:	f000 fe4c 	bl	8002afe <LL_GPIO_Init>

/* USER CODE BEGIN MX_GPIO_Init_2 */
/* USER CODE END MX_GPIO_Init_2 */
}
 8001e66:	bf00      	nop
 8001e68:	3728      	adds	r7, #40	@ 0x28
 8001e6a:	46bd      	mov	sp, r7
 8001e6c:	bd80      	pop	{r7, pc}
 8001e6e:	bf00      	nop
 8001e70:	42020800 	.word	0x42020800
 8001e74:	42020000 	.word	0x42020000
 8001e78:	42020400 	.word	0x42020400
 8001e7c:	42020c00 	.word	0x42020c00
 8001e80:	00080003 	.word	0x00080003

08001e84 <LL_TIM_ClearFlag_UPDATE>:
  * @rmtoll SR           UIF           LL_TIM_ClearFlag_UPDATE
  * @param  TIMx Timer instance
  * @retval None
  */
__STATIC_INLINE void LL_TIM_ClearFlag_UPDATE(TIM_TypeDef *TIMx)
{
 8001e84:	b480      	push	{r7}
 8001e86:	b083      	sub	sp, #12
 8001e88:	af00      	add	r7, sp, #0
 8001e8a:	6078      	str	r0, [r7, #4]
  WRITE_REG(TIMx->SR, ~(TIM_SR_UIF));
 8001e8c:	687b      	ldr	r3, [r7, #4]
 8001e8e:	f06f 0201 	mvn.w	r2, #1
 8001e92:	611a      	str	r2, [r3, #16]
}
 8001e94:	bf00      	nop
 8001e96:	370c      	adds	r7, #12
 8001e98:	46bd      	mov	sp, r7
 8001e9a:	f85d 7b04 	ldr.w	r7, [sp], #4
 8001e9e:	4770      	bx	lr

08001ea0 <NMI_Handler>:
/******************************************************************************/
/**
  * @brief This function handles Non maskable interrupt.
  */
void NMI_Handler(void)
{
 8001ea0:	b480      	push	{r7}
 8001ea2:	af00      	add	r7, sp, #0
  /* USER CODE BEGIN NonMaskableInt_IRQn 0 */

  /* USER CODE END NonMaskableInt_IRQn 0 */
  /* USER CODE BEGIN NonMaskableInt_IRQn 1 */
   while (1)
 8001ea4:	bf00      	nop
 8001ea6:	e7fd      	b.n	8001ea4 <NMI_Handler+0x4>

08001ea8 <HardFault_Handler>:

/**
  * @brief This function handles Hard fault interrupt.
  */
void HardFault_Handler(void)
{
 8001ea8:	b480      	push	{r7}
 8001eaa:	af00      	add	r7, sp, #0
  /* USER CODE BEGIN HardFault_IRQn 0 */

  /* USER CODE END HardFault_IRQn 0 */
  while (1)
 8001eac:	bf00      	nop
 8001eae:	e7fd      	b.n	8001eac <HardFault_Handler+0x4>

08001eb0 <MemManage_Handler>:

/**
  * @brief This function handles Memory management fault.
  */
void MemManage_Handler(void)
{
 8001eb0:	b480      	push	{r7}
 8001eb2:	af00      	add	r7, sp, #0
  /* USER CODE BEGIN MemoryManagement_IRQn 0 */

  /* USER CODE END MemoryManagement_IRQn 0 */
  while (1)
 8001eb4:	bf00      	nop
 8001eb6:	e7fd      	b.n	8001eb4 <MemManage_Handler+0x4>

08001eb8 <BusFault_Handler>:

/**
  * @brief This function handles Prefetch fault, memory access fault.
  */
void BusFault_Handler(void)
{
 8001eb8:	b480      	push	{r7}
 8001eba:	af00      	add	r7, sp, #0
  /* USER CODE BEGIN BusFault_IRQn 0 */

  /* USER CODE END BusFault_IRQn 0 */
  while (1)
 8001ebc:	bf00      	nop
 8001ebe:	e7fd      	b.n	8001ebc <BusFault_Handler+0x4>

08001ec0 <UsageFault_Handler>:

/**
  * @brief This function handles Undefined instruction or illegal state.
  */
void UsageFault_Handler(void)
{
 8001ec0:	b480      	push	{r7}
 8001ec2:	af00      	add	r7, sp, #0
  /* USER CODE BEGIN UsageFault_IRQn 0 */

  /* USER CODE END UsageFault_IRQn 0 */
  while (1)
 8001ec4:	bf00      	nop
 8001ec6:	e7fd      	b.n	8001ec4 <UsageFault_Handler+0x4>

08001ec8 <SVC_Handler>:

/**
  * @brief This function handles System service call via SWI instruction.
  */
void SVC_Handler(void)
{
 8001ec8:	b480      	push	{r7}
 8001eca:	af00      	add	r7, sp, #0

  /* USER CODE END SVCall_IRQn 0 */
  /* USER CODE BEGIN SVCall_IRQn 1 */

  /* USER CODE END SVCall_IRQn 1 */
}
 8001ecc:	bf00      	nop
 8001ece:	46bd      	mov	sp, r7
 8001ed0:	f85d 7b04 	ldr.w	r7, [sp], #4
 8001ed4:	4770      	bx	lr

08001ed6 <DebugMon_Handler>:

/**
  * @brief This function handles Debug monitor.
  */
void DebugMon_Handler(void)
{
 8001ed6:	b480      	push	{r7}
 8001ed8:	af00      	add	r7, sp, #0

  /* USER CODE END DebugMonitor_IRQn 0 */
  /* USER CODE BEGIN DebugMonitor_IRQn 1 */

  /* USER CODE END DebugMonitor_IRQn 1 */
}
 8001eda:	bf00      	nop
 8001edc:	46bd      	mov	sp, r7
 8001ede:	f85d 7b04 	ldr.w	r7, [sp], #4
 8001ee2:	4770      	bx	lr

08001ee4 <PendSV_Handler>:

/**
  * @brief This function handles Pendable request for system service.
  */
void PendSV_Handler(void)
{
 8001ee4:	b480      	push	{r7}
 8001ee6:	af00      	add	r7, sp, #0

  /* USER CODE END PendSV_IRQn 0 */
  /* USER CODE BEGIN PendSV_IRQn 1 */

  /* USER CODE END PendSV_IRQn 1 */
}
 8001ee8:	bf00      	nop
 8001eea:	46bd      	mov	sp, r7
 8001eec:	f85d 7b04 	ldr.w	r7, [sp], #4
 8001ef0:	4770      	bx	lr
	...

08001ef4 <SysTick_Handler>:

/**
  * @brief This function handles System tick timer.
  */
void SysTick_Handler(void)
{
 8001ef4:	b480      	push	{r7}
 8001ef6:	af00      	add	r7, sp, #0
  /* USER CODE BEGIN SysTick_IRQn 0 */
	uwTick++;
 8001ef8:	4b04      	ldr	r3, [pc, #16]	@ (8001f0c <SysTick_Handler+0x18>)
 8001efa:	681b      	ldr	r3, [r3, #0]
 8001efc:	3301      	adds	r3, #1
 8001efe:	4a03      	ldr	r2, [pc, #12]	@ (8001f0c <SysTick_Handler+0x18>)
 8001f00:	6013      	str	r3, [r2, #0]
  /* USER CODE END SysTick_IRQn 0 */

  /* USER CODE BEGIN SysTick_IRQn 1 */

  /* USER CODE END SysTick_IRQn 1 */
}
 8001f02:	bf00      	nop
 8001f04:	46bd      	mov	sp, r7
 8001f06:	f85d 7b04 	ldr.w	r7, [sp], #4
 8001f0a:	4770      	bx	lr
 8001f0c:	200001e8 	.word	0x200001e8

08001f10 <TIM1_BRK_IRQHandler>:

/**
  * @brief This function handles TIM1 Break interrupt.
  */
void TIM1_BRK_IRQHandler(void)
{
 8001f10:	b580      	push	{r7, lr}
 8001f12:	af00      	add	r7, sp, #0
  /* USER CODE BEGIN TIM1_BRK_IRQn 0 */

  /* USER CODE END TIM1_BRK_IRQn 0 */
  /* USER CODE BEGIN TIM1_BRK_IRQn 1 */
	LL_TIM_ClearFlag_UPDATE(TIM1);
 8001f14:	4802      	ldr	r0, [pc, #8]	@ (8001f20 <TIM1_BRK_IRQHandler+0x10>)
 8001f16:	f7ff ffb5 	bl	8001e84 <LL_TIM_ClearFlag_UPDATE>
  /* USER CODE END TIM1_BRK_IRQn 1 */
}
 8001f1a:	bf00      	nop
 8001f1c:	bd80      	pop	{r7, pc}
 8001f1e:	bf00      	nop
 8001f20:	40012c00 	.word	0x40012c00

08001f24 <TIM3_IRQHandler>:

/**
  * @brief This function handles TIM3 global interrupt.
  */
void TIM3_IRQHandler(void)
{
 8001f24:	b580      	push	{r7, lr}
 8001f26:	af00      	add	r7, sp, #0
  /* USER CODE BEGIN TIM3_IRQn 0 */
	Motor_L_TIM3_IRQ();
 8001f28:	f001 ff6c 	bl	8003e04 <Motor_L_TIM3_IRQ>
  /* USER CODE END TIM3_IRQn 0 */
  /* USER CODE BEGIN TIM3_IRQn 1 */
	LL_TIM_ClearFlag_UPDATE(TIM3);
 8001f2c:	4802      	ldr	r0, [pc, #8]	@ (8001f38 <TIM3_IRQHandler+0x14>)
 8001f2e:	f7ff ffa9 	bl	8001e84 <LL_TIM_ClearFlag_UPDATE>
  /* USER CODE END TIM3_IRQn 1 */
}
 8001f32:	bf00      	nop
 8001f34:	bd80      	pop	{r7, pc}
 8001f36:	bf00      	nop
 8001f38:	40000400 	.word	0x40000400

08001f3c <TIM4_IRQHandler>:

/**
  * @brief This function handles TIM4 global interrupt.
  */
void TIM4_IRQHandler(void)
{
 8001f3c:	b580      	push	{r7, lr}
 8001f3e:	af00      	add	r7, sp, #0
  /* USER CODE BEGIN TIM4_IRQn 0 */
	Motor_R_TIM4_IRQ();
 8001f40:	f001 ff67 	bl	8003e12 <Motor_R_TIM4_IRQ>
  /* USER CODE END TIM4_IRQn 0 */
  /* USER CODE BEGIN TIM4_IRQn 1 */
	LL_TIM_ClearFlag_UPDATE(TIM4);
 8001f44:	4802      	ldr	r0, [pc, #8]	@ (8001f50 <TIM4_IRQHandler+0x14>)
 8001f46:	f7ff ff9d 	bl	8001e84 <LL_TIM_ClearFlag_UPDATE>
  /* USER CODE END TIM4_IRQn 1 */
}
 8001f4a:	bf00      	nop
 8001f4c:	bd80      	pop	{r7, pc}
 8001f4e:	bf00      	nop
 8001f50:	40000800 	.word	0x40000800

08001f54 <TIM6_IRQHandler>:

/**
  * @brief This function handles TIM6 global interrupt.
  */
void TIM6_IRQHandler(void)
{
 8001f54:	b580      	push	{r7, lr}
 8001f56:	af00      	add	r7, sp, #0
  /* USER CODE BEGIN TIM6_IRQn 0 */
	Sensor_TIM6_IRQ();
 8001f58:	f001 ff62 	bl	8003e20 <Sensor_TIM6_IRQ>
  /* USER CODE END TIM6_IRQn 0 */
  /* USER CODE BEGIN TIM6_IRQn 1 */
	LL_TIM_ClearFlag_UPDATE(TIM6);
 8001f5c:	4802      	ldr	r0, [pc, #8]	@ (8001f68 <TIM6_IRQHandler+0x14>)
 8001f5e:	f7ff ff91 	bl	8001e84 <LL_TIM_ClearFlag_UPDATE>
  /* USER CODE END TIM6_IRQn 1 */
}
 8001f62:	bf00      	nop
 8001f64:	bd80      	pop	{r7, pc}
 8001f66:	bf00      	nop
 8001f68:	40001000 	.word	0x40001000

08001f6c <TIM7_IRQHandler>:

/**
  * @brief This function handles TIM7 global interrupt.
  */
void TIM7_IRQHandler(void)
{
 8001f6c:	b580      	push	{r7, lr}
 8001f6e:	af00      	add	r7, sp, #0
  /* USER CODE BEGIN TIM7_IRQn 0 */
	Drive_TIM7_IRQ();
 8001f70:	f001 feb0 	bl	8003cd4 <Drive_TIM7_IRQ>
  /* USER CODE END TIM7_IRQn 0 */
  /* USER CODE BEGIN TIM7_IRQn 1 */
	LL_TIM_ClearFlag_UPDATE(TIM7);
 8001f74:	4802      	ldr	r0, [pc, #8]	@ (8001f80 <TIM7_IRQHandler+0x14>)
 8001f76:	f7ff ff85 	bl	8001e84 <LL_TIM_ClearFlag_UPDATE>
  /* USER CODE END TIM7_IRQn 1 */
}
 8001f7a:	bf00      	nop
 8001f7c:	bd80      	pop	{r7, pc}
 8001f7e:	bf00      	nop
 8001f80:	40001400 	.word	0x40001400

08001f84 <_getpid>:
void initialise_monitor_handles()
{
}

int _getpid(void)
{
 8001f84:	b480      	push	{r7}
 8001f86:	af00      	add	r7, sp, #0
  return 1;
 8001f88:	2301      	movs	r3, #1
}
 8001f8a:	4618      	mov	r0, r3
 8001f8c:	46bd      	mov	sp, r7
 8001f8e:	f85d 7b04 	ldr.w	r7, [sp], #4
 8001f92:	4770      	bx	lr

08001f94 <_kill>:

int _kill(int pid, int sig)
{
 8001f94:	b580      	push	{r7, lr}
 8001f96:	b082      	sub	sp, #8
 8001f98:	af00      	add	r7, sp, #0
 8001f9a:	6078      	str	r0, [r7, #4]
 8001f9c:	6039      	str	r1, [r7, #0]
  (void)pid;
  (void)sig;
  errno = EINVAL;
 8001f9e:	f002 fd17 	bl	80049d0 <__errno>
 8001fa2:	4603      	mov	r3, r0
 8001fa4:	2216      	movs	r2, #22
 8001fa6:	601a      	str	r2, [r3, #0]
  return -1;
 8001fa8:	f04f 33ff 	mov.w	r3, #4294967295
}
 8001fac:	4618      	mov	r0, r3
 8001fae:	3708      	adds	r7, #8
 8001fb0:	46bd      	mov	sp, r7
 8001fb2:	bd80      	pop	{r7, pc}

08001fb4 <_exit>:

void _exit (int status)
{
 8001fb4:	b580      	push	{r7, lr}
 8001fb6:	b082      	sub	sp, #8
 8001fb8:	af00      	add	r7, sp, #0
 8001fba:	6078      	str	r0, [r7, #4]
  _kill(status, -1);
 8001fbc:	f04f 31ff 	mov.w	r1, #4294967295
 8001fc0:	6878      	ldr	r0, [r7, #4]
 8001fc2:	f7ff ffe7 	bl	8001f94 <_kill>
  while (1) {}    /* Make sure we hang here */
 8001fc6:	bf00      	nop
 8001fc8:	e7fd      	b.n	8001fc6 <_exit+0x12>

08001fca <_read>:
}

__attribute__((weak)) int _read(int file, char *ptr, int len)
{
 8001fca:	b580      	push	{r7, lr}
 8001fcc:	b086      	sub	sp, #24
 8001fce:	af00      	add	r7, sp, #0
 8001fd0:	60f8      	str	r0, [r7, #12]
 8001fd2:	60b9      	str	r1, [r7, #8]
 8001fd4:	607a      	str	r2, [r7, #4]
  (void)file;
  int DataIdx;

  for (DataIdx = 0; DataIdx < len; DataIdx++)
 8001fd6:	2300      	movs	r3, #0
 8001fd8:	617b      	str	r3, [r7, #20]
 8001fda:	e00a      	b.n	8001ff2 <_read+0x28>
  {
    *ptr++ = __io_getchar();
 8001fdc:	f3af 8000 	nop.w
 8001fe0:	4601      	mov	r1, r0
 8001fe2:	68bb      	ldr	r3, [r7, #8]
 8001fe4:	1c5a      	adds	r2, r3, #1
 8001fe6:	60ba      	str	r2, [r7, #8]
 8001fe8:	b2ca      	uxtb	r2, r1
 8001fea:	701a      	strb	r2, [r3, #0]
  for (DataIdx = 0; DataIdx < len; DataIdx++)
 8001fec:	697b      	ldr	r3, [r7, #20]
 8001fee:	3301      	adds	r3, #1
 8001ff0:	617b      	str	r3, [r7, #20]
 8001ff2:	697a      	ldr	r2, [r7, #20]
 8001ff4:	687b      	ldr	r3, [r7, #4]
 8001ff6:	429a      	cmp	r2, r3
 8001ff8:	dbf0      	blt.n	8001fdc <_read+0x12>
  }

  return len;
 8001ffa:	687b      	ldr	r3, [r7, #4]
}
 8001ffc:	4618      	mov	r0, r3
 8001ffe:	3718      	adds	r7, #24
 8002000:	46bd      	mov	sp, r7
 8002002:	bd80      	pop	{r7, pc}

08002004 <_write>:

__attribute__((weak)) int _write(int file, char *ptr, int len)
{
 8002004:	b580      	push	{r7, lr}
 8002006:	b086      	sub	sp, #24
 8002008:	af00      	add	r7, sp, #0
 800200a:	60f8      	str	r0, [r7, #12]
 800200c:	60b9      	str	r1, [r7, #8]
 800200e:	607a      	str	r2, [r7, #4]
  (void)file;
  int DataIdx;

  for (DataIdx = 0; DataIdx < len; DataIdx++)
 8002010:	2300      	movs	r3, #0
 8002012:	617b      	str	r3, [r7, #20]
 8002014:	e009      	b.n	800202a <_write+0x26>
  {
    __io_putchar(*ptr++);
 8002016:	68bb      	ldr	r3, [r7, #8]
 8002018:	1c5a      	adds	r2, r3, #1
 800201a:	60ba      	str	r2, [r7, #8]
 800201c:	781b      	ldrb	r3, [r3, #0]
 800201e:	4618      	mov	r0, r3
 8002020:	f3af 8000 	nop.w
  for (DataIdx = 0; DataIdx < len; DataIdx++)
 8002024:	697b      	ldr	r3, [r7, #20]
 8002026:	3301      	adds	r3, #1
 8002028:	617b      	str	r3, [r7, #20]
 800202a:	697a      	ldr	r2, [r7, #20]
 800202c:	687b      	ldr	r3, [r7, #4]
 800202e:	429a      	cmp	r2, r3
 8002030:	dbf1      	blt.n	8002016 <_write+0x12>
  }
  return len;
 8002032:	687b      	ldr	r3, [r7, #4]
}
 8002034:	4618      	mov	r0, r3
 8002036:	3718      	adds	r7, #24
 8002038:	46bd      	mov	sp, r7
 800203a:	bd80      	pop	{r7, pc}

0800203c <_close>:

int _close(int file)
{
 800203c:	b480      	push	{r7}
 800203e:	b083      	sub	sp, #12
 8002040:	af00      	add	r7, sp, #0
 8002042:	6078      	str	r0, [r7, #4]
  (void)file;
  return -1;
 8002044:	f04f 33ff 	mov.w	r3, #4294967295
}
 8002048:	4618      	mov	r0, r3
 800204a:	370c      	adds	r7, #12
 800204c:	46bd      	mov	sp, r7
 800204e:	f85d 7b04 	ldr.w	r7, [sp], #4
 8002052:	4770      	bx	lr

08002054 <_fstat>:


int _fstat(int file, struct stat *st)
{
 8002054:	b480      	push	{r7}
 8002056:	b083      	sub	sp, #12
 8002058:	af00      	add	r7, sp, #0
 800205a:	6078      	str	r0, [r7, #4]
 800205c:	6039      	str	r1, [r7, #0]
  (void)file;
  st->st_mode = S_IFCHR;
 800205e:	683b      	ldr	r3, [r7, #0]
 8002060:	f44f 5200 	mov.w	r2, #8192	@ 0x2000
 8002064:	605a      	str	r2, [r3, #4]
  return 0;
 8002066:	2300      	movs	r3, #0
}
 8002068:	4618      	mov	r0, r3
 800206a:	370c      	adds	r7, #12
 800206c:	46bd      	mov	sp, r7
 800206e:	f85d 7b04 	ldr.w	r7, [sp], #4
 8002072:	4770      	bx	lr

08002074 <_isatty>:

int _isatty(int file)
{
 8002074:	b480      	push	{r7}
 8002076:	b083      	sub	sp, #12
 8002078:	af00      	add	r7, sp, #0
 800207a:	6078      	str	r0, [r7, #4]
  (void)file;
  return 1;
 800207c:	2301      	movs	r3, #1
}
 800207e:	4618      	mov	r0, r3
 8002080:	370c      	adds	r7, #12
 8002082:	46bd      	mov	sp, r7
 8002084:	f85d 7b04 	ldr.w	r7, [sp], #4
 8002088:	4770      	bx	lr

0800208a <_lseek>:

int _lseek(int file, int ptr, int dir)
{
 800208a:	b480      	push	{r7}
 800208c:	b085      	sub	sp, #20
 800208e:	af00      	add	r7, sp, #0
 8002090:	60f8      	str	r0, [r7, #12]
 8002092:	60b9      	str	r1, [r7, #8]
 8002094:	607a      	str	r2, [r7, #4]
  (void)file;
  (void)ptr;
  (void)dir;
  return 0;
 8002096:	2300      	movs	r3, #0
}
 8002098:	4618      	mov	r0, r3
 800209a:	3714      	adds	r7, #20
 800209c:	46bd      	mov	sp, r7
 800209e:	f85d 7b04 	ldr.w	r7, [sp], #4
 80020a2:	4770      	bx	lr

080020a4 <_sbrk>:
 *
 * @param incr Memory size
 * @return Pointer to allocated memory
 */
void *_sbrk(ptrdiff_t incr)
{
 80020a4:	b580      	push	{r7, lr}
 80020a6:	b086      	sub	sp, #24
 80020a8:	af00      	add	r7, sp, #0
 80020aa:	6078      	str	r0, [r7, #4]
  extern uint8_t _end; /* Symbol defined in the linker script */
  extern uint8_t _estack; /* Symbol defined in the linker script */
  extern uint32_t _Min_Stack_Size; /* Symbol defined in the linker script */
  const uint32_t stack_limit = (uint32_t)&_estack - (uint32_t)&_Min_Stack_Size;
 80020ac:	4a14      	ldr	r2, [pc, #80]	@ (8002100 <_sbrk+0x5c>)
 80020ae:	4b15      	ldr	r3, [pc, #84]	@ (8002104 <_sbrk+0x60>)
 80020b0:	1ad3      	subs	r3, r2, r3
 80020b2:	617b      	str	r3, [r7, #20]
  const uint8_t *max_heap = (uint8_t *)stack_limit;
 80020b4:	697b      	ldr	r3, [r7, #20]
 80020b6:	613b      	str	r3, [r7, #16]
  uint8_t *prev_heap_end;

  /* Initialize heap end at first call */
  if (NULL == __sbrk_heap_end)
 80020b8:	4b13      	ldr	r3, [pc, #76]	@ (8002108 <_sbrk+0x64>)
 80020ba:	681b      	ldr	r3, [r3, #0]
 80020bc:	2b00      	cmp	r3, #0
 80020be:	d102      	bne.n	80020c6 <_sbrk+0x22>
  {
    __sbrk_heap_end = &_end;
 80020c0:	4b11      	ldr	r3, [pc, #68]	@ (8002108 <_sbrk+0x64>)
 80020c2:	4a12      	ldr	r2, [pc, #72]	@ (800210c <_sbrk+0x68>)
 80020c4:	601a      	str	r2, [r3, #0]
  }

  /* Protect heap from growing into the reserved MSP stack */
  if (__sbrk_heap_end + incr > max_heap)
 80020c6:	4b10      	ldr	r3, [pc, #64]	@ (8002108 <_sbrk+0x64>)
 80020c8:	681a      	ldr	r2, [r3, #0]
 80020ca:	687b      	ldr	r3, [r7, #4]
 80020cc:	4413      	add	r3, r2
 80020ce:	693a      	ldr	r2, [r7, #16]
 80020d0:	429a      	cmp	r2, r3
 80020d2:	d207      	bcs.n	80020e4 <_sbrk+0x40>
  {
    errno = ENOMEM;
 80020d4:	f002 fc7c 	bl	80049d0 <__errno>
 80020d8:	4603      	mov	r3, r0
 80020da:	220c      	movs	r2, #12
 80020dc:	601a      	str	r2, [r3, #0]
    return (void *)-1;
 80020de:	f04f 33ff 	mov.w	r3, #4294967295
 80020e2:	e009      	b.n	80020f8 <_sbrk+0x54>
  }

  prev_heap_end = __sbrk_heap_end;
 80020e4:	4b08      	ldr	r3, [pc, #32]	@ (8002108 <_sbrk+0x64>)
 80020e6:	681b      	ldr	r3, [r3, #0]
 80020e8:	60fb      	str	r3, [r7, #12]
  __sbrk_heap_end += incr;
 80020ea:	4b07      	ldr	r3, [pc, #28]	@ (8002108 <_sbrk+0x64>)
 80020ec:	681a      	ldr	r2, [r3, #0]
 80020ee:	687b      	ldr	r3, [r7, #4]
 80020f0:	4413      	add	r3, r2
 80020f2:	4a05      	ldr	r2, [pc, #20]	@ (8002108 <_sbrk+0x64>)
 80020f4:	6013      	str	r3, [r2, #0]

  return (void *)prev_heap_end;
 80020f6:	68fb      	ldr	r3, [r7, #12]
}
 80020f8:	4618      	mov	r0, r3
 80020fa:	3718      	adds	r7, #24
 80020fc:	46bd      	mov	sp, r7
 80020fe:	bd80      	pop	{r7, pc}
 8002100:	20044000 	.word	0x20044000
 8002104:	00000400 	.word	0x00000400
 8002108:	200001ec 	.word	0x200001ec
 800210c:	200014b8 	.word	0x200014b8

08002110 <SystemInit>:
  * @param  None
  * @retval None
  */

void SystemInit(void)
{
 8002110:	b480      	push	{r7}
 8002112:	b083      	sub	sp, #12
 8002114:	af00      	add	r7, sp, #0
  uint32_t reg_opsr;

  /* FPU settings ------------------------------------------------------------*/
  #if (__FPU_PRESENT == 1) && (__FPU_USED == 1)
   SCB->CPACR |= ((3UL << 20U)|(3UL << 22U));  /* set CP10 and CP11 Full Access */
 8002116:	4b35      	ldr	r3, [pc, #212]	@ (80021ec <SystemInit+0xdc>)
 8002118:	f8d3 3088 	ldr.w	r3, [r3, #136]	@ 0x88
 800211c:	4a33      	ldr	r2, [pc, #204]	@ (80021ec <SystemInit+0xdc>)
 800211e:	f443 0370 	orr.w	r3, r3, #15728640	@ 0xf00000
 8002122:	f8c2 3088 	str.w	r3, [r2, #136]	@ 0x88
  #endif

  /* Reset the RCC clock configuration to the default reset state ------------*/
  /* Set HSION bit */
  RCC->CR = RCC_CR_HSION;
 8002126:	4b32      	ldr	r3, [pc, #200]	@ (80021f0 <SystemInit+0xe0>)
 8002128:	2201      	movs	r2, #1
 800212a:	601a      	str	r2, [r3, #0]

  /* Reset CFGR register */
  RCC->CFGR1 = 0U;
 800212c:	4b30      	ldr	r3, [pc, #192]	@ (80021f0 <SystemInit+0xe0>)
 800212e:	2200      	movs	r2, #0
 8002130:	61da      	str	r2, [r3, #28]
  RCC->CFGR2 = 0U;
 8002132:	4b2f      	ldr	r3, [pc, #188]	@ (80021f0 <SystemInit+0xe0>)
 8002134:	2200      	movs	r2, #0
 8002136:	621a      	str	r2, [r3, #32]

  /* Reset HSEON, HSECSSON, HSEBYP, HSEEXT, HSIDIV, HSIKERON, CSION, CSIKERON, HSI48 and PLLxON bits */
#if defined(RCC_CR_PLL3ON)
  RCC->CR &= ~(RCC_CR_HSEON | RCC_CR_HSECSSON | RCC_CR_HSEBYP | RCC_CR_HSEEXT | RCC_CR_HSIDIV | RCC_CR_HSIKERON | \
 8002138:	4b2d      	ldr	r3, [pc, #180]	@ (80021f0 <SystemInit+0xe0>)
 800213a:	681a      	ldr	r2, [r3, #0]
 800213c:	492c      	ldr	r1, [pc, #176]	@ (80021f0 <SystemInit+0xe0>)
 800213e:	4b2d      	ldr	r3, [pc, #180]	@ (80021f4 <SystemInit+0xe4>)
 8002140:	4013      	ands	r3, r2
 8002142:	600b      	str	r3, [r1, #0]
  RCC->CR &= ~(RCC_CR_HSEON | RCC_CR_HSECSSON | RCC_CR_HSEBYP | RCC_CR_HSEEXT | RCC_CR_HSIDIV | RCC_CR_HSIKERON | \
               RCC_CR_CSION | RCC_CR_CSIKERON |RCC_CR_HSI48ON | RCC_CR_PLL1ON | RCC_CR_PLL2ON);
#endif

  /* Reset PLLxCFGR register */
  RCC->PLL1CFGR = 0U;
 8002144:	4b2a      	ldr	r3, [pc, #168]	@ (80021f0 <SystemInit+0xe0>)
 8002146:	2200      	movs	r2, #0
 8002148:	629a      	str	r2, [r3, #40]	@ 0x28
  RCC->PLL2CFGR = 0U;
 800214a:	4b29      	ldr	r3, [pc, #164]	@ (80021f0 <SystemInit+0xe0>)
 800214c:	2200      	movs	r2, #0
 800214e:	62da      	str	r2, [r3, #44]	@ 0x2c
#if defined(RCC_CR_PLL3ON)
  RCC->PLL3CFGR = 0U;
 8002150:	4b27      	ldr	r3, [pc, #156]	@ (80021f0 <SystemInit+0xe0>)
 8002152:	2200      	movs	r2, #0
 8002154:	631a      	str	r2, [r3, #48]	@ 0x30
#endif /* RCC_CR_PLL3ON */

  /* Reset PLL1DIVR register */
  RCC->PLL1DIVR = 0x01010280U;
 8002156:	4b26      	ldr	r3, [pc, #152]	@ (80021f0 <SystemInit+0xe0>)
 8002158:	4a27      	ldr	r2, [pc, #156]	@ (80021f8 <SystemInit+0xe8>)
 800215a:	635a      	str	r2, [r3, #52]	@ 0x34
  /* Reset PLL1FRACR register */
  RCC->PLL1FRACR = 0x00000000U;
 800215c:	4b24      	ldr	r3, [pc, #144]	@ (80021f0 <SystemInit+0xe0>)
 800215e:	2200      	movs	r2, #0
 8002160:	639a      	str	r2, [r3, #56]	@ 0x38
  /* Reset PLL2DIVR register */
  RCC->PLL2DIVR = 0x01010280U;
 8002162:	4b23      	ldr	r3, [pc, #140]	@ (80021f0 <SystemInit+0xe0>)
 8002164:	4a24      	ldr	r2, [pc, #144]	@ (80021f8 <SystemInit+0xe8>)
 8002166:	63da      	str	r2, [r3, #60]	@ 0x3c
  /* Reset PLL2FRACR register */
  RCC->PLL2FRACR = 0x00000000U;
 8002168:	4b21      	ldr	r3, [pc, #132]	@ (80021f0 <SystemInit+0xe0>)
 800216a:	2200      	movs	r2, #0
 800216c:	641a      	str	r2, [r3, #64]	@ 0x40
#if defined(RCC_CR_PLL3ON)
  /* Reset PLL3DIVR register */
  RCC->PLL3DIVR = 0x01010280U;
 800216e:	4b20      	ldr	r3, [pc, #128]	@ (80021f0 <SystemInit+0xe0>)
 8002170:	4a21      	ldr	r2, [pc, #132]	@ (80021f8 <SystemInit+0xe8>)
 8002172:	645a      	str	r2, [r3, #68]	@ 0x44
  /* Reset PLL3FRACR register */
  RCC->PLL3FRACR = 0x00000000U;
 8002174:	4b1e      	ldr	r3, [pc, #120]	@ (80021f0 <SystemInit+0xe0>)
 8002176:	2200      	movs	r2, #0
 8002178:	649a      	str	r2, [r3, #72]	@ 0x48
#endif /* RCC_CR_PLL3ON */

  /* Reset HSEBYP bit */
  RCC->CR &= ~(RCC_CR_HSEBYP);
 800217a:	4b1d      	ldr	r3, [pc, #116]	@ (80021f0 <SystemInit+0xe0>)
 800217c:	681b      	ldr	r3, [r3, #0]
 800217e:	4a1c      	ldr	r2, [pc, #112]	@ (80021f0 <SystemInit+0xe0>)
 8002180:	f423 2380 	bic.w	r3, r3, #262144	@ 0x40000
 8002184:	6013      	str	r3, [r2, #0]

  /* Disable all interrupts */
  RCC->CIER = 0U;
 8002186:	4b1a      	ldr	r3, [pc, #104]	@ (80021f0 <SystemInit+0xe0>)
 8002188:	2200      	movs	r2, #0
 800218a:	651a      	str	r2, [r3, #80]	@ 0x50

  /* Configure the Vector Table location add offset address ------------------*/
  #ifdef VECT_TAB_SRAM
    SCB->VTOR = SRAM1_BASE | VECT_TAB_OFFSET; /* Vector Table Relocation in Internal SRAM */
  #else
    SCB->VTOR = FLASH_BASE | VECT_TAB_OFFSET; /* Vector Table Relocation in Internal FLASH */
 800218c:	4b17      	ldr	r3, [pc, #92]	@ (80021ec <SystemInit+0xdc>)
 800218e:	f04f 6200 	mov.w	r2, #134217728	@ 0x8000000
 8002192:	609a      	str	r2, [r3, #8]
  #endif /* VECT_TAB_SRAM */

  /* Check OPSR register to verify if there is an ongoing swap or option bytes update interrupted by a reset */
  reg_opsr = FLASH->OPSR & FLASH_OPSR_CODE_OP;
 8002194:	4b19      	ldr	r3, [pc, #100]	@ (80021fc <SystemInit+0xec>)
 8002196:	699b      	ldr	r3, [r3, #24]
 8002198:	f003 4360 	and.w	r3, r3, #3758096384	@ 0xe0000000
 800219c:	607b      	str	r3, [r7, #4]
  if ((reg_opsr == FLASH_OPSR_CODE_OP) || (reg_opsr == (FLASH_OPSR_CODE_OP_2 | FLASH_OPSR_CODE_OP_1)))
 800219e:	687b      	ldr	r3, [r7, #4]
 80021a0:	f1b3 4f60 	cmp.w	r3, #3758096384	@ 0xe0000000
 80021a4:	d003      	beq.n	80021ae <SystemInit+0x9e>
 80021a6:	687b      	ldr	r3, [r7, #4]
 80021a8:	f1b3 4f40 	cmp.w	r3, #3221225472	@ 0xc0000000
 80021ac:	d117      	bne.n	80021de <SystemInit+0xce>
  {
    /* Check FLASH Option Control Register access */
    if ((FLASH->OPTCR & FLASH_OPTCR_OPTLOCK) != 0U)
 80021ae:	4b13      	ldr	r3, [pc, #76]	@ (80021fc <SystemInit+0xec>)
 80021b0:	69db      	ldr	r3, [r3, #28]
 80021b2:	f003 0301 	and.w	r3, r3, #1
 80021b6:	2b00      	cmp	r3, #0
 80021b8:	d005      	beq.n	80021c6 <SystemInit+0xb6>
    {
      /* Authorizes the Option Byte registers programming */
      FLASH->OPTKEYR = 0x08192A3BU;
 80021ba:	4b10      	ldr	r3, [pc, #64]	@ (80021fc <SystemInit+0xec>)
 80021bc:	4a10      	ldr	r2, [pc, #64]	@ (8002200 <SystemInit+0xf0>)
 80021be:	60da      	str	r2, [r3, #12]
      FLASH->OPTKEYR = 0x4C5D6E7FU;
 80021c0:	4b0e      	ldr	r3, [pc, #56]	@ (80021fc <SystemInit+0xec>)
 80021c2:	4a10      	ldr	r2, [pc, #64]	@ (8002204 <SystemInit+0xf4>)
 80021c4:	60da      	str	r2, [r3, #12]
    }
    /* Launch the option bytes change operation */
    FLASH->OPTCR |= FLASH_OPTCR_OPTSTART;
 80021c6:	4b0d      	ldr	r3, [pc, #52]	@ (80021fc <SystemInit+0xec>)
 80021c8:	69db      	ldr	r3, [r3, #28]
 80021ca:	4a0c      	ldr	r2, [pc, #48]	@ (80021fc <SystemInit+0xec>)
 80021cc:	f043 0302 	orr.w	r3, r3, #2
 80021d0:	61d3      	str	r3, [r2, #28]

    /* Lock the FLASH Option Control Register access */
    FLASH->OPTCR |= FLASH_OPTCR_OPTLOCK;
 80021d2:	4b0a      	ldr	r3, [pc, #40]	@ (80021fc <SystemInit+0xec>)
 80021d4:	69db      	ldr	r3, [r3, #28]
 80021d6:	4a09      	ldr	r2, [pc, #36]	@ (80021fc <SystemInit+0xec>)
 80021d8:	f043 0301 	orr.w	r3, r3, #1
 80021dc:	61d3      	str	r3, [r2, #28]
  }
}
 80021de:	bf00      	nop
 80021e0:	370c      	adds	r7, #12
 80021e2:	46bd      	mov	sp, r7
 80021e4:	f85d 7b04 	ldr.w	r7, [sp], #4
 80021e8:	4770      	bx	lr
 80021ea:	bf00      	nop
 80021ec:	e000ed00 	.word	0xe000ed00
 80021f0:	44020c00 	.word	0x44020c00
 80021f4:	eae2eae3 	.word	0xeae2eae3
 80021f8:	01010280 	.word	0x01010280
 80021fc:	40022000 	.word	0x40022000
 8002200:	08192a3b 	.word	0x08192a3b
 8002204:	4c5d6e7f 	.word	0x4c5d6e7f

08002208 <Reset_Handler>:
 8002208:	480d      	ldr	r0, [pc, #52]	@ (8002240 <LoopForever+0x2>)
 800220a:	4685      	mov	sp, r0
 800220c:	f7ff ff80 	bl	8002110 <SystemInit>
 8002210:	480c      	ldr	r0, [pc, #48]	@ (8002244 <LoopForever+0x6>)
 8002212:	490d      	ldr	r1, [pc, #52]	@ (8002248 <LoopForever+0xa>)
 8002214:	4a0d      	ldr	r2, [pc, #52]	@ (800224c <LoopForever+0xe>)
 8002216:	2300      	movs	r3, #0
 8002218:	e002      	b.n	8002220 <LoopCopyDataInit>

0800221a <CopyDataInit>:
 800221a:	58d4      	ldr	r4, [r2, r3]
 800221c:	50c4      	str	r4, [r0, r3]
 800221e:	3304      	adds	r3, #4

08002220 <LoopCopyDataInit>:
 8002220:	18c4      	adds	r4, r0, r3
 8002222:	428c      	cmp	r4, r1
 8002224:	d3f9      	bcc.n	800221a <CopyDataInit>
 8002226:	4a0a      	ldr	r2, [pc, #40]	@ (8002250 <LoopForever+0x12>)
 8002228:	4c0a      	ldr	r4, [pc, #40]	@ (8002254 <LoopForever+0x16>)
 800222a:	2300      	movs	r3, #0
 800222c:	e001      	b.n	8002232 <LoopFillZerobss>

0800222e <FillZerobss>:
 800222e:	6013      	str	r3, [r2, #0]
 8002230:	3204      	adds	r2, #4

08002232 <LoopFillZerobss>:
 8002232:	42a2      	cmp	r2, r4
 8002234:	d3fb      	bcc.n	800222e <FillZerobss>
 8002236:	f002 fbd1 	bl	80049dc <__libc_init_array>
 800223a:	f7ff f9ed 	bl	8001618 <main>

0800223e <LoopForever>:
 800223e:	e7fe      	b.n	800223e <LoopForever>
 8002240:	20044000 	.word	0x20044000
 8002244:	20000000 	.word	0x20000000
 8002248:	200001cc 	.word	0x200001cc
 800224c:	0800724c 	.word	0x0800724c
 8002250:	200001cc 	.word	0x200001cc
 8002254:	200014b8 	.word	0x200014b8

08002258 <ADC1_IRQHandler>:
 8002258:	e7fe      	b.n	8002258 <ADC1_IRQHandler>

0800225a <LL_ADC_REG_SetSequencerLength>:
{
 800225a:	b480      	push	{r7}
 800225c:	b083      	sub	sp, #12
 800225e:	af00      	add	r7, sp, #0
 8002260:	6078      	str	r0, [r7, #4]
 8002262:	6039      	str	r1, [r7, #0]
  MODIFY_REG(ADCx->SQR1, ADC_SQR1_L, SequencerNbRanks);
 8002264:	687b      	ldr	r3, [r7, #4]
 8002266:	6b1b      	ldr	r3, [r3, #48]	@ 0x30
 8002268:	f023 020f 	bic.w	r2, r3, #15
 800226c:	683b      	ldr	r3, [r7, #0]
 800226e:	431a      	orrs	r2, r3
 8002270:	687b      	ldr	r3, [r7, #4]
 8002272:	631a      	str	r2, [r3, #48]	@ 0x30
}
 8002274:	bf00      	nop
 8002276:	370c      	adds	r7, #12
 8002278:	46bd      	mov	sp, r7
 800227a:	f85d 7b04 	ldr.w	r7, [sp], #4
 800227e:	4770      	bx	lr

08002280 <LL_ADC_IsEnabled>:
  * @rmtoll CR       ADEN           LL_ADC_IsEnabled
  * @param  ADCx ADC instance
  * @retval 0: ADC is disabled, 1: ADC is enabled.
  */
__STATIC_INLINE uint32_t LL_ADC_IsEnabled(const ADC_TypeDef *ADCx)
{
 8002280:	b480      	push	{r7}
 8002282:	b083      	sub	sp, #12
 8002284:	af00      	add	r7, sp, #0
 8002286:	6078      	str	r0, [r7, #4]
  return ((READ_BIT(ADCx->CR, ADC_CR_ADEN) == (ADC_CR_ADEN)) ? 1UL : 0UL);
 8002288:	687b      	ldr	r3, [r7, #4]
 800228a:	689b      	ldr	r3, [r3, #8]
 800228c:	f003 0301 	and.w	r3, r3, #1
 8002290:	2b01      	cmp	r3, #1
 8002292:	d101      	bne.n	8002298 <LL_ADC_IsEnabled+0x18>
 8002294:	2301      	movs	r3, #1
 8002296:	e000      	b.n	800229a <LL_ADC_IsEnabled+0x1a>
 8002298:	2300      	movs	r3, #0
}
 800229a:	4618      	mov	r0, r3
 800229c:	370c      	adds	r7, #12
 800229e:	46bd      	mov	sp, r7
 80022a0:	f85d 7b04 	ldr.w	r7, [sp], #4
 80022a4:	4770      	bx	lr
	...

080022a8 <LL_ADC_CommonInit>:
  * @retval An ErrorStatus enumeration value:
  *          - SUCCESS: ADC common registers are initialized
  *          - ERROR: ADC common registers are not initialized
  */
ErrorStatus LL_ADC_CommonInit(ADC_Common_TypeDef *ADCxy_COMMON, const LL_ADC_CommonInitTypeDef *pADC_CommonInitStruct)
{
 80022a8:	b590      	push	{r4, r7, lr}
 80022aa:	b085      	sub	sp, #20
 80022ac:	af00      	add	r7, sp, #0
 80022ae:	6078      	str	r0, [r7, #4]
 80022b0:	6039      	str	r1, [r7, #0]
  ErrorStatus status = SUCCESS;
 80022b2:	2300      	movs	r3, #0
 80022b4:	73fb      	strb	r3, [r7, #15]
  /* Note: Hardware constraint (refer to description of functions             */
  /*       "LL_ADC_SetCommonXXX()" and "LL_ADC_SetMultiXXX()"):               */
  /*       On this STM32 series, setting of these features is conditioned to  */
  /*       ADC state:                                                         */
  /*       All ADC instances of the ADC common group must be disabled.        */
  if (__LL_ADC_IS_ENABLED_ALL_COMMON_INSTANCE(ADCxy_COMMON) == 0UL)
 80022b6:	4819      	ldr	r0, [pc, #100]	@ (800231c <LL_ADC_CommonInit+0x74>)
 80022b8:	f7ff ffe2 	bl	8002280 <LL_ADC_IsEnabled>
 80022bc:	4604      	mov	r4, r0
 80022be:	4818      	ldr	r0, [pc, #96]	@ (8002320 <LL_ADC_CommonInit+0x78>)
 80022c0:	f7ff ffde 	bl	8002280 <LL_ADC_IsEnabled>
 80022c4:	4603      	mov	r3, r0
 80022c6:	4323      	orrs	r3, r4
 80022c8:	2b00      	cmp	r3, #0
 80022ca:	d120      	bne.n	800230e <LL_ADC_CommonInit+0x66>
    /*    selected device)                                                    */
    /*    - Set ADC multimode configuration                                   */
    /*    - Set ADC multimode DMA transfer                                    */
    /*    - Set ADC multimode: delay between 2 sampling phases                */
#if defined(ADC_MULTIMODE_SUPPORT)
    if (pADC_CommonInitStruct->Multimode != LL_ADC_MULTI_INDEPENDENT)
 80022cc:	683b      	ldr	r3, [r7, #0]
 80022ce:	685b      	ldr	r3, [r3, #4]
 80022d0:	2b00      	cmp	r3, #0
 80022d2:	d012      	beq.n	80022fa <LL_ADC_CommonInit+0x52>
    {
      MODIFY_REG(ADCxy_COMMON->CCR,
 80022d4:	687b      	ldr	r3, [r7, #4]
 80022d6:	689a      	ldr	r2, [r3, #8]
 80022d8:	4b12      	ldr	r3, [pc, #72]	@ (8002324 <LL_ADC_CommonInit+0x7c>)
 80022da:	4013      	ands	r3, r2
 80022dc:	683a      	ldr	r2, [r7, #0]
 80022de:	6811      	ldr	r1, [r2, #0]
 80022e0:	683a      	ldr	r2, [r7, #0]
 80022e2:	6852      	ldr	r2, [r2, #4]
 80022e4:	4311      	orrs	r1, r2
 80022e6:	683a      	ldr	r2, [r7, #0]
 80022e8:	6892      	ldr	r2, [r2, #8]
 80022ea:	4311      	orrs	r1, r2
 80022ec:	683a      	ldr	r2, [r7, #0]
 80022ee:	68d2      	ldr	r2, [r2, #12]
 80022f0:	430a      	orrs	r2, r1
 80022f2:	431a      	orrs	r2, r3
 80022f4:	687b      	ldr	r3, [r7, #4]
 80022f6:	609a      	str	r2, [r3, #8]
 80022f8:	e00b      	b.n	8002312 <LL_ADC_CommonInit+0x6a>
                 | pADC_CommonInitStruct->MultiTwoSamplingDelay
                );
    }
    else
    {
      MODIFY_REG(ADCxy_COMMON->CCR,
 80022fa:	687b      	ldr	r3, [r7, #4]
 80022fc:	689a      	ldr	r2, [r3, #8]
 80022fe:	4b09      	ldr	r3, [pc, #36]	@ (8002324 <LL_ADC_CommonInit+0x7c>)
 8002300:	4013      	ands	r3, r2
 8002302:	683a      	ldr	r2, [r7, #0]
 8002304:	6812      	ldr	r2, [r2, #0]
 8002306:	431a      	orrs	r2, r3
 8002308:	687b      	ldr	r3, [r7, #4]
 800230a:	609a      	str	r2, [r3, #8]
 800230c:	e001      	b.n	8002312 <LL_ADC_CommonInit+0x6a>
  }
  else
  {
    /* Initialization error: One or several ADC instances belonging to        */
    /* the same ADC common instance are not disabled.                         */
    status = ERROR;
 800230e:	2301      	movs	r3, #1
 8002310:	73fb      	strb	r3, [r7, #15]
  }

  return status;
 8002312:	7bfb      	ldrb	r3, [r7, #15]
}
 8002314:	4618      	mov	r0, r3
 8002316:	3714      	adds	r7, #20
 8002318:	46bd      	mov	sp, r7
 800231a:	bd90      	pop	{r4, r7, pc}
 800231c:	42028000 	.word	0x42028000
 8002320:	42028100 	.word	0x42028100
 8002324:	ffc030e0 	.word	0xffc030e0

08002328 <LL_ADC_Init>:
  * @retval An ErrorStatus enumeration value:
  *          - SUCCESS: ADC registers are initialized
  *          - ERROR: ADC registers are not initialized
  */
ErrorStatus LL_ADC_Init(ADC_TypeDef *ADCx, const LL_ADC_InitTypeDef *pADC_InitStruct)
{
 8002328:	b580      	push	{r7, lr}
 800232a:	b084      	sub	sp, #16
 800232c:	af00      	add	r7, sp, #0
 800232e:	6078      	str	r0, [r7, #4]
 8002330:	6039      	str	r1, [r7, #0]
  ErrorStatus status = SUCCESS;
 8002332:	2300      	movs	r3, #0
 8002334:	73fb      	strb	r3, [r7, #15]
  assert_param(IS_LL_ADC_DATA_ALIGN(pADC_InitStruct->DataAlignment));
  assert_param(IS_LL_ADC_LOW_POWER(pADC_InitStruct->LowPowerMode));

  /* Note: Hardware constraint (refer to description of this function):       */
  /*       ADC instance must be disabled.                                     */
  if (LL_ADC_IsEnabled(ADCx) == 0UL)
 8002336:	6878      	ldr	r0, [r7, #4]
 8002338:	f7ff ffa2 	bl	8002280 <LL_ADC_IsEnabled>
 800233c:	4603      	mov	r3, r0
 800233e:	2b00      	cmp	r3, #0
 8002340:	d111      	bne.n	8002366 <LL_ADC_Init+0x3e>
    /* Configuration of ADC hierarchical scope:                               */
    /*  - ADC instance                                                        */
    /*    - Set ADC data resolution                                           */
    /*    - Set ADC conversion data alignment                                 */
    /*    - Set ADC low power mode                                            */
    MODIFY_REG(ADCx->CFGR,
 8002342:	687b      	ldr	r3, [r7, #4]
 8002344:	68db      	ldr	r3, [r3, #12]
 8002346:	f423 4340 	bic.w	r3, r3, #49152	@ 0xc000
 800234a:	f023 0318 	bic.w	r3, r3, #24
 800234e:	683a      	ldr	r2, [r7, #0]
 8002350:	6811      	ldr	r1, [r2, #0]
 8002352:	683a      	ldr	r2, [r7, #0]
 8002354:	6852      	ldr	r2, [r2, #4]
 8002356:	4311      	orrs	r1, r2
 8002358:	683a      	ldr	r2, [r7, #0]
 800235a:	6892      	ldr	r2, [r2, #8]
 800235c:	430a      	orrs	r2, r1
 800235e:	431a      	orrs	r2, r3
 8002360:	687b      	ldr	r3, [r7, #4]
 8002362:	60da      	str	r2, [r3, #12]
 8002364:	e001      	b.n	800236a <LL_ADC_Init+0x42>

  }
  else
  {
    /* Initialization error: ADC instance is not disabled. */
    status = ERROR;
 8002366:	2301      	movs	r3, #1
 8002368:	73fb      	strb	r3, [r7, #15]
  }

  return status;
 800236a:	7bfb      	ldrb	r3, [r7, #15]
}
 800236c:	4618      	mov	r0, r3
 800236e:	3710      	adds	r7, #16
 8002370:	46bd      	mov	sp, r7
 8002372:	bd80      	pop	{r7, pc}

08002374 <LL_ADC_REG_Init>:
  * @retval An ErrorStatus enumeration value:
  *          - SUCCESS: ADC registers are initialized
  *          - ERROR: ADC registers are not initialized
  */
ErrorStatus LL_ADC_REG_Init(ADC_TypeDef *ADCx, const LL_ADC_REG_InitTypeDef *pADC_RegInitStruct)
{
 8002374:	b580      	push	{r7, lr}
 8002376:	b084      	sub	sp, #16
 8002378:	af00      	add	r7, sp, #0
 800237a:	6078      	str	r0, [r7, #4]
 800237c:	6039      	str	r1, [r7, #0]
  ErrorStatus status = SUCCESS;
 800237e:	2300      	movs	r3, #0
 8002380:	73fb      	strb	r3, [r7, #15]
  assert_param(IS_LL_ADC_REG_DMA_TRANSFER(pADC_RegInitStruct->DMATransfer));
  assert_param(IS_LL_ADC_REG_OVR_DATA_BEHAVIOR(pADC_RegInitStruct->Overrun));

  /* Note: Hardware constraint (refer to description of this function):       */
  /*       ADC instance must be disabled.                                     */
  if (LL_ADC_IsEnabled(ADCx) == 0UL)
 8002382:	6878      	ldr	r0, [r7, #4]
 8002384:	f7ff ff7c 	bl	8002280 <LL_ADC_IsEnabled>
 8002388:	4603      	mov	r3, r0
 800238a:	2b00      	cmp	r3, #0
 800238c:	d132      	bne.n	80023f4 <LL_ADC_REG_Init+0x80>
    /*    - Set ADC group regular conversion data transfer: no transfer or    */
    /*      transfer by DMA, and DMA requests mode                            */
    /*    - Set ADC group regular overrun behavior                            */
    /* Note: On this STM32 series, ADC trigger edge is set to value 0x0 by    */
    /*       setting of trigger source to SW start.                           */
    if (pADC_RegInitStruct->SequencerLength != LL_ADC_REG_SEQ_SCAN_DISABLE)
 800238e:	683b      	ldr	r3, [r7, #0]
 8002390:	685b      	ldr	r3, [r3, #4]
 8002392:	2b00      	cmp	r3, #0
 8002394:	d015      	beq.n	80023c2 <LL_ADC_REG_Init+0x4e>
    {
      MODIFY_REG(ADCx->CFGR,
 8002396:	687b      	ldr	r3, [r7, #4]
 8002398:	68da      	ldr	r2, [r3, #12]
 800239a:	4b1a      	ldr	r3, [pc, #104]	@ (8002404 <LL_ADC_REG_Init+0x90>)
 800239c:	4013      	ands	r3, r2
 800239e:	683a      	ldr	r2, [r7, #0]
 80023a0:	6811      	ldr	r1, [r2, #0]
 80023a2:	683a      	ldr	r2, [r7, #0]
 80023a4:	6892      	ldr	r2, [r2, #8]
 80023a6:	4311      	orrs	r1, r2
 80023a8:	683a      	ldr	r2, [r7, #0]
 80023aa:	68d2      	ldr	r2, [r2, #12]
 80023ac:	4311      	orrs	r1, r2
 80023ae:	683a      	ldr	r2, [r7, #0]
 80023b0:	6912      	ldr	r2, [r2, #16]
 80023b2:	4311      	orrs	r1, r2
 80023b4:	683a      	ldr	r2, [r7, #0]
 80023b6:	6952      	ldr	r2, [r2, #20]
 80023b8:	430a      	orrs	r2, r1
 80023ba:	431a      	orrs	r2, r3
 80023bc:	687b      	ldr	r3, [r7, #4]
 80023be:	60da      	str	r2, [r3, #12]
 80023c0:	e011      	b.n	80023e6 <LL_ADC_REG_Init+0x72>
                 | pADC_RegInitStruct->Overrun
                );
    }
    else
    {
      MODIFY_REG(ADCx->CFGR,
 80023c2:	687b      	ldr	r3, [r7, #4]
 80023c4:	68da      	ldr	r2, [r3, #12]
 80023c6:	4b0f      	ldr	r3, [pc, #60]	@ (8002404 <LL_ADC_REG_Init+0x90>)
 80023c8:	4013      	ands	r3, r2
 80023ca:	683a      	ldr	r2, [r7, #0]
 80023cc:	6811      	ldr	r1, [r2, #0]
 80023ce:	683a      	ldr	r2, [r7, #0]
 80023d0:	68d2      	ldr	r2, [r2, #12]
 80023d2:	4311      	orrs	r1, r2
 80023d4:	683a      	ldr	r2, [r7, #0]
 80023d6:	6912      	ldr	r2, [r2, #16]
 80023d8:	4311      	orrs	r1, r2
 80023da:	683a      	ldr	r2, [r7, #0]
 80023dc:	6952      	ldr	r2, [r2, #20]
 80023de:	430a      	orrs	r2, r1
 80023e0:	431a      	orrs	r2, r3
 80023e2:	687b      	ldr	r3, [r7, #4]
 80023e4:	60da      	str	r2, [r3, #12]
                 | pADC_RegInitStruct->Overrun
                );
    }

    /* Set ADC group regular sequencer length and scan direction */
    LL_ADC_REG_SetSequencerLength(ADCx, pADC_RegInitStruct->SequencerLength);
 80023e6:	683b      	ldr	r3, [r7, #0]
 80023e8:	685b      	ldr	r3, [r3, #4]
 80023ea:	4619      	mov	r1, r3
 80023ec:	6878      	ldr	r0, [r7, #4]
 80023ee:	f7ff ff34 	bl	800225a <LL_ADC_REG_SetSequencerLength>
 80023f2:	e001      	b.n	80023f8 <LL_ADC_REG_Init+0x84>
  }
  else
  {
    /* Initialization error: ADC instance is not disabled. */
    status = ERROR;
 80023f4:	2301      	movs	r3, #1
 80023f6:	73fb      	strb	r3, [r7, #15]
  }
  return status;
 80023f8:	7bfb      	ldrb	r3, [r7, #15]
}
 80023fa:	4618      	mov	r0, r3
 80023fc:	3710      	adds	r7, #16
 80023fe:	46bd      	mov	sp, r7
 8002400:	bd80      	pop	{r7, pc}
 8002402:	bf00      	nop
 8002404:	fff0c01c 	.word	0xfff0c01c

08002408 <LL_EXTI_EnableIT_0_31>:
{
 8002408:	b480      	push	{r7}
 800240a:	b083      	sub	sp, #12
 800240c:	af00      	add	r7, sp, #0
 800240e:	6078      	str	r0, [r7, #4]
  SET_BIT(EXTI->IMR1, ExtiLine);
 8002410:	4b06      	ldr	r3, [pc, #24]	@ (800242c <LL_EXTI_EnableIT_0_31+0x24>)
 8002412:	f8d3 2080 	ldr.w	r2, [r3, #128]	@ 0x80
 8002416:	4905      	ldr	r1, [pc, #20]	@ (800242c <LL_EXTI_EnableIT_0_31+0x24>)
 8002418:	687b      	ldr	r3, [r7, #4]
 800241a:	4313      	orrs	r3, r2
 800241c:	f8c1 3080 	str.w	r3, [r1, #128]	@ 0x80
}
 8002420:	bf00      	nop
 8002422:	370c      	adds	r7, #12
 8002424:	46bd      	mov	sp, r7
 8002426:	f85d 7b04 	ldr.w	r7, [sp], #4
 800242a:	4770      	bx	lr
 800242c:	44022000 	.word	0x44022000

08002430 <LL_EXTI_EnableIT_32_63>:
{
 8002430:	b480      	push	{r7}
 8002432:	b083      	sub	sp, #12
 8002434:	af00      	add	r7, sp, #0
 8002436:	6078      	str	r0, [r7, #4]
  SET_BIT(EXTI->IMR2, ExtiLine);
 8002438:	4b06      	ldr	r3, [pc, #24]	@ (8002454 <LL_EXTI_EnableIT_32_63+0x24>)
 800243a:	f8d3 2090 	ldr.w	r2, [r3, #144]	@ 0x90
 800243e:	4905      	ldr	r1, [pc, #20]	@ (8002454 <LL_EXTI_EnableIT_32_63+0x24>)
 8002440:	687b      	ldr	r3, [r7, #4]
 8002442:	4313      	orrs	r3, r2
 8002444:	f8c1 3090 	str.w	r3, [r1, #144]	@ 0x90
}
 8002448:	bf00      	nop
 800244a:	370c      	adds	r7, #12
 800244c:	46bd      	mov	sp, r7
 800244e:	f85d 7b04 	ldr.w	r7, [sp], #4
 8002452:	4770      	bx	lr
 8002454:	44022000 	.word	0x44022000

08002458 <LL_EXTI_DisableIT_0_31>:
{
 8002458:	b480      	push	{r7}
 800245a:	b083      	sub	sp, #12
 800245c:	af00      	add	r7, sp, #0
 800245e:	6078      	str	r0, [r7, #4]
  CLEAR_BIT(EXTI->IMR1, ExtiLine);
 8002460:	4b07      	ldr	r3, [pc, #28]	@ (8002480 <LL_EXTI_DisableIT_0_31+0x28>)
 8002462:	f8d3 2080 	ldr.w	r2, [r3, #128]	@ 0x80
 8002466:	687b      	ldr	r3, [r7, #4]
 8002468:	43db      	mvns	r3, r3
 800246a:	4905      	ldr	r1, [pc, #20]	@ (8002480 <LL_EXTI_DisableIT_0_31+0x28>)
 800246c:	4013      	ands	r3, r2
 800246e:	f8c1 3080 	str.w	r3, [r1, #128]	@ 0x80
}
 8002472:	bf00      	nop
 8002474:	370c      	adds	r7, #12
 8002476:	46bd      	mov	sp, r7
 8002478:	f85d 7b04 	ldr.w	r7, [sp], #4
 800247c:	4770      	bx	lr
 800247e:	bf00      	nop
 8002480:	44022000 	.word	0x44022000

08002484 <LL_EXTI_DisableIT_32_63>:
{
 8002484:	b480      	push	{r7}
 8002486:	b083      	sub	sp, #12
 8002488:	af00      	add	r7, sp, #0
 800248a:	6078      	str	r0, [r7, #4]
  CLEAR_BIT(EXTI->IMR2, ExtiLine);
 800248c:	4b07      	ldr	r3, [pc, #28]	@ (80024ac <LL_EXTI_DisableIT_32_63+0x28>)
 800248e:	f8d3 2090 	ldr.w	r2, [r3, #144]	@ 0x90
 8002492:	687b      	ldr	r3, [r7, #4]
 8002494:	43db      	mvns	r3, r3
 8002496:	4905      	ldr	r1, [pc, #20]	@ (80024ac <LL_EXTI_DisableIT_32_63+0x28>)
 8002498:	4013      	ands	r3, r2
 800249a:	f8c1 3090 	str.w	r3, [r1, #144]	@ 0x90
}
 800249e:	bf00      	nop
 80024a0:	370c      	adds	r7, #12
 80024a2:	46bd      	mov	sp, r7
 80024a4:	f85d 7b04 	ldr.w	r7, [sp], #4
 80024a8:	4770      	bx	lr
 80024aa:	bf00      	nop
 80024ac:	44022000 	.word	0x44022000

080024b0 <LL_EXTI_EnableEvent_0_31>:
{
 80024b0:	b480      	push	{r7}
 80024b2:	b083      	sub	sp, #12
 80024b4:	af00      	add	r7, sp, #0
 80024b6:	6078      	str	r0, [r7, #4]
  SET_BIT(EXTI->EMR1, ExtiLine);
 80024b8:	4b06      	ldr	r3, [pc, #24]	@ (80024d4 <LL_EXTI_EnableEvent_0_31+0x24>)
 80024ba:	f8d3 2084 	ldr.w	r2, [r3, #132]	@ 0x84
 80024be:	4905      	ldr	r1, [pc, #20]	@ (80024d4 <LL_EXTI_EnableEvent_0_31+0x24>)
 80024c0:	687b      	ldr	r3, [r7, #4]
 80024c2:	4313      	orrs	r3, r2
 80024c4:	f8c1 3084 	str.w	r3, [r1, #132]	@ 0x84
}
 80024c8:	bf00      	nop
 80024ca:	370c      	adds	r7, #12
 80024cc:	46bd      	mov	sp, r7
 80024ce:	f85d 7b04 	ldr.w	r7, [sp], #4
 80024d2:	4770      	bx	lr
 80024d4:	44022000 	.word	0x44022000

080024d8 <LL_EXTI_EnableEvent_32_63>:
{
 80024d8:	b480      	push	{r7}
 80024da:	b083      	sub	sp, #12
 80024dc:	af00      	add	r7, sp, #0
 80024de:	6078      	str	r0, [r7, #4]
  SET_BIT(EXTI->EMR2, ExtiLine);
 80024e0:	4b06      	ldr	r3, [pc, #24]	@ (80024fc <LL_EXTI_EnableEvent_32_63+0x24>)
 80024e2:	f8d3 2094 	ldr.w	r2, [r3, #148]	@ 0x94
 80024e6:	4905      	ldr	r1, [pc, #20]	@ (80024fc <LL_EXTI_EnableEvent_32_63+0x24>)
 80024e8:	687b      	ldr	r3, [r7, #4]
 80024ea:	4313      	orrs	r3, r2
 80024ec:	f8c1 3094 	str.w	r3, [r1, #148]	@ 0x94
}
 80024f0:	bf00      	nop
 80024f2:	370c      	adds	r7, #12
 80024f4:	46bd      	mov	sp, r7
 80024f6:	f85d 7b04 	ldr.w	r7, [sp], #4
 80024fa:	4770      	bx	lr
 80024fc:	44022000 	.word	0x44022000

08002500 <LL_EXTI_DisableEvent_0_31>:
{
 8002500:	b480      	push	{r7}
 8002502:	b083      	sub	sp, #12
 8002504:	af00      	add	r7, sp, #0
 8002506:	6078      	str	r0, [r7, #4]
  CLEAR_BIT(EXTI->EMR1, ExtiLine);
 8002508:	4b07      	ldr	r3, [pc, #28]	@ (8002528 <LL_EXTI_DisableEvent_0_31+0x28>)
 800250a:	f8d3 2084 	ldr.w	r2, [r3, #132]	@ 0x84
 800250e:	687b      	ldr	r3, [r7, #4]
 8002510:	43db      	mvns	r3, r3
 8002512:	4905      	ldr	r1, [pc, #20]	@ (8002528 <LL_EXTI_DisableEvent_0_31+0x28>)
 8002514:	4013      	ands	r3, r2
 8002516:	f8c1 3084 	str.w	r3, [r1, #132]	@ 0x84
}
 800251a:	bf00      	nop
 800251c:	370c      	adds	r7, #12
 800251e:	46bd      	mov	sp, r7
 8002520:	f85d 7b04 	ldr.w	r7, [sp], #4
 8002524:	4770      	bx	lr
 8002526:	bf00      	nop
 8002528:	44022000 	.word	0x44022000

0800252c <LL_EXTI_DisableEvent_32_63>:
{
 800252c:	b480      	push	{r7}
 800252e:	b083      	sub	sp, #12
 8002530:	af00      	add	r7, sp, #0
 8002532:	6078      	str	r0, [r7, #4]
  CLEAR_BIT(EXTI->EMR2, ExtiLine);
 8002534:	4b07      	ldr	r3, [pc, #28]	@ (8002554 <LL_EXTI_DisableEvent_32_63+0x28>)
 8002536:	f8d3 2094 	ldr.w	r2, [r3, #148]	@ 0x94
 800253a:	687b      	ldr	r3, [r7, #4]
 800253c:	43db      	mvns	r3, r3
 800253e:	4905      	ldr	r1, [pc, #20]	@ (8002554 <LL_EXTI_DisableEvent_32_63+0x28>)
 8002540:	4013      	ands	r3, r2
 8002542:	f8c1 3094 	str.w	r3, [r1, #148]	@ 0x94
}
 8002546:	bf00      	nop
 8002548:	370c      	adds	r7, #12
 800254a:	46bd      	mov	sp, r7
 800254c:	f85d 7b04 	ldr.w	r7, [sp], #4
 8002550:	4770      	bx	lr
 8002552:	bf00      	nop
 8002554:	44022000 	.word	0x44022000

08002558 <LL_EXTI_EnableRisingTrig_0_31>:
{
 8002558:	b480      	push	{r7}
 800255a:	b083      	sub	sp, #12
 800255c:	af00      	add	r7, sp, #0
 800255e:	6078      	str	r0, [r7, #4]
  SET_BIT(EXTI->RTSR1, ExtiLine);
 8002560:	4b05      	ldr	r3, [pc, #20]	@ (8002578 <LL_EXTI_EnableRisingTrig_0_31+0x20>)
 8002562:	681a      	ldr	r2, [r3, #0]
 8002564:	4904      	ldr	r1, [pc, #16]	@ (8002578 <LL_EXTI_EnableRisingTrig_0_31+0x20>)
 8002566:	687b      	ldr	r3, [r7, #4]
 8002568:	4313      	orrs	r3, r2
 800256a:	600b      	str	r3, [r1, #0]
}
 800256c:	bf00      	nop
 800256e:	370c      	adds	r7, #12
 8002570:	46bd      	mov	sp, r7
 8002572:	f85d 7b04 	ldr.w	r7, [sp], #4
 8002576:	4770      	bx	lr
 8002578:	44022000 	.word	0x44022000

0800257c <LL_EXTI_EnableRisingTrig_32_63>:
{
 800257c:	b480      	push	{r7}
 800257e:	b083      	sub	sp, #12
 8002580:	af00      	add	r7, sp, #0
 8002582:	6078      	str	r0, [r7, #4]
  SET_BIT(EXTI->RTSR2, ExtiLine);
 8002584:	4b05      	ldr	r3, [pc, #20]	@ (800259c <LL_EXTI_EnableRisingTrig_32_63+0x20>)
 8002586:	6a1a      	ldr	r2, [r3, #32]
 8002588:	4904      	ldr	r1, [pc, #16]	@ (800259c <LL_EXTI_EnableRisingTrig_32_63+0x20>)
 800258a:	687b      	ldr	r3, [r7, #4]
 800258c:	4313      	orrs	r3, r2
 800258e:	620b      	str	r3, [r1, #32]
}
 8002590:	bf00      	nop
 8002592:	370c      	adds	r7, #12
 8002594:	46bd      	mov	sp, r7
 8002596:	f85d 7b04 	ldr.w	r7, [sp], #4
 800259a:	4770      	bx	lr
 800259c:	44022000 	.word	0x44022000

080025a0 <LL_EXTI_DisableRisingTrig_0_31>:
{
 80025a0:	b480      	push	{r7}
 80025a2:	b083      	sub	sp, #12
 80025a4:	af00      	add	r7, sp, #0
 80025a6:	6078      	str	r0, [r7, #4]
  CLEAR_BIT(EXTI->RTSR1, ExtiLine);
 80025a8:	4b06      	ldr	r3, [pc, #24]	@ (80025c4 <LL_EXTI_DisableRisingTrig_0_31+0x24>)
 80025aa:	681a      	ldr	r2, [r3, #0]
 80025ac:	687b      	ldr	r3, [r7, #4]
 80025ae:	43db      	mvns	r3, r3
 80025b0:	4904      	ldr	r1, [pc, #16]	@ (80025c4 <LL_EXTI_DisableRisingTrig_0_31+0x24>)
 80025b2:	4013      	ands	r3, r2
 80025b4:	600b      	str	r3, [r1, #0]
}
 80025b6:	bf00      	nop
 80025b8:	370c      	adds	r7, #12
 80025ba:	46bd      	mov	sp, r7
 80025bc:	f85d 7b04 	ldr.w	r7, [sp], #4
 80025c0:	4770      	bx	lr
 80025c2:	bf00      	nop
 80025c4:	44022000 	.word	0x44022000

080025c8 <LL_EXTI_DisableRisingTrig_32_63>:
{
 80025c8:	b480      	push	{r7}
 80025ca:	b083      	sub	sp, #12
 80025cc:	af00      	add	r7, sp, #0
 80025ce:	6078      	str	r0, [r7, #4]
  CLEAR_BIT(EXTI->RTSR2, ExtiLine);
 80025d0:	4b06      	ldr	r3, [pc, #24]	@ (80025ec <LL_EXTI_DisableRisingTrig_32_63+0x24>)
 80025d2:	6a1a      	ldr	r2, [r3, #32]
 80025d4:	687b      	ldr	r3, [r7, #4]
 80025d6:	43db      	mvns	r3, r3
 80025d8:	4904      	ldr	r1, [pc, #16]	@ (80025ec <LL_EXTI_DisableRisingTrig_32_63+0x24>)
 80025da:	4013      	ands	r3, r2
 80025dc:	620b      	str	r3, [r1, #32]
}
 80025de:	bf00      	nop
 80025e0:	370c      	adds	r7, #12
 80025e2:	46bd      	mov	sp, r7
 80025e4:	f85d 7b04 	ldr.w	r7, [sp], #4
 80025e8:	4770      	bx	lr
 80025ea:	bf00      	nop
 80025ec:	44022000 	.word	0x44022000

080025f0 <LL_EXTI_EnableFallingTrig_0_31>:
{
 80025f0:	b480      	push	{r7}
 80025f2:	b083      	sub	sp, #12
 80025f4:	af00      	add	r7, sp, #0
 80025f6:	6078      	str	r0, [r7, #4]
  SET_BIT(EXTI->FTSR1, ExtiLine);
 80025f8:	4b05      	ldr	r3, [pc, #20]	@ (8002610 <LL_EXTI_EnableFallingTrig_0_31+0x20>)
 80025fa:	685a      	ldr	r2, [r3, #4]
 80025fc:	4904      	ldr	r1, [pc, #16]	@ (8002610 <LL_EXTI_EnableFallingTrig_0_31+0x20>)
 80025fe:	687b      	ldr	r3, [r7, #4]
 8002600:	4313      	orrs	r3, r2
 8002602:	604b      	str	r3, [r1, #4]
}
 8002604:	bf00      	nop
 8002606:	370c      	adds	r7, #12
 8002608:	46bd      	mov	sp, r7
 800260a:	f85d 7b04 	ldr.w	r7, [sp], #4
 800260e:	4770      	bx	lr
 8002610:	44022000 	.word	0x44022000

08002614 <LL_EXTI_EnableFallingTrig_32_63>:
{
 8002614:	b480      	push	{r7}
 8002616:	b083      	sub	sp, #12
 8002618:	af00      	add	r7, sp, #0
 800261a:	6078      	str	r0, [r7, #4]
  SET_BIT(EXTI->FTSR2, ExtiLine);
 800261c:	4b05      	ldr	r3, [pc, #20]	@ (8002634 <LL_EXTI_EnableFallingTrig_32_63+0x20>)
 800261e:	6a5a      	ldr	r2, [r3, #36]	@ 0x24
 8002620:	4904      	ldr	r1, [pc, #16]	@ (8002634 <LL_EXTI_EnableFallingTrig_32_63+0x20>)
 8002622:	687b      	ldr	r3, [r7, #4]
 8002624:	4313      	orrs	r3, r2
 8002626:	624b      	str	r3, [r1, #36]	@ 0x24
}
 8002628:	bf00      	nop
 800262a:	370c      	adds	r7, #12
 800262c:	46bd      	mov	sp, r7
 800262e:	f85d 7b04 	ldr.w	r7, [sp], #4
 8002632:	4770      	bx	lr
 8002634:	44022000 	.word	0x44022000

08002638 <LL_EXTI_DisableFallingTrig_0_31>:
{
 8002638:	b480      	push	{r7}
 800263a:	b083      	sub	sp, #12
 800263c:	af00      	add	r7, sp, #0
 800263e:	6078      	str	r0, [r7, #4]
  CLEAR_BIT(EXTI->FTSR1, ExtiLine);
 8002640:	4b06      	ldr	r3, [pc, #24]	@ (800265c <LL_EXTI_DisableFallingTrig_0_31+0x24>)
 8002642:	685a      	ldr	r2, [r3, #4]
 8002644:	687b      	ldr	r3, [r7, #4]
 8002646:	43db      	mvns	r3, r3
 8002648:	4904      	ldr	r1, [pc, #16]	@ (800265c <LL_EXTI_DisableFallingTrig_0_31+0x24>)
 800264a:	4013      	ands	r3, r2
 800264c:	604b      	str	r3, [r1, #4]
}
 800264e:	bf00      	nop
 8002650:	370c      	adds	r7, #12
 8002652:	46bd      	mov	sp, r7
 8002654:	f85d 7b04 	ldr.w	r7, [sp], #4
 8002658:	4770      	bx	lr
 800265a:	bf00      	nop
 800265c:	44022000 	.word	0x44022000

08002660 <LL_EXTI_DisableFallingTrig_32_63>:
{
 8002660:	b480      	push	{r7}
 8002662:	b083      	sub	sp, #12
 8002664:	af00      	add	r7, sp, #0
 8002666:	6078      	str	r0, [r7, #4]
  CLEAR_BIT(EXTI->FTSR2, ExtiLine);
 8002668:	4b06      	ldr	r3, [pc, #24]	@ (8002684 <LL_EXTI_DisableFallingTrig_32_63+0x24>)
 800266a:	6a5a      	ldr	r2, [r3, #36]	@ 0x24
 800266c:	687b      	ldr	r3, [r7, #4]
 800266e:	43db      	mvns	r3, r3
 8002670:	4904      	ldr	r1, [pc, #16]	@ (8002684 <LL_EXTI_DisableFallingTrig_32_63+0x24>)
 8002672:	4013      	ands	r3, r2
 8002674:	624b      	str	r3, [r1, #36]	@ 0x24
}
 8002676:	bf00      	nop
 8002678:	370c      	adds	r7, #12
 800267a:	46bd      	mov	sp, r7
 800267c:	f85d 7b04 	ldr.w	r7, [sp], #4
 8002680:	4770      	bx	lr
 8002682:	bf00      	nop
 8002684:	44022000 	.word	0x44022000

08002688 <LL_EXTI_Init>:
  * @retval An ErrorStatus enumeration value:
  *          - SUCCESS: EXTI registers are initialized
  *          - ERROR: not applicable
  */
ErrorStatus LL_EXTI_Init(LL_EXTI_InitTypeDef *EXTI_InitStruct)
{
 8002688:	b580      	push	{r7, lr}
 800268a:	b084      	sub	sp, #16
 800268c:	af00      	add	r7, sp, #0
 800268e:	6078      	str	r0, [r7, #4]
  ErrorStatus status = SUCCESS;
 8002690:	2300      	movs	r3, #0
 8002692:	73fb      	strb	r3, [r7, #15]
  assert_param(IS_LL_EXTI_LINE_32_63(EXTI_InitStruct->Line_32_63));
  assert_param(IS_FUNCTIONAL_STATE(EXTI_InitStruct->LineCommand));
  assert_param(IS_LL_EXTI_MODE(EXTI_InitStruct->Mode));

  /* ENABLE LineCommand */
  if (EXTI_InitStruct->LineCommand != DISABLE)
 8002694:	687b      	ldr	r3, [r7, #4]
 8002696:	7a1b      	ldrb	r3, [r3, #8]
 8002698:	2b00      	cmp	r3, #0
 800269a:	f000 80cc 	beq.w	8002836 <LL_EXTI_Init+0x1ae>
  {
    assert_param(IS_LL_EXTI_TRIGGER(EXTI_InitStruct->Trigger));

    /* Configure EXTI Lines in range from 0 to 31 */
    if (EXTI_InitStruct->Line_0_31 != LL_EXTI_LINE_NONE)
 800269e:	687b      	ldr	r3, [r7, #4]
 80026a0:	681b      	ldr	r3, [r3, #0]
 80026a2:	2b00      	cmp	r3, #0
 80026a4:	d061      	beq.n	800276a <LL_EXTI_Init+0xe2>
    {
      switch (EXTI_InitStruct->Mode)
 80026a6:	687b      	ldr	r3, [r7, #4]
 80026a8:	7a5b      	ldrb	r3, [r3, #9]
 80026aa:	2b02      	cmp	r3, #2
 80026ac:	d01c      	beq.n	80026e8 <LL_EXTI_Init+0x60>
 80026ae:	2b02      	cmp	r3, #2
 80026b0:	dc25      	bgt.n	80026fe <LL_EXTI_Init+0x76>
 80026b2:	2b00      	cmp	r3, #0
 80026b4:	d002      	beq.n	80026bc <LL_EXTI_Init+0x34>
 80026b6:	2b01      	cmp	r3, #1
 80026b8:	d00b      	beq.n	80026d2 <LL_EXTI_Init+0x4a>
 80026ba:	e020      	b.n	80026fe <LL_EXTI_Init+0x76>
      {
        case LL_EXTI_MODE_IT:
          /* First Disable Event on provided Lines */
          LL_EXTI_DisableEvent_0_31(EXTI_InitStruct->Line_0_31);
 80026bc:	687b      	ldr	r3, [r7, #4]
 80026be:	681b      	ldr	r3, [r3, #0]
 80026c0:	4618      	mov	r0, r3
 80026c2:	f7ff ff1d 	bl	8002500 <LL_EXTI_DisableEvent_0_31>
          /* Then Enable IT on provided Lines */
          LL_EXTI_EnableIT_0_31(EXTI_InitStruct->Line_0_31);
 80026c6:	687b      	ldr	r3, [r7, #4]
 80026c8:	681b      	ldr	r3, [r3, #0]
 80026ca:	4618      	mov	r0, r3
 80026cc:	f7ff fe9c 	bl	8002408 <LL_EXTI_EnableIT_0_31>
          break;
 80026d0:	e018      	b.n	8002704 <LL_EXTI_Init+0x7c>
        case LL_EXTI_MODE_EVENT:
          /* First Disable IT on provided Lines */
          LL_EXTI_DisableIT_0_31(EXTI_InitStruct->Line_0_31);
 80026d2:	687b      	ldr	r3, [r7, #4]
 80026d4:	681b      	ldr	r3, [r3, #0]
 80026d6:	4618      	mov	r0, r3
 80026d8:	f7ff febe 	bl	8002458 <LL_EXTI_DisableIT_0_31>
          /* Then Enable Event on provided Lines */
          LL_EXTI_EnableEvent_0_31(EXTI_InitStruct->Line_0_31);
 80026dc:	687b      	ldr	r3, [r7, #4]
 80026de:	681b      	ldr	r3, [r3, #0]
 80026e0:	4618      	mov	r0, r3
 80026e2:	f7ff fee5 	bl	80024b0 <LL_EXTI_EnableEvent_0_31>
          break;
 80026e6:	e00d      	b.n	8002704 <LL_EXTI_Init+0x7c>
        case LL_EXTI_MODE_IT_EVENT:
          /* Directly Enable IT & Event on provided Lines */
          LL_EXTI_EnableIT_0_31(EXTI_InitStruct->Line_0_31);
 80026e8:	687b      	ldr	r3, [r7, #4]
 80026ea:	681b      	ldr	r3, [r3, #0]
 80026ec:	4618      	mov	r0, r3
 80026ee:	f7ff fe8b 	bl	8002408 <LL_EXTI_EnableIT_0_31>
          LL_EXTI_EnableEvent_0_31(EXTI_InitStruct->Line_0_31);
 80026f2:	687b      	ldr	r3, [r7, #4]
 80026f4:	681b      	ldr	r3, [r3, #0]
 80026f6:	4618      	mov	r0, r3
 80026f8:	f7ff feda 	bl	80024b0 <LL_EXTI_EnableEvent_0_31>
          break;
 80026fc:	e002      	b.n	8002704 <LL_EXTI_Init+0x7c>
        default:
          status = ERROR;
 80026fe:	2301      	movs	r3, #1
 8002700:	73fb      	strb	r3, [r7, #15]
          break;
 8002702:	bf00      	nop
      }
      if (EXTI_InitStruct->Trigger != LL_EXTI_TRIGGER_NONE)
 8002704:	687b      	ldr	r3, [r7, #4]
 8002706:	7a9b      	ldrb	r3, [r3, #10]
 8002708:	2b00      	cmp	r3, #0
 800270a:	d02e      	beq.n	800276a <LL_EXTI_Init+0xe2>
      {
        switch (EXTI_InitStruct->Trigger)
 800270c:	687b      	ldr	r3, [r7, #4]
 800270e:	7a9b      	ldrb	r3, [r3, #10]
 8002710:	2b03      	cmp	r3, #3
 8002712:	d01c      	beq.n	800274e <LL_EXTI_Init+0xc6>
 8002714:	2b03      	cmp	r3, #3
 8002716:	dc25      	bgt.n	8002764 <LL_EXTI_Init+0xdc>
 8002718:	2b01      	cmp	r3, #1
 800271a:	d002      	beq.n	8002722 <LL_EXTI_Init+0x9a>
 800271c:	2b02      	cmp	r3, #2
 800271e:	d00b      	beq.n	8002738 <LL_EXTI_Init+0xb0>
 8002720:	e020      	b.n	8002764 <LL_EXTI_Init+0xdc>
        {
          case LL_EXTI_TRIGGER_RISING:
            /* First Disable Falling Trigger on provided Lines */
            LL_EXTI_DisableFallingTrig_0_31(EXTI_InitStruct->Line_0_31);
 8002722:	687b      	ldr	r3, [r7, #4]
 8002724:	681b      	ldr	r3, [r3, #0]
 8002726:	4618      	mov	r0, r3
 8002728:	f7ff ff86 	bl	8002638 <LL_EXTI_DisableFallingTrig_0_31>
            /* Then Enable Rising Trigger on provided Lines */
            LL_EXTI_EnableRisingTrig_0_31(EXTI_InitStruct->Line_0_31);
 800272c:	687b      	ldr	r3, [r7, #4]
 800272e:	681b      	ldr	r3, [r3, #0]
 8002730:	4618      	mov	r0, r3
 8002732:	f7ff ff11 	bl	8002558 <LL_EXTI_EnableRisingTrig_0_31>
            break;
 8002736:	e018      	b.n	800276a <LL_EXTI_Init+0xe2>
          case LL_EXTI_TRIGGER_FALLING:
            /* First Disable Rising Trigger on provided Lines */
            LL_EXTI_DisableRisingTrig_0_31(EXTI_InitStruct->Line_0_31);
 8002738:	687b      	ldr	r3, [r7, #4]
 800273a:	681b      	ldr	r3, [r3, #0]
 800273c:	4618      	mov	r0, r3
 800273e:	f7ff ff2f 	bl	80025a0 <LL_EXTI_DisableRisingTrig_0_31>
            /* Then Enable Falling Trigger on provided Lines */
            LL_EXTI_EnableFallingTrig_0_31(EXTI_InitStruct->Line_0_31);
 8002742:	687b      	ldr	r3, [r7, #4]
 8002744:	681b      	ldr	r3, [r3, #0]
 8002746:	4618      	mov	r0, r3
 8002748:	f7ff ff52 	bl	80025f0 <LL_EXTI_EnableFallingTrig_0_31>
            break;
 800274c:	e00d      	b.n	800276a <LL_EXTI_Init+0xe2>
          case LL_EXTI_TRIGGER_RISING_FALLING:
            LL_EXTI_EnableRisingTrig_0_31(EXTI_InitStruct->Line_0_31);
 800274e:	687b      	ldr	r3, [r7, #4]
 8002750:	681b      	ldr	r3, [r3, #0]
 8002752:	4618      	mov	r0, r3
 8002754:	f7ff ff00 	bl	8002558 <LL_EXTI_EnableRisingTrig_0_31>
            LL_EXTI_EnableFallingTrig_0_31(EXTI_InitStruct->Line_0_31);
 8002758:	687b      	ldr	r3, [r7, #4]
 800275a:	681b      	ldr	r3, [r3, #0]
 800275c:	4618      	mov	r0, r3
 800275e:	f7ff ff47 	bl	80025f0 <LL_EXTI_EnableFallingTrig_0_31>
            break;
 8002762:	e002      	b.n	800276a <LL_EXTI_Init+0xe2>
          default:
            status = ERROR;
 8002764:	2301      	movs	r3, #1
 8002766:	73fb      	strb	r3, [r7, #15]
            break;
 8002768:	bf00      	nop
        }
      }
    }

    /* Configure EXTI Lines in range from 32 to 63 */
    if (EXTI_InitStruct->Line_32_63 != LL_EXTI_LINE_NONE)
 800276a:	687b      	ldr	r3, [r7, #4]
 800276c:	685b      	ldr	r3, [r3, #4]
 800276e:	2b00      	cmp	r3, #0
 8002770:	d075      	beq.n	800285e <LL_EXTI_Init+0x1d6>
    {
      switch (EXTI_InitStruct->Mode)
 8002772:	687b      	ldr	r3, [r7, #4]
 8002774:	7a5b      	ldrb	r3, [r3, #9]
 8002776:	2b02      	cmp	r3, #2
 8002778:	d01c      	beq.n	80027b4 <LL_EXTI_Init+0x12c>
 800277a:	2b02      	cmp	r3, #2
 800277c:	dc25      	bgt.n	80027ca <LL_EXTI_Init+0x142>
 800277e:	2b00      	cmp	r3, #0
 8002780:	d002      	beq.n	8002788 <LL_EXTI_Init+0x100>
 8002782:	2b01      	cmp	r3, #1
 8002784:	d00b      	beq.n	800279e <LL_EXTI_Init+0x116>
 8002786:	e020      	b.n	80027ca <LL_EXTI_Init+0x142>
      {
        case LL_EXTI_MODE_IT:
          /* First Disable Event on provided Lines */
          LL_EXTI_DisableEvent_32_63(EXTI_InitStruct->Line_32_63);
 8002788:	687b      	ldr	r3, [r7, #4]
 800278a:	685b      	ldr	r3, [r3, #4]
 800278c:	4618      	mov	r0, r3
 800278e:	f7ff fecd 	bl	800252c <LL_EXTI_DisableEvent_32_63>
          /* Then Enable IT on provided Lines */
          LL_EXTI_EnableIT_32_63(EXTI_InitStruct->Line_32_63);
 8002792:	687b      	ldr	r3, [r7, #4]
 8002794:	685b      	ldr	r3, [r3, #4]
 8002796:	4618      	mov	r0, r3
 8002798:	f7ff fe4a 	bl	8002430 <LL_EXTI_EnableIT_32_63>
          break;
 800279c:	e018      	b.n	80027d0 <LL_EXTI_Init+0x148>
        case LL_EXTI_MODE_EVENT:
          /* First Disable IT on provided Lines */
          LL_EXTI_DisableIT_32_63(EXTI_InitStruct->Line_32_63);
 800279e:	687b      	ldr	r3, [r7, #4]
 80027a0:	685b      	ldr	r3, [r3, #4]
 80027a2:	4618      	mov	r0, r3
 80027a4:	f7ff fe6e 	bl	8002484 <LL_EXTI_DisableIT_32_63>
          /* Then Enable Event on provided Lines */
          LL_EXTI_EnableEvent_32_63(EXTI_InitStruct->Line_32_63);
 80027a8:	687b      	ldr	r3, [r7, #4]
 80027aa:	685b      	ldr	r3, [r3, #4]
 80027ac:	4618      	mov	r0, r3
 80027ae:	f7ff fe93 	bl	80024d8 <LL_EXTI_EnableEvent_32_63>
          break;
 80027b2:	e00d      	b.n	80027d0 <LL_EXTI_Init+0x148>
        case LL_EXTI_MODE_IT_EVENT:
          /* Directly Enable IT & Event on provided Lines */
          LL_EXTI_EnableIT_32_63(EXTI_InitStruct->Line_32_63);
 80027b4:	687b      	ldr	r3, [r7, #4]
 80027b6:	685b      	ldr	r3, [r3, #4]
 80027b8:	4618      	mov	r0, r3
 80027ba:	f7ff fe39 	bl	8002430 <LL_EXTI_EnableIT_32_63>
          LL_EXTI_EnableEvent_32_63(EXTI_InitStruct->Line_32_63);
 80027be:	687b      	ldr	r3, [r7, #4]
 80027c0:	685b      	ldr	r3, [r3, #4]
 80027c2:	4618      	mov	r0, r3
 80027c4:	f7ff fe88 	bl	80024d8 <LL_EXTI_EnableEvent_32_63>
          break;
 80027c8:	e002      	b.n	80027d0 <LL_EXTI_Init+0x148>
        default:
          status = ERROR;
 80027ca:	2301      	movs	r3, #1
 80027cc:	73fb      	strb	r3, [r7, #15]
          break;
 80027ce:	bf00      	nop
      }
      if (EXTI_InitStruct->Trigger != LL_EXTI_TRIGGER_NONE)
 80027d0:	687b      	ldr	r3, [r7, #4]
 80027d2:	7a9b      	ldrb	r3, [r3, #10]
 80027d4:	2b00      	cmp	r3, #0
 80027d6:	d042      	beq.n	800285e <LL_EXTI_Init+0x1d6>
      {
        switch (EXTI_InitStruct->Trigger)
 80027d8:	687b      	ldr	r3, [r7, #4]
 80027da:	7a9b      	ldrb	r3, [r3, #10]
 80027dc:	2b03      	cmp	r3, #3
 80027de:	d01c      	beq.n	800281a <LL_EXTI_Init+0x192>
 80027e0:	2b03      	cmp	r3, #3
 80027e2:	dc25      	bgt.n	8002830 <LL_EXTI_Init+0x1a8>
 80027e4:	2b01      	cmp	r3, #1
 80027e6:	d002      	beq.n	80027ee <LL_EXTI_Init+0x166>
 80027e8:	2b02      	cmp	r3, #2
 80027ea:	d00b      	beq.n	8002804 <LL_EXTI_Init+0x17c>
 80027ec:	e020      	b.n	8002830 <LL_EXTI_Init+0x1a8>
        {
          case LL_EXTI_TRIGGER_RISING:
            /* First Disable Falling Trigger on provided Lines */
            LL_EXTI_DisableFallingTrig_32_63(EXTI_InitStruct->Line_32_63);
 80027ee:	687b      	ldr	r3, [r7, #4]
 80027f0:	685b      	ldr	r3, [r3, #4]
 80027f2:	4618      	mov	r0, r3
 80027f4:	f7ff ff34 	bl	8002660 <LL_EXTI_DisableFallingTrig_32_63>
            /* Then Enable Rising Trigger on provided Lines */
            LL_EXTI_EnableRisingTrig_32_63(EXTI_InitStruct->Line_32_63);
 80027f8:	687b      	ldr	r3, [r7, #4]
 80027fa:	685b      	ldr	r3, [r3, #4]
 80027fc:	4618      	mov	r0, r3
 80027fe:	f7ff febd 	bl	800257c <LL_EXTI_EnableRisingTrig_32_63>
            break;
 8002802:	e02c      	b.n	800285e <LL_EXTI_Init+0x1d6>
          case LL_EXTI_TRIGGER_FALLING:
            /* First Disable Rising Trigger on provided Lines */
            LL_EXTI_DisableRisingTrig_32_63(EXTI_InitStruct->Line_32_63);
 8002804:	687b      	ldr	r3, [r7, #4]
 8002806:	685b      	ldr	r3, [r3, #4]
 8002808:	4618      	mov	r0, r3
 800280a:	f7ff fedd 	bl	80025c8 <LL_EXTI_DisableRisingTrig_32_63>
            /* Then Enable Falling Trigger on provided Lines */
            LL_EXTI_EnableFallingTrig_32_63(EXTI_InitStruct->Line_32_63);
 800280e:	687b      	ldr	r3, [r7, #4]
 8002810:	685b      	ldr	r3, [r3, #4]
 8002812:	4618      	mov	r0, r3
 8002814:	f7ff fefe 	bl	8002614 <LL_EXTI_EnableFallingTrig_32_63>
            break;
 8002818:	e021      	b.n	800285e <LL_EXTI_Init+0x1d6>
          case LL_EXTI_TRIGGER_RISING_FALLING:
            LL_EXTI_EnableRisingTrig_32_63(EXTI_InitStruct->Line_32_63);
 800281a:	687b      	ldr	r3, [r7, #4]
 800281c:	685b      	ldr	r3, [r3, #4]
 800281e:	4618      	mov	r0, r3
 8002820:	f7ff feac 	bl	800257c <LL_EXTI_EnableRisingTrig_32_63>
            LL_EXTI_EnableFallingTrig_32_63(EXTI_InitStruct->Line_32_63);
 8002824:	687b      	ldr	r3, [r7, #4]
 8002826:	685b      	ldr	r3, [r3, #4]
 8002828:	4618      	mov	r0, r3
 800282a:	f7ff fef3 	bl	8002614 <LL_EXTI_EnableFallingTrig_32_63>
            break;
 800282e:	e016      	b.n	800285e <LL_EXTI_Init+0x1d6>
          default:
            status = ERROR;
 8002830:	2301      	movs	r3, #1
 8002832:	73fb      	strb	r3, [r7, #15]
            break;
 8002834:	e013      	b.n	800285e <LL_EXTI_Init+0x1d6>
  }
  /* DISABLE LineCommand */
  else
  {
    /* De-configure EXTI Lines in range from 0 to 31 */
    LL_EXTI_DisableIT_0_31(EXTI_InitStruct->Line_0_31);
 8002836:	687b      	ldr	r3, [r7, #4]
 8002838:	681b      	ldr	r3, [r3, #0]
 800283a:	4618      	mov	r0, r3
 800283c:	f7ff fe0c 	bl	8002458 <LL_EXTI_DisableIT_0_31>
    LL_EXTI_DisableEvent_0_31(EXTI_InitStruct->Line_0_31);
 8002840:	687b      	ldr	r3, [r7, #4]
 8002842:	681b      	ldr	r3, [r3, #0]
 8002844:	4618      	mov	r0, r3
 8002846:	f7ff fe5b 	bl	8002500 <LL_EXTI_DisableEvent_0_31>

    /* De-configure EXTI Lines in range from 32 to 63 */
    LL_EXTI_DisableIT_32_63(EXTI_InitStruct->Line_32_63);
 800284a:	687b      	ldr	r3, [r7, #4]
 800284c:	685b      	ldr	r3, [r3, #4]
 800284e:	4618      	mov	r0, r3
 8002850:	f7ff fe18 	bl	8002484 <LL_EXTI_DisableIT_32_63>
    LL_EXTI_DisableEvent_32_63(EXTI_InitStruct->Line_32_63);
 8002854:	687b      	ldr	r3, [r7, #4]
 8002856:	685b      	ldr	r3, [r3, #4]
 8002858:	4618      	mov	r0, r3
 800285a:	f7ff fe67 	bl	800252c <LL_EXTI_DisableEvent_32_63>

  }
  return status;
 800285e:	7bfb      	ldrb	r3, [r7, #15]
}
 8002860:	4618      	mov	r0, r3
 8002862:	3710      	adds	r7, #16
 8002864:	46bd      	mov	sp, r7
 8002866:	bd80      	pop	{r7, pc}

08002868 <LL_GPIO_SetPinMode>:
{
 8002868:	b480      	push	{r7}
 800286a:	b08b      	sub	sp, #44	@ 0x2c
 800286c:	af00      	add	r7, sp, #0
 800286e:	60f8      	str	r0, [r7, #12]
 8002870:	60b9      	str	r1, [r7, #8]
 8002872:	607a      	str	r2, [r7, #4]
  MODIFY_REG(GPIOx->MODER, (GPIO_MODER_MODE0 << (POSITION_VAL(Pin) * GPIO_MODER_MODE1_Pos)),
 8002874:	68fb      	ldr	r3, [r7, #12]
 8002876:	681a      	ldr	r2, [r3, #0]
 8002878:	68bb      	ldr	r3, [r7, #8]
 800287a:	617b      	str	r3, [r7, #20]
   __ASM ("rbit %0, %1" : "=r" (result) : "r" (value) );
 800287c:	697b      	ldr	r3, [r7, #20]
 800287e:	fa93 f3a3 	rbit	r3, r3
 8002882:	613b      	str	r3, [r7, #16]
  return result;
 8002884:	693b      	ldr	r3, [r7, #16]
 8002886:	61bb      	str	r3, [r7, #24]
  if (value == 0U)
 8002888:	69bb      	ldr	r3, [r7, #24]
 800288a:	2b00      	cmp	r3, #0
 800288c:	d101      	bne.n	8002892 <LL_GPIO_SetPinMode+0x2a>
    return 32U;
 800288e:	2320      	movs	r3, #32
 8002890:	e003      	b.n	800289a <LL_GPIO_SetPinMode+0x32>
  return __builtin_clz(value);
 8002892:	69bb      	ldr	r3, [r7, #24]
 8002894:	fab3 f383 	clz	r3, r3
 8002898:	b2db      	uxtb	r3, r3
 800289a:	005b      	lsls	r3, r3, #1
 800289c:	2103      	movs	r1, #3
 800289e:	fa01 f303 	lsl.w	r3, r1, r3
 80028a2:	43db      	mvns	r3, r3
 80028a4:	401a      	ands	r2, r3
 80028a6:	68bb      	ldr	r3, [r7, #8]
 80028a8:	623b      	str	r3, [r7, #32]
   __ASM ("rbit %0, %1" : "=r" (result) : "r" (value) );
 80028aa:	6a3b      	ldr	r3, [r7, #32]
 80028ac:	fa93 f3a3 	rbit	r3, r3
 80028b0:	61fb      	str	r3, [r7, #28]
  return result;
 80028b2:	69fb      	ldr	r3, [r7, #28]
 80028b4:	627b      	str	r3, [r7, #36]	@ 0x24
  if (value == 0U)
 80028b6:	6a7b      	ldr	r3, [r7, #36]	@ 0x24
 80028b8:	2b00      	cmp	r3, #0
 80028ba:	d101      	bne.n	80028c0 <LL_GPIO_SetPinMode+0x58>
    return 32U;
 80028bc:	2320      	movs	r3, #32
 80028be:	e003      	b.n	80028c8 <LL_GPIO_SetPinMode+0x60>
  return __builtin_clz(value);
 80028c0:	6a7b      	ldr	r3, [r7, #36]	@ 0x24
 80028c2:	fab3 f383 	clz	r3, r3
 80028c6:	b2db      	uxtb	r3, r3
 80028c8:	005b      	lsls	r3, r3, #1
 80028ca:	6879      	ldr	r1, [r7, #4]
 80028cc:	fa01 f303 	lsl.w	r3, r1, r3
 80028d0:	431a      	orrs	r2, r3
 80028d2:	68fb      	ldr	r3, [r7, #12]
 80028d4:	601a      	str	r2, [r3, #0]
}
 80028d6:	bf00      	nop
 80028d8:	372c      	adds	r7, #44	@ 0x2c
 80028da:	46bd      	mov	sp, r7
 80028dc:	f85d 7b04 	ldr.w	r7, [sp], #4
 80028e0:	4770      	bx	lr

080028e2 <LL_GPIO_SetPinOutputType>:
{
 80028e2:	b480      	push	{r7}
 80028e4:	b085      	sub	sp, #20
 80028e6:	af00      	add	r7, sp, #0
 80028e8:	60f8      	str	r0, [r7, #12]
 80028ea:	60b9      	str	r1, [r7, #8]
 80028ec:	607a      	str	r2, [r7, #4]
  MODIFY_REG(GPIOx->OTYPER, PinMask, (PinMask * OutputType));
 80028ee:	68fb      	ldr	r3, [r7, #12]
 80028f0:	685a      	ldr	r2, [r3, #4]
 80028f2:	68bb      	ldr	r3, [r7, #8]
 80028f4:	43db      	mvns	r3, r3
 80028f6:	401a      	ands	r2, r3
 80028f8:	68bb      	ldr	r3, [r7, #8]
 80028fa:	6879      	ldr	r1, [r7, #4]
 80028fc:	fb01 f303 	mul.w	r3, r1, r3
 8002900:	431a      	orrs	r2, r3
 8002902:	68fb      	ldr	r3, [r7, #12]
 8002904:	605a      	str	r2, [r3, #4]
}
 8002906:	bf00      	nop
 8002908:	3714      	adds	r7, #20
 800290a:	46bd      	mov	sp, r7
 800290c:	f85d 7b04 	ldr.w	r7, [sp], #4
 8002910:	4770      	bx	lr

08002912 <LL_GPIO_SetPinSpeed>:
{
 8002912:	b480      	push	{r7}
 8002914:	b08b      	sub	sp, #44	@ 0x2c
 8002916:	af00      	add	r7, sp, #0
 8002918:	60f8      	str	r0, [r7, #12]
 800291a:	60b9      	str	r1, [r7, #8]
 800291c:	607a      	str	r2, [r7, #4]
  MODIFY_REG(GPIOx->OSPEEDR, (GPIO_OSPEEDR_OSPEED0 << (POSITION_VAL(Pin) * GPIO_OSPEEDR_OSPEED1_Pos)),
 800291e:	68fb      	ldr	r3, [r7, #12]
 8002920:	689a      	ldr	r2, [r3, #8]
 8002922:	68bb      	ldr	r3, [r7, #8]
 8002924:	617b      	str	r3, [r7, #20]
   __ASM ("rbit %0, %1" : "=r" (result) : "r" (value) );
 8002926:	697b      	ldr	r3, [r7, #20]
 8002928:	fa93 f3a3 	rbit	r3, r3
 800292c:	613b      	str	r3, [r7, #16]
  return result;
 800292e:	693b      	ldr	r3, [r7, #16]
 8002930:	61bb      	str	r3, [r7, #24]
  if (value == 0U)
 8002932:	69bb      	ldr	r3, [r7, #24]
 8002934:	2b00      	cmp	r3, #0
 8002936:	d101      	bne.n	800293c <LL_GPIO_SetPinSpeed+0x2a>
    return 32U;
 8002938:	2320      	movs	r3, #32
 800293a:	e003      	b.n	8002944 <LL_GPIO_SetPinSpeed+0x32>
  return __builtin_clz(value);
 800293c:	69bb      	ldr	r3, [r7, #24]
 800293e:	fab3 f383 	clz	r3, r3
 8002942:	b2db      	uxtb	r3, r3
 8002944:	005b      	lsls	r3, r3, #1
 8002946:	2103      	movs	r1, #3
 8002948:	fa01 f303 	lsl.w	r3, r1, r3
 800294c:	43db      	mvns	r3, r3
 800294e:	401a      	ands	r2, r3
 8002950:	68bb      	ldr	r3, [r7, #8]
 8002952:	623b      	str	r3, [r7, #32]
   __ASM ("rbit %0, %1" : "=r" (result) : "r" (value) );
 8002954:	6a3b      	ldr	r3, [r7, #32]
 8002956:	fa93 f3a3 	rbit	r3, r3
 800295a:	61fb      	str	r3, [r7, #28]
  return result;
 800295c:	69fb      	ldr	r3, [r7, #28]
 800295e:	627b      	str	r3, [r7, #36]	@ 0x24
  if (value == 0U)
 8002960:	6a7b      	ldr	r3, [r7, #36]	@ 0x24
 8002962:	2b00      	cmp	r3, #0
 8002964:	d101      	bne.n	800296a <LL_GPIO_SetPinSpeed+0x58>
    return 32U;
 8002966:	2320      	movs	r3, #32
 8002968:	e003      	b.n	8002972 <LL_GPIO_SetPinSpeed+0x60>
  return __builtin_clz(value);
 800296a:	6a7b      	ldr	r3, [r7, #36]	@ 0x24
 800296c:	fab3 f383 	clz	r3, r3
 8002970:	b2db      	uxtb	r3, r3
 8002972:	005b      	lsls	r3, r3, #1
 8002974:	6879      	ldr	r1, [r7, #4]
 8002976:	fa01 f303 	lsl.w	r3, r1, r3
 800297a:	431a      	orrs	r2, r3
 800297c:	68fb      	ldr	r3, [r7, #12]
 800297e:	609a      	str	r2, [r3, #8]
}
 8002980:	bf00      	nop
 8002982:	372c      	adds	r7, #44	@ 0x2c
 8002984:	46bd      	mov	sp, r7
 8002986:	f85d 7b04 	ldr.w	r7, [sp], #4
 800298a:	4770      	bx	lr

0800298c <LL_GPIO_SetPinPull>:
{
 800298c:	b480      	push	{r7}
 800298e:	b08b      	sub	sp, #44	@ 0x2c
 8002990:	af00      	add	r7, sp, #0
 8002992:	60f8      	str	r0, [r7, #12]
 8002994:	60b9      	str	r1, [r7, #8]
 8002996:	607a      	str	r2, [r7, #4]
  MODIFY_REG(GPIOx->PUPDR, (GPIO_PUPDR_PUPD0 << (POSITION_VAL(Pin) * GPIO_PUPDR_PUPD1_Pos)),
 8002998:	68fb      	ldr	r3, [r7, #12]
 800299a:	68da      	ldr	r2, [r3, #12]
 800299c:	68bb      	ldr	r3, [r7, #8]
 800299e:	617b      	str	r3, [r7, #20]
   __ASM ("rbit %0, %1" : "=r" (result) : "r" (value) );
 80029a0:	697b      	ldr	r3, [r7, #20]
 80029a2:	fa93 f3a3 	rbit	r3, r3
 80029a6:	613b      	str	r3, [r7, #16]
  return result;
 80029a8:	693b      	ldr	r3, [r7, #16]
 80029aa:	61bb      	str	r3, [r7, #24]
  if (value == 0U)
 80029ac:	69bb      	ldr	r3, [r7, #24]
 80029ae:	2b00      	cmp	r3, #0
 80029b0:	d101      	bne.n	80029b6 <LL_GPIO_SetPinPull+0x2a>
    return 32U;
 80029b2:	2320      	movs	r3, #32
 80029b4:	e003      	b.n	80029be <LL_GPIO_SetPinPull+0x32>
  return __builtin_clz(value);
 80029b6:	69bb      	ldr	r3, [r7, #24]
 80029b8:	fab3 f383 	clz	r3, r3
 80029bc:	b2db      	uxtb	r3, r3
 80029be:	005b      	lsls	r3, r3, #1
 80029c0:	2103      	movs	r1, #3
 80029c2:	fa01 f303 	lsl.w	r3, r1, r3
 80029c6:	43db      	mvns	r3, r3
 80029c8:	401a      	ands	r2, r3
 80029ca:	68bb      	ldr	r3, [r7, #8]
 80029cc:	623b      	str	r3, [r7, #32]
   __ASM ("rbit %0, %1" : "=r" (result) : "r" (value) );
 80029ce:	6a3b      	ldr	r3, [r7, #32]
 80029d0:	fa93 f3a3 	rbit	r3, r3
 80029d4:	61fb      	str	r3, [r7, #28]
  return result;
 80029d6:	69fb      	ldr	r3, [r7, #28]
 80029d8:	627b      	str	r3, [r7, #36]	@ 0x24
  if (value == 0U)
 80029da:	6a7b      	ldr	r3, [r7, #36]	@ 0x24
 80029dc:	2b00      	cmp	r3, #0
 80029de:	d101      	bne.n	80029e4 <LL_GPIO_SetPinPull+0x58>
    return 32U;
 80029e0:	2320      	movs	r3, #32
 80029e2:	e003      	b.n	80029ec <LL_GPIO_SetPinPull+0x60>
  return __builtin_clz(value);
 80029e4:	6a7b      	ldr	r3, [r7, #36]	@ 0x24
 80029e6:	fab3 f383 	clz	r3, r3
 80029ea:	b2db      	uxtb	r3, r3
 80029ec:	005b      	lsls	r3, r3, #1
 80029ee:	6879      	ldr	r1, [r7, #4]
 80029f0:	fa01 f303 	lsl.w	r3, r1, r3
 80029f4:	431a      	orrs	r2, r3
 80029f6:	68fb      	ldr	r3, [r7, #12]
 80029f8:	60da      	str	r2, [r3, #12]
}
 80029fa:	bf00      	nop
 80029fc:	372c      	adds	r7, #44	@ 0x2c
 80029fe:	46bd      	mov	sp, r7
 8002a00:	f85d 7b04 	ldr.w	r7, [sp], #4
 8002a04:	4770      	bx	lr

08002a06 <LL_GPIO_SetAFPin_0_7>:
{
 8002a06:	b480      	push	{r7}
 8002a08:	b08b      	sub	sp, #44	@ 0x2c
 8002a0a:	af00      	add	r7, sp, #0
 8002a0c:	60f8      	str	r0, [r7, #12]
 8002a0e:	60b9      	str	r1, [r7, #8]
 8002a10:	607a      	str	r2, [r7, #4]
  MODIFY_REG(GPIOx->AFR[0], (GPIO_AFRL_AFSEL0 << (POSITION_VAL(Pin) * GPIO_AFRL_AFSEL1_Pos)),
 8002a12:	68fb      	ldr	r3, [r7, #12]
 8002a14:	6a1a      	ldr	r2, [r3, #32]
 8002a16:	68bb      	ldr	r3, [r7, #8]
 8002a18:	617b      	str	r3, [r7, #20]
   __ASM ("rbit %0, %1" : "=r" (result) : "r" (value) );
 8002a1a:	697b      	ldr	r3, [r7, #20]
 8002a1c:	fa93 f3a3 	rbit	r3, r3
 8002a20:	613b      	str	r3, [r7, #16]
  return result;
 8002a22:	693b      	ldr	r3, [r7, #16]
 8002a24:	61bb      	str	r3, [r7, #24]
  if (value == 0U)
 8002a26:	69bb      	ldr	r3, [r7, #24]
 8002a28:	2b00      	cmp	r3, #0
 8002a2a:	d101      	bne.n	8002a30 <LL_GPIO_SetAFPin_0_7+0x2a>
    return 32U;
 8002a2c:	2320      	movs	r3, #32
 8002a2e:	e003      	b.n	8002a38 <LL_GPIO_SetAFPin_0_7+0x32>
  return __builtin_clz(value);
 8002a30:	69bb      	ldr	r3, [r7, #24]
 8002a32:	fab3 f383 	clz	r3, r3
 8002a36:	b2db      	uxtb	r3, r3
 8002a38:	009b      	lsls	r3, r3, #2
 8002a3a:	210f      	movs	r1, #15
 8002a3c:	fa01 f303 	lsl.w	r3, r1, r3
 8002a40:	43db      	mvns	r3, r3
 8002a42:	401a      	ands	r2, r3
 8002a44:	68bb      	ldr	r3, [r7, #8]
 8002a46:	623b      	str	r3, [r7, #32]
   __ASM ("rbit %0, %1" : "=r" (result) : "r" (value) );
 8002a48:	6a3b      	ldr	r3, [r7, #32]
 8002a4a:	fa93 f3a3 	rbit	r3, r3
 8002a4e:	61fb      	str	r3, [r7, #28]
  return result;
 8002a50:	69fb      	ldr	r3, [r7, #28]
 8002a52:	627b      	str	r3, [r7, #36]	@ 0x24
  if (value == 0U)
 8002a54:	6a7b      	ldr	r3, [r7, #36]	@ 0x24
 8002a56:	2b00      	cmp	r3, #0
 8002a58:	d101      	bne.n	8002a5e <LL_GPIO_SetAFPin_0_7+0x58>
    return 32U;
 8002a5a:	2320      	movs	r3, #32
 8002a5c:	e003      	b.n	8002a66 <LL_GPIO_SetAFPin_0_7+0x60>
  return __builtin_clz(value);
 8002a5e:	6a7b      	ldr	r3, [r7, #36]	@ 0x24
 8002a60:	fab3 f383 	clz	r3, r3
 8002a64:	b2db      	uxtb	r3, r3
 8002a66:	009b      	lsls	r3, r3, #2
 8002a68:	6879      	ldr	r1, [r7, #4]
 8002a6a:	fa01 f303 	lsl.w	r3, r1, r3
 8002a6e:	431a      	orrs	r2, r3
 8002a70:	68fb      	ldr	r3, [r7, #12]
 8002a72:	621a      	str	r2, [r3, #32]
}
 8002a74:	bf00      	nop
 8002a76:	372c      	adds	r7, #44	@ 0x2c
 8002a78:	46bd      	mov	sp, r7
 8002a7a:	f85d 7b04 	ldr.w	r7, [sp], #4
 8002a7e:	4770      	bx	lr

08002a80 <LL_GPIO_SetAFPin_8_15>:
{
 8002a80:	b480      	push	{r7}
 8002a82:	b08b      	sub	sp, #44	@ 0x2c
 8002a84:	af00      	add	r7, sp, #0
 8002a86:	60f8      	str	r0, [r7, #12]
 8002a88:	60b9      	str	r1, [r7, #8]
 8002a8a:	607a      	str	r2, [r7, #4]
  MODIFY_REG(GPIOx->AFR[1], (GPIO_AFRH_AFSEL8 << (POSITION_VAL(Pin >> 8U) * GPIO_AFRH_AFSEL9_Pos)),
 8002a8c:	68fb      	ldr	r3, [r7, #12]
 8002a8e:	6a5a      	ldr	r2, [r3, #36]	@ 0x24
 8002a90:	68bb      	ldr	r3, [r7, #8]
 8002a92:	0a1b      	lsrs	r3, r3, #8
 8002a94:	617b      	str	r3, [r7, #20]
   __ASM ("rbit %0, %1" : "=r" (result) : "r" (value) );
 8002a96:	697b      	ldr	r3, [r7, #20]
 8002a98:	fa93 f3a3 	rbit	r3, r3
 8002a9c:	613b      	str	r3, [r7, #16]
  return result;
 8002a9e:	693b      	ldr	r3, [r7, #16]
 8002aa0:	61bb      	str	r3, [r7, #24]
  if (value == 0U)
 8002aa2:	69bb      	ldr	r3, [r7, #24]
 8002aa4:	2b00      	cmp	r3, #0
 8002aa6:	d101      	bne.n	8002aac <LL_GPIO_SetAFPin_8_15+0x2c>
    return 32U;
 8002aa8:	2320      	movs	r3, #32
 8002aaa:	e003      	b.n	8002ab4 <LL_GPIO_SetAFPin_8_15+0x34>
  return __builtin_clz(value);
 8002aac:	69bb      	ldr	r3, [r7, #24]
 8002aae:	fab3 f383 	clz	r3, r3
 8002ab2:	b2db      	uxtb	r3, r3
 8002ab4:	009b      	lsls	r3, r3, #2
 8002ab6:	210f      	movs	r1, #15
 8002ab8:	fa01 f303 	lsl.w	r3, r1, r3
 8002abc:	43db      	mvns	r3, r3
 8002abe:	401a      	ands	r2, r3
 8002ac0:	68bb      	ldr	r3, [r7, #8]
 8002ac2:	0a1b      	lsrs	r3, r3, #8
 8002ac4:	623b      	str	r3, [r7, #32]
   __ASM ("rbit %0, %1" : "=r" (result) : "r" (value) );
 8002ac6:	6a3b      	ldr	r3, [r7, #32]
 8002ac8:	fa93 f3a3 	rbit	r3, r3
 8002acc:	61fb      	str	r3, [r7, #28]
  return result;
 8002ace:	69fb      	ldr	r3, [r7, #28]
 8002ad0:	627b      	str	r3, [r7, #36]	@ 0x24
  if (value == 0U)
 8002ad2:	6a7b      	ldr	r3, [r7, #36]	@ 0x24
 8002ad4:	2b00      	cmp	r3, #0
 8002ad6:	d101      	bne.n	8002adc <LL_GPIO_SetAFPin_8_15+0x5c>
    return 32U;
 8002ad8:	2320      	movs	r3, #32
 8002ada:	e003      	b.n	8002ae4 <LL_GPIO_SetAFPin_8_15+0x64>
  return __builtin_clz(value);
 8002adc:	6a7b      	ldr	r3, [r7, #36]	@ 0x24
 8002ade:	fab3 f383 	clz	r3, r3
 8002ae2:	b2db      	uxtb	r3, r3
 8002ae4:	009b      	lsls	r3, r3, #2
 8002ae6:	6879      	ldr	r1, [r7, #4]
 8002ae8:	fa01 f303 	lsl.w	r3, r1, r3
 8002aec:	431a      	orrs	r2, r3
 8002aee:	68fb      	ldr	r3, [r7, #12]
 8002af0:	625a      	str	r2, [r3, #36]	@ 0x24
}
 8002af2:	bf00      	nop
 8002af4:	372c      	adds	r7, #44	@ 0x2c
 8002af6:	46bd      	mov	sp, r7
 8002af8:	f85d 7b04 	ldr.w	r7, [sp], #4
 8002afc:	4770      	bx	lr

08002afe <LL_GPIO_Init>:
  * @retval An ErrorStatus enumeration value:
  *          - SUCCESS: GPIO registers are initialized according to GPIO_InitStruct content
  *          - ERROR:   Not applicable
  */
ErrorStatus LL_GPIO_Init(GPIO_TypeDef *GPIOx, LL_GPIO_InitTypeDef *GPIO_InitStruct)
{
 8002afe:	b580      	push	{r7, lr}
 8002b00:	b08a      	sub	sp, #40	@ 0x28
 8002b02:	af00      	add	r7, sp, #0
 8002b04:	6078      	str	r0, [r7, #4]
 8002b06:	6039      	str	r1, [r7, #0]
  assert_param(IS_LL_GPIO_MODE(GPIO_InitStruct->Mode));
  assert_param(IS_LL_GPIO_PULL(GPIO_InitStruct->Pull));

  /* ------------------------- Configure the port pins ---------------- */
  /* Initialize  pinpos on first pin set */
  pinpos = POSITION_VAL(GPIO_InitStruct->Pin);
 8002b08:	683b      	ldr	r3, [r7, #0]
 8002b0a:	681b      	ldr	r3, [r3, #0]
 8002b0c:	61bb      	str	r3, [r7, #24]
   __ASM ("rbit %0, %1" : "=r" (result) : "r" (value) );
 8002b0e:	69bb      	ldr	r3, [r7, #24]
 8002b10:	fa93 f3a3 	rbit	r3, r3
 8002b14:	617b      	str	r3, [r7, #20]
  return result;
 8002b16:	697b      	ldr	r3, [r7, #20]
 8002b18:	61fb      	str	r3, [r7, #28]
  if (value == 0U)
 8002b1a:	69fb      	ldr	r3, [r7, #28]
 8002b1c:	2b00      	cmp	r3, #0
 8002b1e:	d101      	bne.n	8002b24 <LL_GPIO_Init+0x26>
    return 32U;
 8002b20:	2320      	movs	r3, #32
 8002b22:	e003      	b.n	8002b2c <LL_GPIO_Init+0x2e>
  return __builtin_clz(value);
 8002b24:	69fb      	ldr	r3, [r7, #28]
 8002b26:	fab3 f383 	clz	r3, r3
 8002b2a:	b2db      	uxtb	r3, r3
 8002b2c:	627b      	str	r3, [r7, #36]	@ 0x24

  /* Configure the port pins */
  while (((GPIO_InitStruct->Pin) >> pinpos) != 0U)
 8002b2e:	e058      	b.n	8002be2 <LL_GPIO_Init+0xe4>
  {
    /* Get current io position */
    currentpin = (GPIO_InitStruct->Pin) & (1UL << pinpos);
 8002b30:	683b      	ldr	r3, [r7, #0]
 8002b32:	681a      	ldr	r2, [r3, #0]
 8002b34:	2101      	movs	r1, #1
 8002b36:	6a7b      	ldr	r3, [r7, #36]	@ 0x24
 8002b38:	fa01 f303 	lsl.w	r3, r1, r3
 8002b3c:	4013      	ands	r3, r2
 8002b3e:	623b      	str	r3, [r7, #32]

    if (currentpin != 0U)
 8002b40:	6a3b      	ldr	r3, [r7, #32]
 8002b42:	2b00      	cmp	r3, #0
 8002b44:	d04a      	beq.n	8002bdc <LL_GPIO_Init+0xde>
    {
      if ((GPIO_InitStruct->Mode == LL_GPIO_MODE_OUTPUT) || (GPIO_InitStruct->Mode == LL_GPIO_MODE_ALTERNATE))
 8002b46:	683b      	ldr	r3, [r7, #0]
 8002b48:	685b      	ldr	r3, [r3, #4]
 8002b4a:	2b01      	cmp	r3, #1
 8002b4c:	d003      	beq.n	8002b56 <LL_GPIO_Init+0x58>
 8002b4e:	683b      	ldr	r3, [r7, #0]
 8002b50:	685b      	ldr	r3, [r3, #4]
 8002b52:	2b02      	cmp	r3, #2
 8002b54:	d10e      	bne.n	8002b74 <LL_GPIO_Init+0x76>
      {
        /* Check Speed mode parameters */
        assert_param(IS_LL_GPIO_SPEED(GPIO_InitStruct->Speed));

        /* Speed mode configuration */
        LL_GPIO_SetPinSpeed(GPIOx, currentpin, GPIO_InitStruct->Speed);
 8002b56:	683b      	ldr	r3, [r7, #0]
 8002b58:	689b      	ldr	r3, [r3, #8]
 8002b5a:	461a      	mov	r2, r3
 8002b5c:	6a39      	ldr	r1, [r7, #32]
 8002b5e:	6878      	ldr	r0, [r7, #4]
 8002b60:	f7ff fed7 	bl	8002912 <LL_GPIO_SetPinSpeed>

        /* Check Output mode parameters */
        assert_param(IS_LL_GPIO_OUTPUT_TYPE(GPIO_InitStruct->OutputType));

        /* Output mode configuration*/
        LL_GPIO_SetPinOutputType(GPIOx, GPIO_InitStruct->Pin, GPIO_InitStruct->OutputType);
 8002b64:	683b      	ldr	r3, [r7, #0]
 8002b66:	6819      	ldr	r1, [r3, #0]
 8002b68:	683b      	ldr	r3, [r7, #0]
 8002b6a:	68db      	ldr	r3, [r3, #12]
 8002b6c:	461a      	mov	r2, r3
 8002b6e:	6878      	ldr	r0, [r7, #4]
 8002b70:	f7ff feb7 	bl	80028e2 <LL_GPIO_SetPinOutputType>
      }

      /* Pull-up Pull down resistor configuration*/
      LL_GPIO_SetPinPull(GPIOx, currentpin, GPIO_InitStruct->Pull);
 8002b74:	683b      	ldr	r3, [r7, #0]
 8002b76:	691b      	ldr	r3, [r3, #16]
 8002b78:	461a      	mov	r2, r3
 8002b7a:	6a39      	ldr	r1, [r7, #32]
 8002b7c:	6878      	ldr	r0, [r7, #4]
 8002b7e:	f7ff ff05 	bl	800298c <LL_GPIO_SetPinPull>

      if (GPIO_InitStruct->Mode == LL_GPIO_MODE_ALTERNATE)
 8002b82:	683b      	ldr	r3, [r7, #0]
 8002b84:	685b      	ldr	r3, [r3, #4]
 8002b86:	2b02      	cmp	r3, #2
 8002b88:	d121      	bne.n	8002bce <LL_GPIO_Init+0xd0>
 8002b8a:	6a3b      	ldr	r3, [r7, #32]
 8002b8c:	60fb      	str	r3, [r7, #12]
   __ASM ("rbit %0, %1" : "=r" (result) : "r" (value) );
 8002b8e:	68fb      	ldr	r3, [r7, #12]
 8002b90:	fa93 f3a3 	rbit	r3, r3
 8002b94:	60bb      	str	r3, [r7, #8]
  return result;
 8002b96:	68bb      	ldr	r3, [r7, #8]
 8002b98:	613b      	str	r3, [r7, #16]
  if (value == 0U)
 8002b9a:	693b      	ldr	r3, [r7, #16]
 8002b9c:	2b00      	cmp	r3, #0
 8002b9e:	d101      	bne.n	8002ba4 <LL_GPIO_Init+0xa6>
    return 32U;
 8002ba0:	2320      	movs	r3, #32
 8002ba2:	e003      	b.n	8002bac <LL_GPIO_Init+0xae>
  return __builtin_clz(value);
 8002ba4:	693b      	ldr	r3, [r7, #16]
 8002ba6:	fab3 f383 	clz	r3, r3
 8002baa:	b2db      	uxtb	r3, r3
      {
        /* Check Alternate parameter */
        assert_param(IS_LL_GPIO_ALTERNATE(GPIO_InitStruct->Alternate));

        /* Speed mode configuration */
        if (POSITION_VAL(currentpin) < 8U)
 8002bac:	2b07      	cmp	r3, #7
 8002bae:	d807      	bhi.n	8002bc0 <LL_GPIO_Init+0xc2>
        {
          LL_GPIO_SetAFPin_0_7(GPIOx, currentpin, GPIO_InitStruct->Alternate);
 8002bb0:	683b      	ldr	r3, [r7, #0]
 8002bb2:	695b      	ldr	r3, [r3, #20]
 8002bb4:	461a      	mov	r2, r3
 8002bb6:	6a39      	ldr	r1, [r7, #32]
 8002bb8:	6878      	ldr	r0, [r7, #4]
 8002bba:	f7ff ff24 	bl	8002a06 <LL_GPIO_SetAFPin_0_7>
 8002bbe:	e006      	b.n	8002bce <LL_GPIO_Init+0xd0>
        }
        else
        {
          LL_GPIO_SetAFPin_8_15(GPIOx, currentpin, GPIO_InitStruct->Alternate);
 8002bc0:	683b      	ldr	r3, [r7, #0]
 8002bc2:	695b      	ldr	r3, [r3, #20]
 8002bc4:	461a      	mov	r2, r3
 8002bc6:	6a39      	ldr	r1, [r7, #32]
 8002bc8:	6878      	ldr	r0, [r7, #4]
 8002bca:	f7ff ff59 	bl	8002a80 <LL_GPIO_SetAFPin_8_15>
        }
      }
      /* Pin Mode configuration */
      LL_GPIO_SetPinMode(GPIOx, currentpin, GPIO_InitStruct->Mode);
 8002bce:	683b      	ldr	r3, [r7, #0]
 8002bd0:	685b      	ldr	r3, [r3, #4]
 8002bd2:	461a      	mov	r2, r3
 8002bd4:	6a39      	ldr	r1, [r7, #32]
 8002bd6:	6878      	ldr	r0, [r7, #4]
 8002bd8:	f7ff fe46 	bl	8002868 <LL_GPIO_SetPinMode>
    }
    pinpos++;
 8002bdc:	6a7b      	ldr	r3, [r7, #36]	@ 0x24
 8002bde:	3301      	adds	r3, #1
 8002be0:	627b      	str	r3, [r7, #36]	@ 0x24
  while (((GPIO_InitStruct->Pin) >> pinpos) != 0U)
 8002be2:	683b      	ldr	r3, [r7, #0]
 8002be4:	681a      	ldr	r2, [r3, #0]
 8002be6:	6a7b      	ldr	r3, [r7, #36]	@ 0x24
 8002be8:	fa22 f303 	lsr.w	r3, r2, r3
 8002bec:	2b00      	cmp	r3, #0
 8002bee:	d19f      	bne.n	8002b30 <LL_GPIO_Init+0x32>
  }

  return (SUCCESS);
 8002bf0:	2300      	movs	r3, #0
}
 8002bf2:	4618      	mov	r0, r3
 8002bf4:	3728      	adds	r7, #40	@ 0x28
 8002bf6:	46bd      	mov	sp, r7
 8002bf8:	bd80      	pop	{r7, pc}

08002bfa <LL_SPI_IsEnabled>:
{
 8002bfa:	b480      	push	{r7}
 8002bfc:	b083      	sub	sp, #12
 8002bfe:	af00      	add	r7, sp, #0
 8002c00:	6078      	str	r0, [r7, #4]
  return ((READ_BIT(SPIx->CR1, SPI_CR1_SPE) == (SPI_CR1_SPE)) ? 1UL : 0UL);
 8002c02:	687b      	ldr	r3, [r7, #4]
 8002c04:	681b      	ldr	r3, [r3, #0]
 8002c06:	f003 0301 	and.w	r3, r3, #1
 8002c0a:	2b01      	cmp	r3, #1
 8002c0c:	d101      	bne.n	8002c12 <LL_SPI_IsEnabled+0x18>
 8002c0e:	2301      	movs	r3, #1
 8002c10:	e000      	b.n	8002c14 <LL_SPI_IsEnabled+0x1a>
 8002c12:	2300      	movs	r3, #0
}
 8002c14:	4618      	mov	r0, r3
 8002c16:	370c      	adds	r7, #12
 8002c18:	46bd      	mov	sp, r7
 8002c1a:	f85d 7b04 	ldr.w	r7, [sp], #4
 8002c1e:	4770      	bx	lr

08002c20 <LL_SPI_SetInternalSSLevel>:
{
 8002c20:	b480      	push	{r7}
 8002c22:	b083      	sub	sp, #12
 8002c24:	af00      	add	r7, sp, #0
 8002c26:	6078      	str	r0, [r7, #4]
 8002c28:	6039      	str	r1, [r7, #0]
  MODIFY_REG(SPIx->CR1, SPI_CR1_SSI, SSLevel);
 8002c2a:	687b      	ldr	r3, [r7, #4]
 8002c2c:	681b      	ldr	r3, [r3, #0]
 8002c2e:	f423 5280 	bic.w	r2, r3, #4096	@ 0x1000
 8002c32:	683b      	ldr	r3, [r7, #0]
 8002c34:	431a      	orrs	r2, r3
 8002c36:	687b      	ldr	r3, [r7, #4]
 8002c38:	601a      	str	r2, [r3, #0]
}
 8002c3a:	bf00      	nop
 8002c3c:	370c      	adds	r7, #12
 8002c3e:	46bd      	mov	sp, r7
 8002c40:	f85d 7b04 	ldr.w	r7, [sp], #4
 8002c44:	4770      	bx	lr

08002c46 <LL_SPI_GetNSSPolarity>:
{
 8002c46:	b480      	push	{r7}
 8002c48:	b083      	sub	sp, #12
 8002c4a:	af00      	add	r7, sp, #0
 8002c4c:	6078      	str	r0, [r7, #4]
  return (uint32_t)(READ_BIT(SPIx->CFG2, SPI_CFG2_SSIOP));
 8002c4e:	687b      	ldr	r3, [r7, #4]
 8002c50:	68db      	ldr	r3, [r3, #12]
 8002c52:	f003 5380 	and.w	r3, r3, #268435456	@ 0x10000000
}
 8002c56:	4618      	mov	r0, r3
 8002c58:	370c      	adds	r7, #12
 8002c5a:	46bd      	mov	sp, r7
 8002c5c:	f85d 7b04 	ldr.w	r7, [sp], #4
 8002c60:	4770      	bx	lr

08002c62 <LL_SPI_SetCRCPolynomial>:
  * @param  SPIx SPI Instance
  * @param  CRCPoly 0..0xFFFFFFFF
  * @retval None
  */
__STATIC_INLINE void LL_SPI_SetCRCPolynomial(SPI_TypeDef *SPIx, uint32_t CRCPoly)
{
 8002c62:	b480      	push	{r7}
 8002c64:	b083      	sub	sp, #12
 8002c66:	af00      	add	r7, sp, #0
 8002c68:	6078      	str	r0, [r7, #4]
 8002c6a:	6039      	str	r1, [r7, #0]
  WRITE_REG(SPIx->CRCPOLY, CRCPoly);
 8002c6c:	687b      	ldr	r3, [r7, #4]
 8002c6e:	683a      	ldr	r2, [r7, #0]
 8002c70:	641a      	str	r2, [r3, #64]	@ 0x40
}
 8002c72:	bf00      	nop
 8002c74:	370c      	adds	r7, #12
 8002c76:	46bd      	mov	sp, r7
 8002c78:	f85d 7b04 	ldr.w	r7, [sp], #4
 8002c7c:	4770      	bx	lr
	...

08002c80 <LL_SPI_Init>:
  * @param  SPIx SPI Instance
  * @param  SPI_InitStruct pointer to a @ref LL_SPI_InitTypeDef structure
  * @retval An ErrorStatus enumeration value. (Return always SUCCESS)
  */
ErrorStatus LL_SPI_Init(SPI_TypeDef *SPIx, LL_SPI_InitTypeDef *SPI_InitStruct)
{
 8002c80:	b580      	push	{r7, lr}
 8002c82:	b086      	sub	sp, #24
 8002c84:	af00      	add	r7, sp, #0
 8002c86:	6078      	str	r0, [r7, #4]
 8002c88:	6039      	str	r1, [r7, #0]
  ErrorStatus status = ERROR;
 8002c8a:	2301      	movs	r3, #1
 8002c8c:	75fb      	strb	r3, [r7, #23]
  assert_param(IS_LL_SPI_BAUDRATEPRESCALER(SPI_InitStruct->BaudRate));
  assert_param(IS_LL_SPI_BITORDER(SPI_InitStruct->BitOrder));
  assert_param(IS_LL_SPI_CRCCALCULATION(SPI_InitStruct->CRCCalculation));

  /* Check the SPI instance is not enabled */
  if (LL_SPI_IsEnabled(SPIx) == 0x00000000UL)
 8002c8e:	6878      	ldr	r0, [r7, #4]
 8002c90:	f7ff ffb3 	bl	8002bfa <LL_SPI_IsEnabled>
 8002c94:	4603      	mov	r3, r0
 8002c96:	2b00      	cmp	r3, #0
 8002c98:	d169      	bne.n	8002d6e <LL_SPI_Init+0xee>
       * Configure SPIx CFG1 with parameters:
       * - Master Baud Rate       : SPI_CFG1_MBR[2:0] bits & SPI_CFG1_BPASS bit
       * - CRC Computation Enable : SPI_CFG1_CRCEN bit
       * - Length of data frame   : SPI_CFG1_DSIZE[4:0] bits
       */
    MODIFY_REG(SPIx->CFG1, SPI_CFG1_BPASS | SPI_CFG1_MBR | SPI_CFG1_CRCEN | SPI_CFG1_DSIZE,
 8002c9a:	687b      	ldr	r3, [r7, #4]
 8002c9c:	689a      	ldr	r2, [r3, #8]
 8002c9e:	4b36      	ldr	r3, [pc, #216]	@ (8002d78 <LL_SPI_Init+0xf8>)
 8002ca0:	4013      	ands	r3, r2
 8002ca2:	683a      	ldr	r2, [r7, #0]
 8002ca4:	6991      	ldr	r1, [r2, #24]
 8002ca6:	683a      	ldr	r2, [r7, #0]
 8002ca8:	6a12      	ldr	r2, [r2, #32]
 8002caa:	4311      	orrs	r1, r2
 8002cac:	683a      	ldr	r2, [r7, #0]
 8002cae:	6892      	ldr	r2, [r2, #8]
 8002cb0:	430a      	orrs	r2, r1
 8002cb2:	431a      	orrs	r2, r3
 8002cb4:	687b      	ldr	r3, [r7, #4]
 8002cb6:	609a      	str	r2, [r3, #8]
               SPI_InitStruct->BaudRate  | SPI_InitStruct->CRCCalculation | SPI_InitStruct->DataWidth);

    tmp_nss  = SPI_InitStruct->NSS;
 8002cb8:	683b      	ldr	r3, [r7, #0]
 8002cba:	695b      	ldr	r3, [r3, #20]
 8002cbc:	613b      	str	r3, [r7, #16]
    tmp_mode = SPI_InitStruct->Mode;
 8002cbe:	683b      	ldr	r3, [r7, #0]
 8002cc0:	685b      	ldr	r3, [r3, #4]
 8002cc2:	60fb      	str	r3, [r7, #12]
    tmp_nss_polarity = LL_SPI_GetNSSPolarity(SPIx);
 8002cc4:	6878      	ldr	r0, [r7, #4]
 8002cc6:	f7ff ffbe 	bl	8002c46 <LL_SPI_GetNSSPolarity>
 8002cca:	60b8      	str	r0, [r7, #8]

    /* Checks to setup Internal SS signal level and avoid a MODF Error */
    if ((tmp_nss == LL_SPI_NSS_SOFT) && (((tmp_nss_polarity == LL_SPI_NSS_POLARITY_LOW)  && \
 8002ccc:	693b      	ldr	r3, [r7, #16]
 8002cce:	f1b3 6f80 	cmp.w	r3, #67108864	@ 0x4000000
 8002cd2:	d112      	bne.n	8002cfa <LL_SPI_Init+0x7a>
 8002cd4:	68bb      	ldr	r3, [r7, #8]
 8002cd6:	2b00      	cmp	r3, #0
 8002cd8:	d103      	bne.n	8002ce2 <LL_SPI_Init+0x62>
 8002cda:	68fb      	ldr	r3, [r7, #12]
 8002cdc:	f5b3 0f80 	cmp.w	r3, #4194304	@ 0x400000
 8002ce0:	d006      	beq.n	8002cf0 <LL_SPI_Init+0x70>
                                          (tmp_mode == LL_SPI_MODE_MASTER))              || \
 8002ce2:	68bb      	ldr	r3, [r7, #8]
 8002ce4:	f1b3 5f80 	cmp.w	r3, #268435456	@ 0x10000000
 8002ce8:	d107      	bne.n	8002cfa <LL_SPI_Init+0x7a>
                                         ((tmp_nss_polarity == LL_SPI_NSS_POLARITY_HIGH) && \
 8002cea:	68fb      	ldr	r3, [r7, #12]
 8002cec:	2b00      	cmp	r3, #0
 8002cee:	d104      	bne.n	8002cfa <LL_SPI_Init+0x7a>
                                          (tmp_mode == LL_SPI_MODE_SLAVE))))
    {
      LL_SPI_SetInternalSSLevel(SPIx, LL_SPI_SS_LEVEL_HIGH);
 8002cf0:	f44f 5180 	mov.w	r1, #4096	@ 0x1000
 8002cf4:	6878      	ldr	r0, [r7, #4]
 8002cf6:	f7ff ff93 	bl	8002c20 <LL_SPI_SetInternalSSLevel>
       * - ClockPhase             : SPI_CFG2_CPHA bit
       * - BitOrder               : SPI_CFG2_LSBFRST bit
       * - Master/Slave Mode      : SPI_CFG2_MASTER bit
       * - SPI Mode               : SPI_CFG2_COMM[1:0] bits
       */
    MODIFY_REG(SPIx->CFG2, SPI_CFG2_SSM   | SPI_CFG2_SSOE    |
 8002cfa:	687b      	ldr	r3, [r7, #4]
 8002cfc:	68db      	ldr	r3, [r3, #12]
 8002cfe:	f023 531f 	bic.w	r3, r3, #666894336	@ 0x27c00000
 8002d02:	f423 23c0 	bic.w	r3, r3, #393216	@ 0x60000
 8002d06:	683a      	ldr	r2, [r7, #0]
 8002d08:	6951      	ldr	r1, [r2, #20]
 8002d0a:	683a      	ldr	r2, [r7, #0]
 8002d0c:	68d2      	ldr	r2, [r2, #12]
 8002d0e:	4311      	orrs	r1, r2
 8002d10:	683a      	ldr	r2, [r7, #0]
 8002d12:	6912      	ldr	r2, [r2, #16]
 8002d14:	4311      	orrs	r1, r2
 8002d16:	683a      	ldr	r2, [r7, #0]
 8002d18:	69d2      	ldr	r2, [r2, #28]
 8002d1a:	4311      	orrs	r1, r2
 8002d1c:	683a      	ldr	r2, [r7, #0]
 8002d1e:	6852      	ldr	r2, [r2, #4]
 8002d20:	4311      	orrs	r1, r2
 8002d22:	683a      	ldr	r2, [r7, #0]
 8002d24:	6812      	ldr	r2, [r2, #0]
 8002d26:	f402 22c0 	and.w	r2, r2, #393216	@ 0x60000
 8002d2a:	430a      	orrs	r2, r1
 8002d2c:	431a      	orrs	r2, r3
 8002d2e:	687b      	ldr	r3, [r7, #4]
 8002d30:	60da      	str	r2, [r3, #12]

    /*---------------------------- SPIx CR1 Configuration ------------------------
       * Configure SPIx CR1 with parameter:
       * - Half Duplex Direction  : SPI_CR1_HDDIR bit
       */
    MODIFY_REG(SPIx->CR1, SPI_CR1_HDDIR, SPI_InitStruct->TransferDirection & SPI_CR1_HDDIR);
 8002d32:	687b      	ldr	r3, [r7, #4]
 8002d34:	681b      	ldr	r3, [r3, #0]
 8002d36:	f423 6200 	bic.w	r2, r3, #2048	@ 0x800
 8002d3a:	683b      	ldr	r3, [r7, #0]
 8002d3c:	681b      	ldr	r3, [r3, #0]
 8002d3e:	f403 6300 	and.w	r3, r3, #2048	@ 0x800
 8002d42:	431a      	orrs	r2, r3
 8002d44:	687b      	ldr	r3, [r7, #4]
 8002d46:	601a      	str	r2, [r3, #0]

    /*---------------------------- SPIx CRCPOLY Configuration ----------------------
       * Configure SPIx CRCPOLY with parameter:
       * - CRCPoly                : CRCPOLY[31:0] bits
       */
    if (SPI_InitStruct->CRCCalculation == LL_SPI_CRCCALCULATION_ENABLE)
 8002d48:	683b      	ldr	r3, [r7, #0]
 8002d4a:	6a1b      	ldr	r3, [r3, #32]
 8002d4c:	f5b3 0f80 	cmp.w	r3, #4194304	@ 0x400000
 8002d50:	d105      	bne.n	8002d5e <LL_SPI_Init+0xde>
    {
      assert_param(IS_LL_SPI_CRC_POLYNOMIAL(SPI_InitStruct->CRCPoly));
      LL_SPI_SetCRCPolynomial(SPIx, SPI_InitStruct->CRCPoly);
 8002d52:	683b      	ldr	r3, [r7, #0]
 8002d54:	6a5b      	ldr	r3, [r3, #36]	@ 0x24
 8002d56:	4619      	mov	r1, r3
 8002d58:	6878      	ldr	r0, [r7, #4]
 8002d5a:	f7ff ff82 	bl	8002c62 <LL_SPI_SetCRCPolynomial>
    }

    /* Activate the SPI mode (Reset I2SMOD bit in I2SCFGR register) */
    CLEAR_BIT(SPIx->I2SCFGR, SPI_I2SCFGR_I2SMOD);
 8002d5e:	687b      	ldr	r3, [r7, #4]
 8002d60:	6d1b      	ldr	r3, [r3, #80]	@ 0x50
 8002d62:	f023 0201 	bic.w	r2, r3, #1
 8002d66:	687b      	ldr	r3, [r7, #4]
 8002d68:	651a      	str	r2, [r3, #80]	@ 0x50

    status = SUCCESS;
 8002d6a:	2300      	movs	r3, #0
 8002d6c:	75fb      	strb	r3, [r7, #23]
  }

  return status;
 8002d6e:	7dfb      	ldrb	r3, [r7, #23]
}
 8002d70:	4618      	mov	r0, r3
 8002d72:	3718      	adds	r7, #24
 8002d74:	46bd      	mov	sp, r7
 8002d76:	bd80      	pop	{r7, pc}
 8002d78:	0fbfffe0 	.word	0x0fbfffe0

08002d7c <LL_TIM_SetPrescaler>:
{
 8002d7c:	b480      	push	{r7}
 8002d7e:	b083      	sub	sp, #12
 8002d80:	af00      	add	r7, sp, #0
 8002d82:	6078      	str	r0, [r7, #4]
 8002d84:	6039      	str	r1, [r7, #0]
  WRITE_REG(TIMx->PSC, Prescaler);
 8002d86:	687b      	ldr	r3, [r7, #4]
 8002d88:	683a      	ldr	r2, [r7, #0]
 8002d8a:	629a      	str	r2, [r3, #40]	@ 0x28
}
 8002d8c:	bf00      	nop
 8002d8e:	370c      	adds	r7, #12
 8002d90:	46bd      	mov	sp, r7
 8002d92:	f85d 7b04 	ldr.w	r7, [sp], #4
 8002d96:	4770      	bx	lr

08002d98 <LL_TIM_SetAutoReload>:
{
 8002d98:	b480      	push	{r7}
 8002d9a:	b083      	sub	sp, #12
 8002d9c:	af00      	add	r7, sp, #0
 8002d9e:	6078      	str	r0, [r7, #4]
 8002da0:	6039      	str	r1, [r7, #0]
  WRITE_REG(TIMx->ARR, AutoReload);
 8002da2:	687b      	ldr	r3, [r7, #4]
 8002da4:	683a      	ldr	r2, [r7, #0]
 8002da6:	62da      	str	r2, [r3, #44]	@ 0x2c
}
 8002da8:	bf00      	nop
 8002daa:	370c      	adds	r7, #12
 8002dac:	46bd      	mov	sp, r7
 8002dae:	f85d 7b04 	ldr.w	r7, [sp], #4
 8002db2:	4770      	bx	lr

08002db4 <LL_TIM_SetRepetitionCounter>:
{
 8002db4:	b480      	push	{r7}
 8002db6:	b083      	sub	sp, #12
 8002db8:	af00      	add	r7, sp, #0
 8002dba:	6078      	str	r0, [r7, #4]
 8002dbc:	6039      	str	r1, [r7, #0]
  WRITE_REG(TIMx->RCR, RepetitionCounter);
 8002dbe:	687b      	ldr	r3, [r7, #4]
 8002dc0:	683a      	ldr	r2, [r7, #0]
 8002dc2:	631a      	str	r2, [r3, #48]	@ 0x30
}
 8002dc4:	bf00      	nop
 8002dc6:	370c      	adds	r7, #12
 8002dc8:	46bd      	mov	sp, r7
 8002dca:	f85d 7b04 	ldr.w	r7, [sp], #4
 8002dce:	4770      	bx	lr

08002dd0 <LL_TIM_GenerateEvent_UPDATE>:
  * @rmtoll EGR          UG            LL_TIM_GenerateEvent_UPDATE
  * @param  TIMx Timer instance
  * @retval None
  */
__STATIC_INLINE void LL_TIM_GenerateEvent_UPDATE(TIM_TypeDef *TIMx)
{
 8002dd0:	b480      	push	{r7}
 8002dd2:	b083      	sub	sp, #12
 8002dd4:	af00      	add	r7, sp, #0
 8002dd6:	6078      	str	r0, [r7, #4]
  SET_BIT(TIMx->EGR, TIM_EGR_UG);
 8002dd8:	687b      	ldr	r3, [r7, #4]
 8002dda:	695b      	ldr	r3, [r3, #20]
 8002ddc:	f043 0201 	orr.w	r2, r3, #1
 8002de0:	687b      	ldr	r3, [r7, #4]
 8002de2:	615a      	str	r2, [r3, #20]
}
 8002de4:	bf00      	nop
 8002de6:	370c      	adds	r7, #12
 8002de8:	46bd      	mov	sp, r7
 8002dea:	f85d 7b04 	ldr.w	r7, [sp], #4
 8002dee:	4770      	bx	lr

08002df0 <LL_TIM_Init>:
  * @retval An ErrorStatus enumeration value:
  *          - SUCCESS: TIMx registers are de-initialized
  *          - ERROR: not applicable
  */
ErrorStatus LL_TIM_Init(TIM_TypeDef *TIMx, const LL_TIM_InitTypeDef *TIM_InitStruct)
{
 8002df0:	b580      	push	{r7, lr}
 8002df2:	b084      	sub	sp, #16
 8002df4:	af00      	add	r7, sp, #0
 8002df6:	6078      	str	r0, [r7, #4]
 8002df8:	6039      	str	r1, [r7, #0]
  /* Check the parameters */
  assert_param(IS_TIM_INSTANCE(TIMx));
  assert_param(IS_LL_TIM_COUNTERMODE(TIM_InitStruct->CounterMode));
  assert_param(IS_LL_TIM_CLOCKDIVISION(TIM_InitStruct->ClockDivision));

  tmpcr1 = LL_TIM_ReadReg(TIMx, CR1);
 8002dfa:	687b      	ldr	r3, [r7, #4]
 8002dfc:	681b      	ldr	r3, [r3, #0]
 8002dfe:	60fb      	str	r3, [r7, #12]

  if (IS_TIM_COUNTER_MODE_SELECT_INSTANCE(TIMx))
 8002e00:	687b      	ldr	r3, [r7, #4]
 8002e02:	4a59      	ldr	r2, [pc, #356]	@ (8002f68 <LL_TIM_Init+0x178>)
 8002e04:	4293      	cmp	r3, r2
 8002e06:	d02b      	beq.n	8002e60 <LL_TIM_Init+0x70>
 8002e08:	687b      	ldr	r3, [r7, #4]
 8002e0a:	4a58      	ldr	r2, [pc, #352]	@ (8002f6c <LL_TIM_Init+0x17c>)
 8002e0c:	4293      	cmp	r3, r2
 8002e0e:	d027      	beq.n	8002e60 <LL_TIM_Init+0x70>
 8002e10:	687b      	ldr	r3, [r7, #4]
 8002e12:	f1b3 4f80 	cmp.w	r3, #1073741824	@ 0x40000000
 8002e16:	d023      	beq.n	8002e60 <LL_TIM_Init+0x70>
 8002e18:	687b      	ldr	r3, [r7, #4]
 8002e1a:	f1b3 4fa0 	cmp.w	r3, #1342177280	@ 0x50000000
 8002e1e:	d01f      	beq.n	8002e60 <LL_TIM_Init+0x70>
 8002e20:	687b      	ldr	r3, [r7, #4]
 8002e22:	4a53      	ldr	r2, [pc, #332]	@ (8002f70 <LL_TIM_Init+0x180>)
 8002e24:	4293      	cmp	r3, r2
 8002e26:	d01b      	beq.n	8002e60 <LL_TIM_Init+0x70>
 8002e28:	687b      	ldr	r3, [r7, #4]
 8002e2a:	4a52      	ldr	r2, [pc, #328]	@ (8002f74 <LL_TIM_Init+0x184>)
 8002e2c:	4293      	cmp	r3, r2
 8002e2e:	d017      	beq.n	8002e60 <LL_TIM_Init+0x70>
 8002e30:	687b      	ldr	r3, [r7, #4]
 8002e32:	4a51      	ldr	r2, [pc, #324]	@ (8002f78 <LL_TIM_Init+0x188>)
 8002e34:	4293      	cmp	r3, r2
 8002e36:	d013      	beq.n	8002e60 <LL_TIM_Init+0x70>
 8002e38:	687b      	ldr	r3, [r7, #4]
 8002e3a:	4a50      	ldr	r2, [pc, #320]	@ (8002f7c <LL_TIM_Init+0x18c>)
 8002e3c:	4293      	cmp	r3, r2
 8002e3e:	d00f      	beq.n	8002e60 <LL_TIM_Init+0x70>
 8002e40:	687b      	ldr	r3, [r7, #4]
 8002e42:	4a4f      	ldr	r2, [pc, #316]	@ (8002f80 <LL_TIM_Init+0x190>)
 8002e44:	4293      	cmp	r3, r2
 8002e46:	d00b      	beq.n	8002e60 <LL_TIM_Init+0x70>
 8002e48:	687b      	ldr	r3, [r7, #4]
 8002e4a:	4a4e      	ldr	r2, [pc, #312]	@ (8002f84 <LL_TIM_Init+0x194>)
 8002e4c:	4293      	cmp	r3, r2
 8002e4e:	d007      	beq.n	8002e60 <LL_TIM_Init+0x70>
 8002e50:	687b      	ldr	r3, [r7, #4]
 8002e52:	4a4d      	ldr	r2, [pc, #308]	@ (8002f88 <LL_TIM_Init+0x198>)
 8002e54:	4293      	cmp	r3, r2
 8002e56:	d003      	beq.n	8002e60 <LL_TIM_Init+0x70>
 8002e58:	687b      	ldr	r3, [r7, #4]
 8002e5a:	4a4c      	ldr	r2, [pc, #304]	@ (8002f8c <LL_TIM_Init+0x19c>)
 8002e5c:	4293      	cmp	r3, r2
 8002e5e:	d106      	bne.n	8002e6e <LL_TIM_Init+0x7e>
  {
    /* Select the Counter Mode */
    MODIFY_REG(tmpcr1, (TIM_CR1_DIR | TIM_CR1_CMS), TIM_InitStruct->CounterMode);
 8002e60:	68fb      	ldr	r3, [r7, #12]
 8002e62:	f023 0270 	bic.w	r2, r3, #112	@ 0x70
 8002e66:	683b      	ldr	r3, [r7, #0]
 8002e68:	685b      	ldr	r3, [r3, #4]
 8002e6a:	4313      	orrs	r3, r2
 8002e6c:	60fb      	str	r3, [r7, #12]
  }

  if (IS_TIM_CLOCK_DIVISION_INSTANCE(TIMx))
 8002e6e:	687b      	ldr	r3, [r7, #4]
 8002e70:	4a3d      	ldr	r2, [pc, #244]	@ (8002f68 <LL_TIM_Init+0x178>)
 8002e72:	4293      	cmp	r3, r2
 8002e74:	d03b      	beq.n	8002eee <LL_TIM_Init+0xfe>
 8002e76:	687b      	ldr	r3, [r7, #4]
 8002e78:	4a3c      	ldr	r2, [pc, #240]	@ (8002f6c <LL_TIM_Init+0x17c>)
 8002e7a:	4293      	cmp	r3, r2
 8002e7c:	d037      	beq.n	8002eee <LL_TIM_Init+0xfe>
 8002e7e:	687b      	ldr	r3, [r7, #4]
 8002e80:	f1b3 4f80 	cmp.w	r3, #1073741824	@ 0x40000000
 8002e84:	d033      	beq.n	8002eee <LL_TIM_Init+0xfe>
 8002e86:	687b      	ldr	r3, [r7, #4]
 8002e88:	f1b3 4fa0 	cmp.w	r3, #1342177280	@ 0x50000000
 8002e8c:	d02f      	beq.n	8002eee <LL_TIM_Init+0xfe>
 8002e8e:	687b      	ldr	r3, [r7, #4]
 8002e90:	4a37      	ldr	r2, [pc, #220]	@ (8002f70 <LL_TIM_Init+0x180>)
 8002e92:	4293      	cmp	r3, r2
 8002e94:	d02b      	beq.n	8002eee <LL_TIM_Init+0xfe>
 8002e96:	687b      	ldr	r3, [r7, #4]
 8002e98:	4a36      	ldr	r2, [pc, #216]	@ (8002f74 <LL_TIM_Init+0x184>)
 8002e9a:	4293      	cmp	r3, r2
 8002e9c:	d027      	beq.n	8002eee <LL_TIM_Init+0xfe>
 8002e9e:	687b      	ldr	r3, [r7, #4]
 8002ea0:	4a35      	ldr	r2, [pc, #212]	@ (8002f78 <LL_TIM_Init+0x188>)
 8002ea2:	4293      	cmp	r3, r2
 8002ea4:	d023      	beq.n	8002eee <LL_TIM_Init+0xfe>
 8002ea6:	687b      	ldr	r3, [r7, #4]
 8002ea8:	4a34      	ldr	r2, [pc, #208]	@ (8002f7c <LL_TIM_Init+0x18c>)
 8002eaa:	4293      	cmp	r3, r2
 8002eac:	d01f      	beq.n	8002eee <LL_TIM_Init+0xfe>
 8002eae:	687b      	ldr	r3, [r7, #4]
 8002eb0:	4a33      	ldr	r2, [pc, #204]	@ (8002f80 <LL_TIM_Init+0x190>)
 8002eb2:	4293      	cmp	r3, r2
 8002eb4:	d01b      	beq.n	8002eee <LL_TIM_Init+0xfe>
 8002eb6:	687b      	ldr	r3, [r7, #4]
 8002eb8:	4a32      	ldr	r2, [pc, #200]	@ (8002f84 <LL_TIM_Init+0x194>)
 8002eba:	4293      	cmp	r3, r2
 8002ebc:	d017      	beq.n	8002eee <LL_TIM_Init+0xfe>
 8002ebe:	687b      	ldr	r3, [r7, #4]
 8002ec0:	4a31      	ldr	r2, [pc, #196]	@ (8002f88 <LL_TIM_Init+0x198>)
 8002ec2:	4293      	cmp	r3, r2
 8002ec4:	d013      	beq.n	8002eee <LL_TIM_Init+0xfe>
 8002ec6:	687b      	ldr	r3, [r7, #4]
 8002ec8:	4a30      	ldr	r2, [pc, #192]	@ (8002f8c <LL_TIM_Init+0x19c>)
 8002eca:	4293      	cmp	r3, r2
 8002ecc:	d00f      	beq.n	8002eee <LL_TIM_Init+0xfe>
 8002ece:	687b      	ldr	r3, [r7, #4]
 8002ed0:	4a2f      	ldr	r2, [pc, #188]	@ (8002f90 <LL_TIM_Init+0x1a0>)
 8002ed2:	4293      	cmp	r3, r2
 8002ed4:	d00b      	beq.n	8002eee <LL_TIM_Init+0xfe>
 8002ed6:	687b      	ldr	r3, [r7, #4]
 8002ed8:	4a2e      	ldr	r2, [pc, #184]	@ (8002f94 <LL_TIM_Init+0x1a4>)
 8002eda:	4293      	cmp	r3, r2
 8002edc:	d007      	beq.n	8002eee <LL_TIM_Init+0xfe>
 8002ede:	687b      	ldr	r3, [r7, #4]
 8002ee0:	4a2d      	ldr	r2, [pc, #180]	@ (8002f98 <LL_TIM_Init+0x1a8>)
 8002ee2:	4293      	cmp	r3, r2
 8002ee4:	d003      	beq.n	8002eee <LL_TIM_Init+0xfe>
 8002ee6:	687b      	ldr	r3, [r7, #4]
 8002ee8:	4a2c      	ldr	r2, [pc, #176]	@ (8002f9c <LL_TIM_Init+0x1ac>)
 8002eea:	4293      	cmp	r3, r2
 8002eec:	d106      	bne.n	8002efc <LL_TIM_Init+0x10c>
  {
    /* Set the clock division */
    MODIFY_REG(tmpcr1, TIM_CR1_CKD, TIM_InitStruct->ClockDivision);
 8002eee:	68fb      	ldr	r3, [r7, #12]
 8002ef0:	f423 7240 	bic.w	r2, r3, #768	@ 0x300
 8002ef4:	683b      	ldr	r3, [r7, #0]
 8002ef6:	68db      	ldr	r3, [r3, #12]
 8002ef8:	4313      	orrs	r3, r2
 8002efa:	60fb      	str	r3, [r7, #12]
  }

  /* Write to TIMx CR1 */
  LL_TIM_WriteReg(TIMx, CR1, tmpcr1);
 8002efc:	687b      	ldr	r3, [r7, #4]
 8002efe:	68fa      	ldr	r2, [r7, #12]
 8002f00:	601a      	str	r2, [r3, #0]

  /* Set the Autoreload value */
  LL_TIM_SetAutoReload(TIMx, TIM_InitStruct->Autoreload);
 8002f02:	683b      	ldr	r3, [r7, #0]
 8002f04:	689b      	ldr	r3, [r3, #8]
 8002f06:	4619      	mov	r1, r3
 8002f08:	6878      	ldr	r0, [r7, #4]
 8002f0a:	f7ff ff45 	bl	8002d98 <LL_TIM_SetAutoReload>

  /* Set the Prescaler value */
  LL_TIM_SetPrescaler(TIMx, TIM_InitStruct->Prescaler);
 8002f0e:	683b      	ldr	r3, [r7, #0]
 8002f10:	881b      	ldrh	r3, [r3, #0]
 8002f12:	4619      	mov	r1, r3
 8002f14:	6878      	ldr	r0, [r7, #4]
 8002f16:	f7ff ff31 	bl	8002d7c <LL_TIM_SetPrescaler>

  if (IS_TIM_REPETITION_COUNTER_INSTANCE(TIMx))
 8002f1a:	687b      	ldr	r3, [r7, #4]
 8002f1c:	4a12      	ldr	r2, [pc, #72]	@ (8002f68 <LL_TIM_Init+0x178>)
 8002f1e:	4293      	cmp	r3, r2
 8002f20:	d013      	beq.n	8002f4a <LL_TIM_Init+0x15a>
 8002f22:	687b      	ldr	r3, [r7, #4]
 8002f24:	4a11      	ldr	r2, [pc, #68]	@ (8002f6c <LL_TIM_Init+0x17c>)
 8002f26:	4293      	cmp	r3, r2
 8002f28:	d00f      	beq.n	8002f4a <LL_TIM_Init+0x15a>
 8002f2a:	687b      	ldr	r3, [r7, #4]
 8002f2c:	4a16      	ldr	r2, [pc, #88]	@ (8002f88 <LL_TIM_Init+0x198>)
 8002f2e:	4293      	cmp	r3, r2
 8002f30:	d00b      	beq.n	8002f4a <LL_TIM_Init+0x15a>
 8002f32:	687b      	ldr	r3, [r7, #4]
 8002f34:	4a15      	ldr	r2, [pc, #84]	@ (8002f8c <LL_TIM_Init+0x19c>)
 8002f36:	4293      	cmp	r3, r2
 8002f38:	d007      	beq.n	8002f4a <LL_TIM_Init+0x15a>
 8002f3a:	687b      	ldr	r3, [r7, #4]
 8002f3c:	4a16      	ldr	r2, [pc, #88]	@ (8002f98 <LL_TIM_Init+0x1a8>)
 8002f3e:	4293      	cmp	r3, r2
 8002f40:	d003      	beq.n	8002f4a <LL_TIM_Init+0x15a>
 8002f42:	687b      	ldr	r3, [r7, #4]
 8002f44:	4a15      	ldr	r2, [pc, #84]	@ (8002f9c <LL_TIM_Init+0x1ac>)
 8002f46:	4293      	cmp	r3, r2
 8002f48:	d105      	bne.n	8002f56 <LL_TIM_Init+0x166>
  {
    /* Set the Repetition Counter value */
    LL_TIM_SetRepetitionCounter(TIMx, TIM_InitStruct->RepetitionCounter);
 8002f4a:	683b      	ldr	r3, [r7, #0]
 8002f4c:	691b      	ldr	r3, [r3, #16]
 8002f4e:	4619      	mov	r1, r3
 8002f50:	6878      	ldr	r0, [r7, #4]
 8002f52:	f7ff ff2f 	bl	8002db4 <LL_TIM_SetRepetitionCounter>
  }

  /* Generate an update event to reload the Prescaler
     and the repetition counter value (if applicable) immediately */
  LL_TIM_GenerateEvent_UPDATE(TIMx);
 8002f56:	6878      	ldr	r0, [r7, #4]
 8002f58:	f7ff ff3a 	bl	8002dd0 <LL_TIM_GenerateEvent_UPDATE>

  return SUCCESS;
 8002f5c:	2300      	movs	r3, #0
}
 8002f5e:	4618      	mov	r0, r3
 8002f60:	3710      	adds	r7, #16
 8002f62:	46bd      	mov	sp, r7
 8002f64:	bd80      	pop	{r7, pc}
 8002f66:	bf00      	nop
 8002f68:	40012c00 	.word	0x40012c00
 8002f6c:	50012c00 	.word	0x50012c00
 8002f70:	40000400 	.word	0x40000400
 8002f74:	50000400 	.word	0x50000400
 8002f78:	40000800 	.word	0x40000800
 8002f7c:	50000800 	.word	0x50000800
 8002f80:	40000c00 	.word	0x40000c00
 8002f84:	50000c00 	.word	0x50000c00
 8002f88:	40013400 	.word	0x40013400
 8002f8c:	50013400 	.word	0x50013400
 8002f90:	40001800 	.word	0x40001800
 8002f94:	50001800 	.word	0x50001800
 8002f98:	40014000 	.word	0x40014000
 8002f9c:	50014000 	.word	0x50014000

08002fa0 <LL_InitTick>:
  *         configuration by calling this function, for a delay use rather osDelay RTOS service.
  * @param  Ticks Number of ticks
  * @retval None
  */
__STATIC_INLINE void LL_InitTick(uint32_t HCLKFrequency, uint32_t Ticks)
{
 8002fa0:	b480      	push	{r7}
 8002fa2:	b083      	sub	sp, #12
 8002fa4:	af00      	add	r7, sp, #0
 8002fa6:	6078      	str	r0, [r7, #4]
 8002fa8:	6039      	str	r1, [r7, #0]
  /* Configure the SysTick to have interrupt in 1ms time base */
  SysTick->LOAD  = (uint32_t)((HCLKFrequency / Ticks) - 1UL);  /* set reload register */
 8002faa:	687a      	ldr	r2, [r7, #4]
 8002fac:	683b      	ldr	r3, [r7, #0]
 8002fae:	fbb2 f3f3 	udiv	r3, r2, r3
 8002fb2:	4a07      	ldr	r2, [pc, #28]	@ (8002fd0 <LL_InitTick+0x30>)
 8002fb4:	3b01      	subs	r3, #1
 8002fb6:	6053      	str	r3, [r2, #4]
  SysTick->VAL   = 0UL;                                       /* Load the SysTick Counter Value */
 8002fb8:	4b05      	ldr	r3, [pc, #20]	@ (8002fd0 <LL_InitTick+0x30>)
 8002fba:	2200      	movs	r2, #0
 8002fbc:	609a      	str	r2, [r3, #8]
  SysTick->CTRL  = SysTick_CTRL_CLKSOURCE_Msk |
 8002fbe:	4b04      	ldr	r3, [pc, #16]	@ (8002fd0 <LL_InitTick+0x30>)
 8002fc0:	2205      	movs	r2, #5
 8002fc2:	601a      	str	r2, [r3, #0]
                   SysTick_CTRL_ENABLE_Msk;                   /* Enable the Systick Timer */
}
 8002fc4:	bf00      	nop
 8002fc6:	370c      	adds	r7, #12
 8002fc8:	46bd      	mov	sp, r7
 8002fca:	f85d 7b04 	ldr.w	r7, [sp], #4
 8002fce:	4770      	bx	lr
 8002fd0:	e000e010 	.word	0xe000e010

08002fd4 <LL_Init1msTick>:
  * @param  HCLKFrequency HCLK frequency in Hz
  * @note   HCLK frequency can be calculated thanks to RCC helper macro or function @ref LL_RCC_GetSystemClocksFreq
  * @retval None
  */
void LL_Init1msTick(uint32_t HCLKFrequency)
{
 8002fd4:	b580      	push	{r7, lr}
 8002fd6:	b082      	sub	sp, #8
 8002fd8:	af00      	add	r7, sp, #0
 8002fda:	6078      	str	r0, [r7, #4]
  /* Use frequency provided in argument */
  LL_InitTick(HCLKFrequency, 1000U);
 8002fdc:	f44f 717a 	mov.w	r1, #1000	@ 0x3e8
 8002fe0:	6878      	ldr	r0, [r7, #4]
 8002fe2:	f7ff ffdd 	bl	8002fa0 <LL_InitTick>
}
 8002fe6:	bf00      	nop
 8002fe8:	3708      	adds	r7, #8
 8002fea:	46bd      	mov	sp, r7
 8002fec:	bd80      	pop	{r7, pc}
	...

08002ff0 <LL_SetSystemCoreClock>:
  * @note   Variable can be calculated also through SystemCoreClockUpdate function.
  * @param  HCLKFrequency HCLK frequency in Hz (can be calculated thanks to RCC helper macro)
  * @retval None
  */
void LL_SetSystemCoreClock(uint32_t HCLKFrequency)
{
 8002ff0:	b480      	push	{r7}
 8002ff2:	b083      	sub	sp, #12
 8002ff4:	af00      	add	r7, sp, #0
 8002ff6:	6078      	str	r0, [r7, #4]
  /* HCLK clock frequency */
  SystemCoreClock = HCLKFrequency;
 8002ff8:	4a04      	ldr	r2, [pc, #16]	@ (800300c <LL_SetSystemCoreClock+0x1c>)
 8002ffa:	687b      	ldr	r3, [r7, #4]
 8002ffc:	6013      	str	r3, [r2, #0]
}
 8002ffe:	bf00      	nop
 8003000:	370c      	adds	r7, #12
 8003002:	46bd      	mov	sp, r7
 8003004:	f85d 7b04 	ldr.w	r7, [sp], #4
 8003008:	4770      	bx	lr
 800300a:	bf00      	nop
 800300c:	20000000 	.word	0x20000000

08003010 <__Custom_Exception_Set_Message>:

void Custom_Exception_Reset() {
	_message = CUSTOM_EXCEPTION_MSG_NONE;
}

void __Custom_Exception_Set_Message(char *file, int line, char *message) {
 8003010:	b480      	push	{r7}
 8003012:	b085      	sub	sp, #20
 8003014:	af00      	add	r7, sp, #0
 8003016:	60f8      	str	r0, [r7, #12]
 8003018:	60b9      	str	r1, [r7, #8]
 800301a:	607a      	str	r2, [r7, #4]
	_file = file;
 800301c:	4a07      	ldr	r2, [pc, #28]	@ (800303c <__Custom_Exception_Set_Message+0x2c>)
 800301e:	68fb      	ldr	r3, [r7, #12]
 8003020:	6013      	str	r3, [r2, #0]
	_line = line;
 8003022:	4a07      	ldr	r2, [pc, #28]	@ (8003040 <__Custom_Exception_Set_Message+0x30>)
 8003024:	68bb      	ldr	r3, [r7, #8]
 8003026:	6013      	str	r3, [r2, #0]
	_message = message;
 8003028:	4a06      	ldr	r2, [pc, #24]	@ (8003044 <__Custom_Exception_Set_Message+0x34>)
 800302a:	687b      	ldr	r3, [r7, #4]
 800302c:	6013      	str	r3, [r2, #0]
}
 800302e:	bf00      	nop
 8003030:	3714      	adds	r7, #20
 8003032:	46bd      	mov	sp, r7
 8003034:	f85d 7b04 	ldr.w	r7, [sp], #4
 8003038:	4770      	bx	lr
 800303a:	bf00      	nop
 800303c:	200001f0 	.word	0x200001f0
 8003040:	200001f4 	.word	0x200001f4
 8003044:	200001f8 	.word	0x200001f8

08003048 <Custom_FileSystem_Load>:
typedef union {
	FileInfo_t fileInfo;
	uint8_t bytes[FILEINFO_SIZE];
} FileInfo_u;

void Custom_FileSystem_Load() {
 8003048:	b580      	push	{r7, lr}
 800304a:	af00      	add	r7, sp, #0
	Custom_Flash_Read(filesystem, FILESYSTEM_SIZE);
 800304c:	f44f 5180 	mov.w	r1, #4096	@ 0x1000
 8003050:	4803      	ldr	r0, [pc, #12]	@ (8003060 <Custom_FileSystem_Load+0x18>)
 8003052:	f000 f851 	bl	80030f8 <Custom_Flash_Read>
	filesystemLoaded = true;
 8003056:	4b03      	ldr	r3, [pc, #12]	@ (8003064 <Custom_FileSystem_Load+0x1c>)
 8003058:	2201      	movs	r2, #1
 800305a:	701a      	strb	r2, [r3, #0]
}
 800305c:	bf00      	nop
 800305e:	bd80      	pop	{r7, pc}
 8003060:	200001fc 	.word	0x200001fc
 8003064:	200011fd 	.word	0x200011fd

08003068 <Custom_Flash_Check_Error>:
 * Flash의 Sector 3에 데이터를 쓰거나 읽는 라이브러리.
 * 읽기, 쓰기 단위는 1byte이다.
 * 만약 정상적으로 읽기, 쓰기가 잘 이루어졌다면 CUSTOM_FLASH_SUCCESS를 반환하고, 그렇지 않다면 에러를 나타내는 문자열을 반환한다.
 */

bool Custom_Flash_Check_Error() {
 8003068:	b580      	push	{r7, lr}
 800306a:	b082      	sub	sp, #8
 800306c:	af00      	add	r7, sp, #0
	uint32_t fsr = FLASH->NSSR;
 800306e:	4b1c      	ldr	r3, [pc, #112]	@ (80030e0 <Custom_Flash_Check_Error+0x78>)
 8003070:	6a1b      	ldr	r3, [r3, #32]
 8003072:	607b      	str	r3, [r7, #4]
	ASSERT_MSG(!(fsr & FLASH_SR_PGSERR), "Programming sequence error.");
 8003074:	687b      	ldr	r3, [r7, #4]
 8003076:	f403 2380 	and.w	r3, r3, #262144	@ 0x40000
 800307a:	2b00      	cmp	r3, #0
 800307c:	d006      	beq.n	800308c <Custom_Flash_Check_Error+0x24>
 800307e:	4a19      	ldr	r2, [pc, #100]	@ (80030e4 <Custom_Flash_Check_Error+0x7c>)
 8003080:	2113      	movs	r1, #19
 8003082:	4819      	ldr	r0, [pc, #100]	@ (80030e8 <Custom_Flash_Check_Error+0x80>)
 8003084:	f7ff ffc4 	bl	8003010 <__Custom_Exception_Set_Message>
 8003088:	2300      	movs	r3, #0
 800308a:	e024      	b.n	80030d6 <Custom_Flash_Check_Error+0x6e>
	ASSERT_MSG(!(fsr & FLASH_SR_PGSERR), "Programming parallelism error.");
 800308c:	687b      	ldr	r3, [r7, #4]
 800308e:	f403 2380 	and.w	r3, r3, #262144	@ 0x40000
 8003092:	2b00      	cmp	r3, #0
 8003094:	d006      	beq.n	80030a4 <Custom_Flash_Check_Error+0x3c>
 8003096:	4a15      	ldr	r2, [pc, #84]	@ (80030ec <Custom_Flash_Check_Error+0x84>)
 8003098:	2114      	movs	r1, #20
 800309a:	4813      	ldr	r0, [pc, #76]	@ (80030e8 <Custom_Flash_Check_Error+0x80>)
 800309c:	f7ff ffb8 	bl	8003010 <__Custom_Exception_Set_Message>
 80030a0:	2300      	movs	r3, #0
 80030a2:	e018      	b.n	80030d6 <Custom_Flash_Check_Error+0x6e>
	ASSERT_MSG(!(fsr & FLASH_SR_PGSERR), "Programming alignment error.");
 80030a4:	687b      	ldr	r3, [r7, #4]
 80030a6:	f403 2380 	and.w	r3, r3, #262144	@ 0x40000
 80030aa:	2b00      	cmp	r3, #0
 80030ac:	d006      	beq.n	80030bc <Custom_Flash_Check_Error+0x54>
 80030ae:	4a10      	ldr	r2, [pc, #64]	@ (80030f0 <Custom_Flash_Check_Error+0x88>)
 80030b0:	2115      	movs	r1, #21
 80030b2:	480d      	ldr	r0, [pc, #52]	@ (80030e8 <Custom_Flash_Check_Error+0x80>)
 80030b4:	f7ff ffac 	bl	8003010 <__Custom_Exception_Set_Message>
 80030b8:	2300      	movs	r3, #0
 80030ba:	e00c      	b.n	80030d6 <Custom_Flash_Check_Error+0x6e>
	ASSERT_MSG(!(fsr & FLASH_SR_WRPERR), "Write protection error.");
 80030bc:	687b      	ldr	r3, [r7, #4]
 80030be:	f403 3300 	and.w	r3, r3, #131072	@ 0x20000
 80030c2:	2b00      	cmp	r3, #0
 80030c4:	d006      	beq.n	80030d4 <Custom_Flash_Check_Error+0x6c>
 80030c6:	4a0b      	ldr	r2, [pc, #44]	@ (80030f4 <Custom_Flash_Check_Error+0x8c>)
 80030c8:	2116      	movs	r1, #22
 80030ca:	4807      	ldr	r0, [pc, #28]	@ (80030e8 <Custom_Flash_Check_Error+0x80>)
 80030cc:	f7ff ffa0 	bl	8003010 <__Custom_Exception_Set_Message>
 80030d0:	2300      	movs	r3, #0
 80030d2:	e000      	b.n	80030d6 <Custom_Flash_Check_Error+0x6e>

	return true;
 80030d4:	2301      	movs	r3, #1
}
 80030d6:	4618      	mov	r0, r3
 80030d8:	3708      	adds	r7, #8
 80030da:	46bd      	mov	sp, r7
 80030dc:	bd80      	pop	{r7, pc}
 80030de:	bf00      	nop
 80030e0:	40022000 	.word	0x40022000
 80030e4:	08006b18 	.word	0x08006b18
 80030e8:	08006b34 	.word	0x08006b34
 80030ec:	08006b5c 	.word	0x08006b5c
 80030f0:	08006b7c 	.word	0x08006b7c
 80030f4:	08006b9c 	.word	0x08006b9c

080030f8 <Custom_Flash_Read>:

bool Custom_Flash_Read(uint8_t *data, uint32_t length)
{
 80030f8:	b580      	push	{r7, lr}
 80030fa:	b084      	sub	sp, #16
 80030fc:	af00      	add	r7, sp, #0
 80030fe:	6078      	str	r0, [r7, #4]
 8003100:	6039      	str	r1, [r7, #0]
	ASSERT_MSG(length < CUSTOM_FLASH_SIZE, "Data is too large.");
 8003102:	683b      	ldr	r3, [r7, #0]
 8003104:	f5b3 4f80 	cmp.w	r3, #16384	@ 0x4000
 8003108:	d306      	bcc.n	8003118 <Custom_Flash_Read+0x20>
 800310a:	4a12      	ldr	r2, [pc, #72]	@ (8003154 <Custom_Flash_Read+0x5c>)
 800310c:	211d      	movs	r1, #29
 800310e:	4812      	ldr	r0, [pc, #72]	@ (8003158 <Custom_Flash_Read+0x60>)
 8003110:	f7ff ff7e 	bl	8003010 <__Custom_Exception_Set_Message>
 8003114:	2300      	movs	r3, #0
 8003116:	e019      	b.n	800314c <Custom_Flash_Read+0x54>
	for (int i = 0; i < length; i++) {
 8003118:	2300      	movs	r3, #0
 800311a:	60fb      	str	r3, [r7, #12]
 800311c:	e00f      	b.n	800313e <Custom_Flash_Read+0x46>
		uint32_t address = CUSTOM_FLASH_BASE + i;
 800311e:	68fb      	ldr	r3, [r7, #12]
 8003120:	f103 6300 	add.w	r3, r3, #134217728	@ 0x8000000
 8003124:	f503 4340 	add.w	r3, r3, #49152	@ 0xc000
 8003128:	60bb      	str	r3, [r7, #8]
		data[i] = *(__IO uint8_t*) (address);
 800312a:	68ba      	ldr	r2, [r7, #8]
 800312c:	68fb      	ldr	r3, [r7, #12]
 800312e:	6879      	ldr	r1, [r7, #4]
 8003130:	440b      	add	r3, r1
 8003132:	7812      	ldrb	r2, [r2, #0]
 8003134:	b2d2      	uxtb	r2, r2
 8003136:	701a      	strb	r2, [r3, #0]
	for (int i = 0; i < length; i++) {
 8003138:	68fb      	ldr	r3, [r7, #12]
 800313a:	3301      	adds	r3, #1
 800313c:	60fb      	str	r3, [r7, #12]
 800313e:	68fb      	ldr	r3, [r7, #12]
 8003140:	683a      	ldr	r2, [r7, #0]
 8003142:	429a      	cmp	r2, r3
 8003144:	d8eb      	bhi.n	800311e <Custom_Flash_Read+0x26>
	}
	return Custom_Flash_Check_Error();
 8003146:	f7ff ff8f 	bl	8003068 <Custom_Flash_Check_Error>
 800314a:	4603      	mov	r3, r0
}
 800314c:	4618      	mov	r0, r3
 800314e:	3710      	adds	r7, #16
 8003150:	46bd      	mov	sp, r7
 8003152:	bd80      	pop	{r7, pc}
 8003154:	08006bb4 	.word	0x08006bb4
 8003158:	08006b34 	.word	0x08006b34

0800315c <LL_SPI_Enable>:
{
 800315c:	b480      	push	{r7}
 800315e:	b083      	sub	sp, #12
 8003160:	af00      	add	r7, sp, #0
 8003162:	6078      	str	r0, [r7, #4]
  SET_BIT(SPIx->CR1, SPI_CR1_SPE);
 8003164:	687b      	ldr	r3, [r7, #4]
 8003166:	681b      	ldr	r3, [r3, #0]
 8003168:	f043 0201 	orr.w	r2, r3, #1
 800316c:	687b      	ldr	r3, [r7, #4]
 800316e:	601a      	str	r2, [r3, #0]
}
 8003170:	bf00      	nop
 8003172:	370c      	adds	r7, #12
 8003174:	46bd      	mov	sp, r7
 8003176:	f85d 7b04 	ldr.w	r7, [sp], #4
 800317a:	4770      	bx	lr

0800317c <LL_SPI_StartMasterTransfer>:
{
 800317c:	b480      	push	{r7}
 800317e:	b083      	sub	sp, #12
 8003180:	af00      	add	r7, sp, #0
 8003182:	6078      	str	r0, [r7, #4]
  SET_BIT(SPIx->CR1, SPI_CR1_CSTART);
 8003184:	687b      	ldr	r3, [r7, #4]
 8003186:	681b      	ldr	r3, [r3, #0]
 8003188:	f443 7200 	orr.w	r2, r3, #512	@ 0x200
 800318c:	687b      	ldr	r3, [r7, #4]
 800318e:	601a      	str	r2, [r3, #0]
}
 8003190:	bf00      	nop
 8003192:	370c      	adds	r7, #12
 8003194:	46bd      	mov	sp, r7
 8003196:	f85d 7b04 	ldr.w	r7, [sp], #4
 800319a:	4770      	bx	lr

0800319c <LL_SPI_SetTransferDirection>:
{
 800319c:	b480      	push	{r7}
 800319e:	b083      	sub	sp, #12
 80031a0:	af00      	add	r7, sp, #0
 80031a2:	6078      	str	r0, [r7, #4]
 80031a4:	6039      	str	r1, [r7, #0]
  MODIFY_REG(SPIx->CR1, SPI_CR1_HDDIR,  TransferDirection & SPI_CR1_HDDIR);
 80031a6:	687b      	ldr	r3, [r7, #4]
 80031a8:	681b      	ldr	r3, [r3, #0]
 80031aa:	f423 6200 	bic.w	r2, r3, #2048	@ 0x800
 80031ae:	683b      	ldr	r3, [r7, #0]
 80031b0:	f403 6300 	and.w	r3, r3, #2048	@ 0x800
 80031b4:	431a      	orrs	r2, r3
 80031b6:	687b      	ldr	r3, [r7, #4]
 80031b8:	601a      	str	r2, [r3, #0]
  MODIFY_REG(SPIx->CFG2, SPI_CFG2_COMM, TransferDirection & SPI_CFG2_COMM);
 80031ba:	687b      	ldr	r3, [r7, #4]
 80031bc:	68db      	ldr	r3, [r3, #12]
 80031be:	f423 22c0 	bic.w	r2, r3, #393216	@ 0x60000
 80031c2:	683b      	ldr	r3, [r7, #0]
 80031c4:	f403 23c0 	and.w	r3, r3, #393216	@ 0x60000
 80031c8:	431a      	orrs	r2, r3
 80031ca:	687b      	ldr	r3, [r7, #4]
 80031cc:	60da      	str	r2, [r3, #12]
}
 80031ce:	bf00      	nop
 80031d0:	370c      	adds	r7, #12
 80031d2:	46bd      	mov	sp, r7
 80031d4:	f85d 7b04 	ldr.w	r7, [sp], #4
 80031d8:	4770      	bx	lr

080031da <LL_SPI_IsActiveFlag_TXP>:
{
 80031da:	b480      	push	{r7}
 80031dc:	b083      	sub	sp, #12
 80031de:	af00      	add	r7, sp, #0
 80031e0:	6078      	str	r0, [r7, #4]
  return ((READ_BIT(SPIx->SR, SPI_SR_TXP) == (SPI_SR_TXP)) ? 1UL : 0UL);
 80031e2:	687b      	ldr	r3, [r7, #4]
 80031e4:	695b      	ldr	r3, [r3, #20]
 80031e6:	f003 0302 	and.w	r3, r3, #2
 80031ea:	2b02      	cmp	r3, #2
 80031ec:	d101      	bne.n	80031f2 <LL_SPI_IsActiveFlag_TXP+0x18>
 80031ee:	2301      	movs	r3, #1
 80031f0:	e000      	b.n	80031f4 <LL_SPI_IsActiveFlag_TXP+0x1a>
 80031f2:	2300      	movs	r3, #0
}
 80031f4:	4618      	mov	r0, r3
 80031f6:	370c      	adds	r7, #12
 80031f8:	46bd      	mov	sp, r7
 80031fa:	f85d 7b04 	ldr.w	r7, [sp], #4
 80031fe:	4770      	bx	lr

08003200 <LL_SPI_IsActiveFlag_TXC>:
{
 8003200:	b480      	push	{r7}
 8003202:	b083      	sub	sp, #12
 8003204:	af00      	add	r7, sp, #0
 8003206:	6078      	str	r0, [r7, #4]
  return ((READ_BIT(SPIx->SR, SPI_SR_TXC) == (SPI_SR_TXC)) ? 1UL : 0UL);
 8003208:	687b      	ldr	r3, [r7, #4]
 800320a:	695b      	ldr	r3, [r3, #20]
 800320c:	f403 5380 	and.w	r3, r3, #4096	@ 0x1000
 8003210:	f5b3 5f80 	cmp.w	r3, #4096	@ 0x1000
 8003214:	d101      	bne.n	800321a <LL_SPI_IsActiveFlag_TXC+0x1a>
 8003216:	2301      	movs	r3, #1
 8003218:	e000      	b.n	800321c <LL_SPI_IsActiveFlag_TXC+0x1c>
 800321a:	2300      	movs	r3, #0
}
 800321c:	4618      	mov	r0, r3
 800321e:	370c      	adds	r7, #12
 8003220:	46bd      	mov	sp, r7
 8003222:	f85d 7b04 	ldr.w	r7, [sp], #4
 8003226:	4770      	bx	lr

08003228 <LL_SPI_TransmitData8>:
{
 8003228:	b480      	push	{r7}
 800322a:	b083      	sub	sp, #12
 800322c:	af00      	add	r7, sp, #0
 800322e:	6078      	str	r0, [r7, #4]
 8003230:	460b      	mov	r3, r1
 8003232:	70fb      	strb	r3, [r7, #3]
  *((__IO uint8_t *)&SPIx->TXDR) = TxData;
 8003234:	687b      	ldr	r3, [r7, #4]
 8003236:	3320      	adds	r3, #32
 8003238:	78fa      	ldrb	r2, [r7, #3]
 800323a:	701a      	strb	r2, [r3, #0]
}
 800323c:	bf00      	nop
 800323e:	370c      	adds	r7, #12
 8003240:	46bd      	mov	sp, r7
 8003242:	f85d 7b04 	ldr.w	r7, [sp], #4
 8003246:	4770      	bx	lr

08003248 <Custom_GPIO_Set>:
 * 아래 Custom_GPIO_Set 함수 등을 .c 파일에 구현하지 않고 헤더 파일에 static으로 구현하였다.
 * 이는 C언어에서 inline function이 일반 함수와 다르게 취급되기 때문으로, 자세한 이유는 본인도 잘 모르므로 생략한다.
 */

static inline void Custom_GPIO_Set(GPIO_TypeDef *GPIOx, uint32_t PinMask,
		uint32_t value) {
 8003248:	b480      	push	{r7}
 800324a:	b085      	sub	sp, #20
 800324c:	af00      	add	r7, sp, #0
 800324e:	60f8      	str	r0, [r7, #12]
 8003250:	60b9      	str	r1, [r7, #8]
 8003252:	607a      	str	r2, [r7, #4]
	 * 이 분기 예측이 틀릴 경우 로드해둔 명령어는 전혀 쓸 수 없게 되므로 CPU에서는 수 클럭 이상을 낭비한다.
	 * Custom_GPIO_Set 함수와 같은 경우 분기 예측이 틀릴 가능성이 매우 높은 함수다.
	 * 따라서 분기 예측을 할 수 있도록 if문 없이 비트 연산만을 사용하여 GPIO 설정을 구현한 것이다.
	 */

	GPIOx->ODR = (GPIOx->ODR & ~PinMask)
 8003254:	68fb      	ldr	r3, [r7, #12]
 8003256:	695a      	ldr	r2, [r3, #20]
 8003258:	68bb      	ldr	r3, [r7, #8]
 800325a:	43db      	mvns	r3, r3
 800325c:	401a      	ands	r2, r3
			| (PinMask & (((!!value) << 31) >> 31));
 800325e:	687b      	ldr	r3, [r7, #4]
 8003260:	2b00      	cmp	r3, #0
 8003262:	d002      	beq.n	800326a <Custom_GPIO_Set+0x22>
 8003264:	f04f 31ff 	mov.w	r1, #4294967295
 8003268:	e000      	b.n	800326c <Custom_GPIO_Set+0x24>
 800326a:	2100      	movs	r1, #0
 800326c:	68bb      	ldr	r3, [r7, #8]
 800326e:	400b      	ands	r3, r1
 8003270:	431a      	orrs	r2, r3
	GPIOx->ODR = (GPIOx->ODR & ~PinMask)
 8003272:	68fb      	ldr	r3, [r7, #12]
 8003274:	615a      	str	r2, [r3, #20]
		LL_GPIO_SetOutputPin(GPIOx, PinMask);
	}else{
		LL_GPIO_ResetOutputPin(GPIOx, PinMask);
	}
#endif
}
 8003276:	bf00      	nop
 8003278:	3714      	adds	r7, #20
 800327a:	46bd      	mov	sp, r7
 800327c:	f85d 7b04 	ldr.w	r7, [sp], #4
 8003280:	4770      	bx	lr
	...

08003284 <Custom_OLED_SPI_Tramsnit_Blocking>:
 *        매개변수로 전달 받은 데이터의 전송이 완료될 때까지 기다린다. 즉, 동기적(synchronous)으로 동작한다.
 *
 * @param cmd 보낼 명령어의 배열
 * @param length 보낼 명령어들의 총 길이
 */
static inline void Custom_OLED_SPI_Tramsnit_Blocking(const uint8_t data) {
 8003284:	b580      	push	{r7, lr}
 8003286:	b082      	sub	sp, #8
 8003288:	af00      	add	r7, sp, #0
 800328a:	4603      	mov	r3, r0
 800328c:	71fb      	strb	r3, [r7, #7]
	while (!LL_SPI_IsActiveFlag_TXP(OLED_SPI));
 800328e:	bf00      	nop
 8003290:	480c      	ldr	r0, [pc, #48]	@ (80032c4 <Custom_OLED_SPI_Tramsnit_Blocking+0x40>)
 8003292:	f7ff ffa2 	bl	80031da <LL_SPI_IsActiveFlag_TXP>
 8003296:	4603      	mov	r3, r0
 8003298:	2b00      	cmp	r3, #0
 800329a:	d0f9      	beq.n	8003290 <Custom_OLED_SPI_Tramsnit_Blocking+0xc>
	LL_SPI_TransmitData8(OLED_SPI, data);
 800329c:	79fb      	ldrb	r3, [r7, #7]
 800329e:	4619      	mov	r1, r3
 80032a0:	4808      	ldr	r0, [pc, #32]	@ (80032c4 <Custom_OLED_SPI_Tramsnit_Blocking+0x40>)
 80032a2:	f7ff ffc1 	bl	8003228 <LL_SPI_TransmitData8>
	LL_SPI_StartMasterTransfer(OLED_SPI);
 80032a6:	4807      	ldr	r0, [pc, #28]	@ (80032c4 <Custom_OLED_SPI_Tramsnit_Blocking+0x40>)
 80032a8:	f7ff ff68 	bl	800317c <LL_SPI_StartMasterTransfer>
	while (!LL_SPI_IsActiveFlag_TXC(OLED_SPI));
 80032ac:	bf00      	nop
 80032ae:	4805      	ldr	r0, [pc, #20]	@ (80032c4 <Custom_OLED_SPI_Tramsnit_Blocking+0x40>)
 80032b0:	f7ff ffa6 	bl	8003200 <LL_SPI_IsActiveFlag_TXC>
 80032b4:	4603      	mov	r3, r0
 80032b6:	2b00      	cmp	r3, #0
 80032b8:	d0f9      	beq.n	80032ae <Custom_OLED_SPI_Tramsnit_Blocking+0x2a>
}
 80032ba:	bf00      	nop
 80032bc:	bf00      	nop
 80032be:	3708      	adds	r7, #8
 80032c0:	46bd      	mov	sp, r7
 80032c2:	bd80      	pop	{r7, pc}
 80032c4:	40003800 	.word	0x40003800

080032c8 <Custom_OLED_Write_Command>:
 * @brief OLED에 명령을 보내는 함수.
 * 
 * @param cmd 보낼 명령어의 배열
 * @param length 보낼 명령어들의 총 길이
 */
static inline void Custom_OLED_Write_Command(const uint8_t *cmd, size_t length) {
 80032c8:	b580      	push	{r7, lr}
 80032ca:	b084      	sub	sp, #16
 80032cc:	af00      	add	r7, sp, #0
 80032ce:	6078      	str	r0, [r7, #4]
 80032d0:	6039      	str	r1, [r7, #0]
	Custom_GPIO_Set(OLED_DC_GPIO_Port, OLED_DC_Pin, 0); // 0 is command mode
 80032d2:	2200      	movs	r2, #0
 80032d4:	f44f 4180 	mov.w	r1, #16384	@ 0x4000
 80032d8:	4811      	ldr	r0, [pc, #68]	@ (8003320 <Custom_OLED_Write_Command+0x58>)
 80032da:	f7ff ffb5 	bl	8003248 <Custom_GPIO_Set>
	Custom_GPIO_Set(OLED_CS_GPIO_Port, OLED_CS_Pin, 0);
 80032de:	2200      	movs	r2, #0
 80032e0:	f44f 5100 	mov.w	r1, #8192	@ 0x2000
 80032e4:	480e      	ldr	r0, [pc, #56]	@ (8003320 <Custom_OLED_Write_Command+0x58>)
 80032e6:	f7ff ffaf 	bl	8003248 <Custom_GPIO_Set>

	for (int i = 0; i < length; i++) {
 80032ea:	2300      	movs	r3, #0
 80032ec:	60fb      	str	r3, [r7, #12]
 80032ee:	e009      	b.n	8003304 <Custom_OLED_Write_Command+0x3c>
		Custom_OLED_SPI_Tramsnit_Blocking(cmd[i]);
 80032f0:	68fb      	ldr	r3, [r7, #12]
 80032f2:	687a      	ldr	r2, [r7, #4]
 80032f4:	4413      	add	r3, r2
 80032f6:	781b      	ldrb	r3, [r3, #0]
 80032f8:	4618      	mov	r0, r3
 80032fa:	f7ff ffc3 	bl	8003284 <Custom_OLED_SPI_Tramsnit_Blocking>
	for (int i = 0; i < length; i++) {
 80032fe:	68fb      	ldr	r3, [r7, #12]
 8003300:	3301      	adds	r3, #1
 8003302:	60fb      	str	r3, [r7, #12]
 8003304:	68fb      	ldr	r3, [r7, #12]
 8003306:	683a      	ldr	r2, [r7, #0]
 8003308:	429a      	cmp	r2, r3
 800330a:	d8f1      	bhi.n	80032f0 <Custom_OLED_Write_Command+0x28>
	}

	Custom_GPIO_Set(OLED_CS_GPIO_Port, OLED_CS_Pin, 1);
 800330c:	2201      	movs	r2, #1
 800330e:	f44f 5100 	mov.w	r1, #8192	@ 0x2000
 8003312:	4803      	ldr	r0, [pc, #12]	@ (8003320 <Custom_OLED_Write_Command+0x58>)
 8003314:	f7ff ff98 	bl	8003248 <Custom_GPIO_Set>
}
 8003318:	bf00      	nop
 800331a:	3710      	adds	r7, #16
 800331c:	46bd      	mov	sp, r7
 800331e:	bd80      	pop	{r7, pc}
 8003320:	42020400 	.word	0x42020400

08003324 <Custom_OLED_Write_Data>:
 *        매개변수로 전달 받은 데이터를 모두 보낼 때까지 동기적(synchronous)으로 동작한다.
 *
 * @param data 16비트 형태의 색상값들의 배열
 * @param length 보낼 값들의 갯수 (바이트 수가 아님을 주의)
 */
static inline void Custom_OLED_Write_Data(const uint16_t *data, size_t length){
 8003324:	b580      	push	{r7, lr}
 8003326:	b084      	sub	sp, #16
 8003328:	af00      	add	r7, sp, #0
 800332a:	6078      	str	r0, [r7, #4]
 800332c:	6039      	str	r1, [r7, #0]
	Custom_GPIO_Set(OLED_DC_GPIO_Port, OLED_DC_Pin, 1); // 1 is data mode
 800332e:	2201      	movs	r2, #1
 8003330:	f44f 4180 	mov.w	r1, #16384	@ 0x4000
 8003334:	4818      	ldr	r0, [pc, #96]	@ (8003398 <Custom_OLED_Write_Data+0x74>)
 8003336:	f7ff ff87 	bl	8003248 <Custom_GPIO_Set>
	Custom_GPIO_Set(OLED_CS_GPIO_Port, OLED_CS_Pin, 0);
 800333a:	2200      	movs	r2, #0
 800333c:	f44f 5100 	mov.w	r1, #8192	@ 0x2000
 8003340:	4815      	ldr	r0, [pc, #84]	@ (8003398 <Custom_OLED_Write_Data+0x74>)
 8003342:	f7ff ff81 	bl	8003248 <Custom_GPIO_Set>
	 * 그러면, SPI 통신으로 데이터를 8비트씩 보낼 때 0번지 부터 값을 보낼 것이므로 0x1F을 보내고 0x00을 그 다음으로 보낼 것이다.
	 * SSD1331은 C1 C0 B5 B4 B3 데이터가 1인 것으로 인식할 것이며 이러면 안되므로,
	 * 상위 8비트 0x00을 보내고 나서 하위 8비트 0x1F 보내는 식으로 진행해야 한다.
	 * 다른 색상 정보도 마찬가지로 데이터를 전송할 때 상위 8비트를 먼저 보내야 한다.
	 */
	for (int i = 0; i < length; i++) {
 8003346:	2300      	movs	r3, #0
 8003348:	60fb      	str	r3, [r7, #12]
 800334a:	e016      	b.n	800337a <Custom_OLED_Write_Data+0x56>
		Custom_OLED_SPI_Tramsnit_Blocking(data[i] >> 8);   // 상위 8비트 전송
 800334c:	68fb      	ldr	r3, [r7, #12]
 800334e:	005b      	lsls	r3, r3, #1
 8003350:	687a      	ldr	r2, [r7, #4]
 8003352:	4413      	add	r3, r2
 8003354:	881b      	ldrh	r3, [r3, #0]
 8003356:	0a1b      	lsrs	r3, r3, #8
 8003358:	b29b      	uxth	r3, r3
 800335a:	b2db      	uxtb	r3, r3
 800335c:	4618      	mov	r0, r3
 800335e:	f7ff ff91 	bl	8003284 <Custom_OLED_SPI_Tramsnit_Blocking>
		Custom_OLED_SPI_Tramsnit_Blocking(data[i] & 0xFF); // 하위 8비트 전송
 8003362:	68fb      	ldr	r3, [r7, #12]
 8003364:	005b      	lsls	r3, r3, #1
 8003366:	687a      	ldr	r2, [r7, #4]
 8003368:	4413      	add	r3, r2
 800336a:	881b      	ldrh	r3, [r3, #0]
 800336c:	b2db      	uxtb	r3, r3
 800336e:	4618      	mov	r0, r3
 8003370:	f7ff ff88 	bl	8003284 <Custom_OLED_SPI_Tramsnit_Blocking>
	for (int i = 0; i < length; i++) {
 8003374:	68fb      	ldr	r3, [r7, #12]
 8003376:	3301      	adds	r3, #1
 8003378:	60fb      	str	r3, [r7, #12]
 800337a:	68fb      	ldr	r3, [r7, #12]
 800337c:	683a      	ldr	r2, [r7, #0]
 800337e:	429a      	cmp	r2, r3
 8003380:	d8e4      	bhi.n	800334c <Custom_OLED_Write_Data+0x28>
	}

	Custom_GPIO_Set(OLED_CS_GPIO_Port, OLED_CS_Pin, 1);
 8003382:	2201      	movs	r2, #1
 8003384:	f44f 5100 	mov.w	r1, #8192	@ 0x2000
 8003388:	4803      	ldr	r0, [pc, #12]	@ (8003398 <Custom_OLED_Write_Data+0x74>)
 800338a:	f7ff ff5d 	bl	8003248 <Custom_GPIO_Set>
}
 800338e:	bf00      	nop
 8003390:	3710      	adds	r7, #16
 8003392:	46bd      	mov	sp, r7
 8003394:	bd80      	pop	{r7, pc}
 8003396:	bf00      	nop
 8003398:	42020400 	.word	0x42020400

0800339c <Custom_OLED_Set_Window>:
 * @param x1 GDDRAM 시작 열
 * @param y1 GDDRAM 시작 행
 * @param x2 GDDRAM 종료 열
 * @param y2 GDDRAM 종료 행
 */
static inline void Custom_OLED_Set_Window(uint8_t x1, uint8_t y1, uint8_t x2, uint8_t y2) {
 800339c:	b590      	push	{r4, r7, lr}
 800339e:	b085      	sub	sp, #20
 80033a0:	af00      	add	r7, sp, #0
 80033a2:	4604      	mov	r4, r0
 80033a4:	4608      	mov	r0, r1
 80033a6:	4611      	mov	r1, r2
 80033a8:	461a      	mov	r2, r3
 80033aa:	4623      	mov	r3, r4
 80033ac:	71fb      	strb	r3, [r7, #7]
 80033ae:	4603      	mov	r3, r0
 80033b0:	71bb      	strb	r3, [r7, #6]
 80033b2:	460b      	mov	r3, r1
 80033b4:	717b      	strb	r3, [r7, #5]
 80033b6:	4613      	mov	r3, r2
 80033b8:	713b      	strb	r3, [r7, #4]
	const uint8_t cmd[] = {
 80033ba:	2315      	movs	r3, #21
 80033bc:	723b      	strb	r3, [r7, #8]
 80033be:	79fb      	ldrb	r3, [r7, #7]
 80033c0:	727b      	strb	r3, [r7, #9]
 80033c2:	797b      	ldrb	r3, [r7, #5]
 80033c4:	72bb      	strb	r3, [r7, #10]
 80033c6:	2375      	movs	r3, #117	@ 0x75
 80033c8:	72fb      	strb	r3, [r7, #11]
 80033ca:	79bb      	ldrb	r3, [r7, #6]
 80033cc:	733b      	strb	r3, [r7, #12]
 80033ce:	793b      	ldrb	r3, [r7, #4]
 80033d0:	737b      	strb	r3, [r7, #13]
		x1, x2,
		OLED_CMD_SETROW,
		y1, y2,
	};

	Custom_OLED_Write_Command(cmd, sizeof(cmd));
 80033d2:	f107 0308 	add.w	r3, r7, #8
 80033d6:	2106      	movs	r1, #6
 80033d8:	4618      	mov	r0, r3
 80033da:	f7ff ff75 	bl	80032c8 <Custom_OLED_Write_Command>
}
 80033de:	bf00      	nop
 80033e0:	3714      	adds	r7, #20
 80033e2:	46bd      	mov	sp, r7
 80033e4:	bd90      	pop	{r4, r7, pc}

080033e6 <Custom_OLED_Clear>:

void Custom_OLED_Clear() {
 80033e6:	b580      	push	{r7, lr}
 80033e8:	b082      	sub	sp, #8
 80033ea:	af00      	add	r7, sp, #0
	uint16_t data = 0x0000;
 80033ec:	2300      	movs	r3, #0
 80033ee:	807b      	strh	r3, [r7, #2]

	Custom_OLED_Set_Window(0, 0, OLED_WIDTH - 1, OLED_HEIGHT - 1);
 80033f0:	233f      	movs	r3, #63	@ 0x3f
 80033f2:	225f      	movs	r2, #95	@ 0x5f
 80033f4:	2100      	movs	r1, #0
 80033f6:	2000      	movs	r0, #0
 80033f8:	f7ff ffd0 	bl	800339c <Custom_OLED_Set_Window>

    for (int i = 0; i < OLED_WIDTH * OLED_HEIGHT; i++) {
 80033fc:	2300      	movs	r3, #0
 80033fe:	607b      	str	r3, [r7, #4]
 8003400:	e007      	b.n	8003412 <Custom_OLED_Clear+0x2c>
        Custom_OLED_Write_Data(&data, 1);
 8003402:	1cbb      	adds	r3, r7, #2
 8003404:	2101      	movs	r1, #1
 8003406:	4618      	mov	r0, r3
 8003408:	f7ff ff8c 	bl	8003324 <Custom_OLED_Write_Data>
    for (int i = 0; i < OLED_WIDTH * OLED_HEIGHT; i++) {
 800340c:	687b      	ldr	r3, [r7, #4]
 800340e:	3301      	adds	r3, #1
 8003410:	607b      	str	r3, [r7, #4]
 8003412:	687b      	ldr	r3, [r7, #4]
 8003414:	f5b3 5fc0 	cmp.w	r3, #6144	@ 0x1800
 8003418:	dbf3      	blt.n	8003402 <Custom_OLED_Clear+0x1c>
    }
}
 800341a:	bf00      	nop
 800341c:	bf00      	nop
 800341e:	3708      	adds	r7, #8
 8003420:	46bd      	mov	sp, r7
 8003422:	bd80      	pop	{r7, pc}

08003424 <Custom_OLED_Init>:

void Custom_OLED_Init() {
 8003424:	b5b0      	push	{r4, r5, r7, lr}
 8003426:	b08a      	sub	sp, #40	@ 0x28
 8003428:	af00      	add	r7, sp, #0
	// SPI 활성화
	LL_SPI_SetTransferDirection(OLED_SPI, LL_SPI_HALF_DUPLEX_TX);
 800342a:	f44f 21c1 	mov.w	r1, #395264	@ 0x60800
 800342e:	480e      	ldr	r0, [pc, #56]	@ (8003468 <Custom_OLED_Init+0x44>)
 8003430:	f7ff feb4 	bl	800319c <LL_SPI_SetTransferDirection>
	LL_SPI_Enable(OLED_SPI);
 8003434:	480c      	ldr	r0, [pc, #48]	@ (8003468 <Custom_OLED_Init+0x44>)
 8003436:	f7ff fe91 	bl	800315c <LL_SPI_Enable>
	/*
	 * 우리가 사용하는 SSD1331 OLED 모듈의 초기화 명령어들이다.
	 * 아래의 사이트에서 해당 명령어를 참조했으며, SSD1331 데이터시트 8장과 9절을 참조하면 더욱 자세한 내용을 알 수 있다.
	 * https://github.com/adafruit/Adafruit-SSD1331-OLED-Driver-Library-for-Arduino
	 */
	const uint8_t init_cmd[] = {
 800343a:	4b0c      	ldr	r3, [pc, #48]	@ (800346c <Custom_OLED_Init+0x48>)
 800343c:	463c      	mov	r4, r7
 800343e:	461d      	mov	r5, r3
 8003440:	cd0f      	ldmia	r5!, {r0, r1, r2, r3}
 8003442:	c40f      	stmia	r4!, {r0, r1, r2, r3}
 8003444:	cd0f      	ldmia	r5!, {r0, r1, r2, r3}
 8003446:	c40f      	stmia	r4!, {r0, r1, r2, r3}
 8003448:	e895 0003 	ldmia.w	r5, {r0, r1}
 800344c:	6020      	str	r0, [r4, #0]
 800344e:	3404      	adds	r4, #4
 8003450:	7021      	strb	r1, [r4, #0]
		OLED_CMD_CONTRASTB, 0x50,
		OLED_CMD_CONTRASTC, 0x7D,
		OLED_CMD_DISPLAYON
	};

	Custom_OLED_Write_Command(init_cmd, sizeof(init_cmd));
 8003452:	463b      	mov	r3, r7
 8003454:	2125      	movs	r1, #37	@ 0x25
 8003456:	4618      	mov	r0, r3
 8003458:	f7ff ff36 	bl	80032c8 <Custom_OLED_Write_Command>
	Custom_OLED_Clear();
 800345c:	f7ff ffc3 	bl	80033e6 <Custom_OLED_Clear>
}
 8003460:	bf00      	nop
 8003462:	3728      	adds	r7, #40	@ 0x28
 8003464:	46bd      	mov	sp, r7
 8003466:	bdb0      	pop	{r4, r5, r7, pc}
 8003468:	40003800 	.word	0x40003800
 800346c:	08006bfc 	.word	0x08006bfc

08003470 <Custom_OLED_Putchar>:

int Custom_OLED_Putchar(char c, uint16_t color, uint8_t x, uint8_t y, uint8_t size) {
 8003470:	b590      	push	{r4, r7, lr}
 8003472:	b089      	sub	sp, #36	@ 0x24
 8003474:	af00      	add	r7, sp, #0
 8003476:	4604      	mov	r4, r0
 8003478:	4608      	mov	r0, r1
 800347a:	4611      	mov	r1, r2
 800347c:	461a      	mov	r2, r3
 800347e:	4623      	mov	r3, r4
 8003480:	71fb      	strb	r3, [r7, #7]
 8003482:	4603      	mov	r3, r0
 8003484:	80bb      	strh	r3, [r7, #4]
 8003486:	460b      	mov	r3, r1
 8003488:	71bb      	strb	r3, [r7, #6]
 800348a:	4613      	mov	r3, r2
 800348c:	70fb      	strb	r3, [r7, #3]
	uint8_t xe = x + FONT_WIDTH * size - 1;
 800348e:	f897 3030 	ldrb.w	r3, [r7, #48]	@ 0x30
 8003492:	461a      	mov	r2, r3
 8003494:	0092      	lsls	r2, r2, #2
 8003496:	4413      	add	r3, r2
 8003498:	b2da      	uxtb	r2, r3
 800349a:	79bb      	ldrb	r3, [r7, #6]
 800349c:	4413      	add	r3, r2
 800349e:	b2db      	uxtb	r3, r3
 80034a0:	3b01      	subs	r3, #1
 80034a2:	73fb      	strb	r3, [r7, #15]
	uint8_t ye = y + FONT_HEIGHT * size - 1;
 80034a4:	f897 3030 	ldrb.w	r3, [r7, #48]	@ 0x30
 80034a8:	00db      	lsls	r3, r3, #3
 80034aa:	b2da      	uxtb	r2, r3
 80034ac:	78fb      	ldrb	r3, [r7, #3]
 80034ae:	4413      	add	r3, r2
 80034b0:	b2db      	uxtb	r3, r3
 80034b2:	3b01      	subs	r3, #1
 80034b4:	73bb      	strb	r3, [r7, #14]

	if (xe >= OLED_WIDTH || ye >= OLED_HEIGHT) {
 80034b6:	7bfb      	ldrb	r3, [r7, #15]
 80034b8:	2b5f      	cmp	r3, #95	@ 0x5f
 80034ba:	d802      	bhi.n	80034c2 <Custom_OLED_Putchar+0x52>
 80034bc:	7bbb      	ldrb	r3, [r7, #14]
 80034be:	2b3f      	cmp	r3, #63	@ 0x3f
 80034c0:	d902      	bls.n	80034c8 <Custom_OLED_Putchar+0x58>
		// OLED 화면을 넘어서면 유효하지 않은 명령이다.
		return -1;
 80034c2:	f04f 33ff 	mov.w	r3, #4294967295
 80034c6:	e06a      	b.n	800359e <Custom_OLED_Putchar+0x12e>
	}
	// OLED GDDRAM에 데이터를 넣을 시작 위치(x, y)와 종료 위치(xe, ye)를 설정한다.
	Custom_OLED_Set_Window(x, y, xe, ye);
 80034c8:	7bbb      	ldrb	r3, [r7, #14]
 80034ca:	7bfa      	ldrb	r2, [r7, #15]
 80034cc:	78f9      	ldrb	r1, [r7, #3]
 80034ce:	79b8      	ldrb	r0, [r7, #6]
 80034d0:	f7ff ff64 	bl	800339c <Custom_OLED_Set_Window>

	const char *font = FONT[(int)c];
 80034d4:	79fa      	ldrb	r2, [r7, #7]
 80034d6:	4613      	mov	r3, r2
 80034d8:	009b      	lsls	r3, r3, #2
 80034da:	4413      	add	r3, r2
 80034dc:	4a32      	ldr	r2, [pc, #200]	@ (80035a8 <Custom_OLED_Putchar+0x138>)
 80034de:	4413      	add	r3, r2
 80034e0:	60bb      	str	r3, [r7, #8]
	static uint16_t data[FONT_WIDTH * FONT_HEIGHT * 4];

	for (int i = 0; i < FONT_WIDTH; i++) {
 80034e2:	2300      	movs	r3, #0
 80034e4:	61fb      	str	r3, [r7, #28]
 80034e6:	e048      	b.n	800357a <Custom_OLED_Putchar+0x10a>
		for (int j = 0; j < FONT_HEIGHT; j++) {
 80034e8:	2300      	movs	r3, #0
 80034ea:	61bb      	str	r3, [r7, #24]
 80034ec:	e03f      	b.n	800356e <Custom_OLED_Putchar+0xfe>
			for(int x = 0; x < size; x++){
 80034ee:	2300      	movs	r3, #0
 80034f0:	617b      	str	r3, [r7, #20]
 80034f2:	e034      	b.n	800355e <Custom_OLED_Putchar+0xee>
				for(int y = 0; y < size; y++){
 80034f4:	2300      	movs	r3, #0
 80034f6:	613b      	str	r3, [r7, #16]
 80034f8:	e029      	b.n	800354e <Custom_OLED_Putchar+0xde>
			    	data[FONT_HEIGHT * size * (i * size + x) + j*size + y] = font[i] & (1 << j) ? color : 0x0000;
 80034fa:	69fb      	ldr	r3, [r7, #28]
 80034fc:	68ba      	ldr	r2, [r7, #8]
 80034fe:	4413      	add	r3, r2
 8003500:	781b      	ldrb	r3, [r3, #0]
 8003502:	461a      	mov	r2, r3
 8003504:	69bb      	ldr	r3, [r7, #24]
 8003506:	fa42 f303 	asr.w	r3, r2, r3
 800350a:	f003 0301 	and.w	r3, r3, #1
 800350e:	2b00      	cmp	r3, #0
 8003510:	d001      	beq.n	8003516 <Custom_OLED_Putchar+0xa6>
 8003512:	88b8      	ldrh	r0, [r7, #4]
 8003514:	e000      	b.n	8003518 <Custom_OLED_Putchar+0xa8>
 8003516:	2000      	movs	r0, #0
 8003518:	f897 3030 	ldrb.w	r3, [r7, #48]	@ 0x30
 800351c:	f897 2030 	ldrb.w	r2, [r7, #48]	@ 0x30
 8003520:	69f9      	ldr	r1, [r7, #28]
 8003522:	fb02 f101 	mul.w	r1, r2, r1
 8003526:	697a      	ldr	r2, [r7, #20]
 8003528:	440a      	add	r2, r1
 800352a:	fb02 f303 	mul.w	r3, r2, r3
 800352e:	00da      	lsls	r2, r3, #3
 8003530:	f897 3030 	ldrb.w	r3, [r7, #48]	@ 0x30
 8003534:	69b9      	ldr	r1, [r7, #24]
 8003536:	fb01 f303 	mul.w	r3, r1, r3
 800353a:	441a      	add	r2, r3
 800353c:	693b      	ldr	r3, [r7, #16]
 800353e:	4413      	add	r3, r2
 8003540:	4a1a      	ldr	r2, [pc, #104]	@ (80035ac <Custom_OLED_Putchar+0x13c>)
 8003542:	4601      	mov	r1, r0
 8003544:	f822 1013 	strh.w	r1, [r2, r3, lsl #1]
				for(int y = 0; y < size; y++){
 8003548:	693b      	ldr	r3, [r7, #16]
 800354a:	3301      	adds	r3, #1
 800354c:	613b      	str	r3, [r7, #16]
 800354e:	f897 3030 	ldrb.w	r3, [r7, #48]	@ 0x30
 8003552:	693a      	ldr	r2, [r7, #16]
 8003554:	429a      	cmp	r2, r3
 8003556:	dbd0      	blt.n	80034fa <Custom_OLED_Putchar+0x8a>
			for(int x = 0; x < size; x++){
 8003558:	697b      	ldr	r3, [r7, #20]
 800355a:	3301      	adds	r3, #1
 800355c:	617b      	str	r3, [r7, #20]
 800355e:	f897 3030 	ldrb.w	r3, [r7, #48]	@ 0x30
 8003562:	697a      	ldr	r2, [r7, #20]
 8003564:	429a      	cmp	r2, r3
 8003566:	dbc5      	blt.n	80034f4 <Custom_OLED_Putchar+0x84>
		for (int j = 0; j < FONT_HEIGHT; j++) {
 8003568:	69bb      	ldr	r3, [r7, #24]
 800356a:	3301      	adds	r3, #1
 800356c:	61bb      	str	r3, [r7, #24]
 800356e:	69bb      	ldr	r3, [r7, #24]
 8003570:	2b07      	cmp	r3, #7
 8003572:	ddbc      	ble.n	80034ee <Custom_OLED_Putchar+0x7e>
	for (int i = 0; i < FONT_WIDTH; i++) {
 8003574:	69fb      	ldr	r3, [r7, #28]
 8003576:	3301      	adds	r3, #1
 8003578:	61fb      	str	r3, [r7, #28]
 800357a:	69fb      	ldr	r3, [r7, #28]
 800357c:	2b04      	cmp	r3, #4
 800357e:	ddb3      	ble.n	80034e8 <Custom_OLED_Putchar+0x78>
			    }
			}
		}
	}

	Custom_OLED_Write_Data(data, sizeof(data) / sizeof(uint16_t) / 4 * size * size);
 8003580:	f897 3030 	ldrb.w	r3, [r7, #48]	@ 0x30
 8003584:	f897 2030 	ldrb.w	r2, [r7, #48]	@ 0x30
 8003588:	fb03 f202 	mul.w	r2, r3, r2
 800358c:	4613      	mov	r3, r2
 800358e:	009b      	lsls	r3, r3, #2
 8003590:	4413      	add	r3, r2
 8003592:	00db      	lsls	r3, r3, #3
 8003594:	4619      	mov	r1, r3
 8003596:	4805      	ldr	r0, [pc, #20]	@ (80035ac <Custom_OLED_Putchar+0x13c>)
 8003598:	f7ff fec4 	bl	8003324 <Custom_OLED_Write_Data>
	return 0;
 800359c:	2300      	movs	r3, #0
}
 800359e:	4618      	mov	r0, r3
 80035a0:	3724      	adds	r7, #36	@ 0x24
 80035a2:	46bd      	mov	sp, r7
 80035a4:	bd90      	pop	{r4, r7, pc}
 80035a6:	bf00      	nop
 80035a8:	08006c48 	.word	0x08006c48
 80035ac:	20001200 	.word	0x20001200

080035b0 <Custom_OLED_Printf>:

void Custom_OLED_Printf(const char *format, ...) {
 80035b0:	b40f      	push	{r0, r1, r2, r3}
 80035b2:	b590      	push	{r4, r7, lr}
 80035b4:	f5ad 7d0b 	sub.w	sp, sp, #556	@ 0x22c
 80035b8:	af02      	add	r7, sp, #8

	char buffer[OLED_BUFFER_SIZE];
	uint8_t posX = 0;
 80035ba:	2300      	movs	r3, #0
 80035bc:	f887 321f 	strb.w	r3, [r7, #543]	@ 0x21f
	uint8_t posY = 0;
 80035c0:	2300      	movs	r3, #0
 80035c2:	f887 321e 	strb.w	r3, [r7, #542]	@ 0x21e
	
	/*
	 * printf 함수처럼 가변 인자를 받고 vsprintf 함수를 통해 buffer에 서식 문자가 적용된 문자열을 저장한다.
	 */
	va_list args;
	va_start(args, format);
 80035c6:	f507 720d 	add.w	r2, r7, #564	@ 0x234
 80035ca:	f507 7308 	add.w	r3, r7, #544	@ 0x220
 80035ce:	f5a3 7307 	sub.w	r3, r3, #540	@ 0x21c
 80035d2:	601a      	str	r2, [r3, #0]
	vsprintf(buffer, format, args);
 80035d4:	f507 7308 	add.w	r3, r7, #544	@ 0x220
 80035d8:	f5a3 7307 	sub.w	r3, r3, #540	@ 0x21c
 80035dc:	f107 0008 	add.w	r0, r7, #8
 80035e0:	681a      	ldr	r2, [r3, #0]
 80035e2:	f8d7 1230 	ldr.w	r1, [r7, #560]	@ 0x230
 80035e6:	f001 f997 	bl	8004918 <vsiprintf>
	va_end(args);

	/*
	 * Pierre de Starlit(P. J. Kim)의 OLED 서식 문자 표준을 따라 처리한다.
	 */
	int cursor = 0;
 80035ea:	2300      	movs	r3, #0
 80035ec:	f8c7 3218 	str.w	r3, [r7, #536]	@ 0x218
	uint16_t color = OLED_COLOR_WHITE;
 80035f0:	f64f 73ff 	movw	r3, #65535	@ 0xffff
 80035f4:	f8a7 3216 	strh.w	r3, [r7, #534]	@ 0x216
	uint8_t size = 1;
 80035f8:	2301      	movs	r3, #1
 80035fa:	f887 3215 	strb.w	r3, [r7, #533]	@ 0x215

	while (buffer[cursor]) {
 80035fe:	e226      	b.n	8003a4e <Custom_OLED_Printf+0x49e>

		// 서식 문자의 시작을 나타내는 문자
		if (buffer[cursor] == '/') {
 8003600:	f507 7308 	add.w	r3, r7, #544	@ 0x220
 8003604:	f5a3 7206 	sub.w	r2, r3, #536	@ 0x218
 8003608:	f8d7 3218 	ldr.w	r3, [r7, #536]	@ 0x218
 800360c:	4413      	add	r3, r2
 800360e:	781b      	ldrb	r3, [r3, #0]
 8003610:	2b2f      	cmp	r3, #47	@ 0x2f
 8003612:	f040 81f7 	bne.w	8003a04 <Custom_OLED_Printf+0x454>
			char nextChar = buffer[cursor + 1];
 8003616:	f8d7 3218 	ldr.w	r3, [r7, #536]	@ 0x218
 800361a:	3301      	adds	r3, #1
 800361c:	f507 7208 	add.w	r2, r7, #544	@ 0x220
 8003620:	f5a2 7206 	sub.w	r2, r2, #536	@ 0x218
 8003624:	5cd3      	ldrb	r3, [r2, r3]
 8003626:	f887 320b 	strb.w	r3, [r7, #523]	@ 0x20b

			if (nextChar == '/') {
 800362a:	f897 320b 	ldrb.w	r3, [r7, #523]	@ 0x20b
 800362e:	2b2f      	cmp	r3, #47	@ 0x2f
 8003630:	d105      	bne.n	800363e <Custom_OLED_Printf+0x8e>
				cursor += 1;
 8003632:	f8d7 3218 	ldr.w	r3, [r7, #536]	@ 0x218
 8003636:	3301      	adds	r3, #1
 8003638:	f8c7 3218 	str.w	r3, [r7, #536]	@ 0x218
 800363c:	e1e2      	b.n	8003a04 <Custom_OLED_Printf+0x454>

			} else {
				switch (nextChar) {
 800363e:	f897 320b 	ldrb.w	r3, [r7, #523]	@ 0x20b
 8003642:	3b23      	subs	r3, #35	@ 0x23
 8003644:	2b56      	cmp	r3, #86	@ 0x56
 8003646:	f200 81d7 	bhi.w	80039f8 <Custom_OLED_Printf+0x448>
 800364a:	a201      	add	r2, pc, #4	@ (adr r2, 8003650 <Custom_OLED_Printf+0xa0>)
 800364c:	f852 f023 	ldr.w	pc, [r2, r3, lsl #2]
 8003650:	08003869 	.word	0x08003869
 8003654:	080039f9 	.word	0x080039f9
 8003658:	080039f9 	.word	0x080039f9
 800365c:	080039f9 	.word	0x080039f9
 8003660:	080039f9 	.word	0x080039f9
 8003664:	080039f9 	.word	0x080039f9
 8003668:	080039f9 	.word	0x080039f9
 800366c:	080039f9 	.word	0x080039f9
 8003670:	080039f9 	.word	0x080039f9
 8003674:	080039f9 	.word	0x080039f9
 8003678:	080039f9 	.word	0x080039f9
 800367c:	080039f9 	.word	0x080039f9
 8003680:	080039f9 	.word	0x080039f9
 8003684:	080037ad 	.word	0x080037ad
 8003688:	080037ad 	.word	0x080037ad
 800368c:	080037ad 	.word	0x080037ad
 8003690:	080037ad 	.word	0x080037ad
 8003694:	080037ad 	.word	0x080037ad
 8003698:	080037ad 	.word	0x080037ad
 800369c:	080037ad 	.word	0x080037ad
 80036a0:	080039f9 	.word	0x080039f9
 80036a4:	080039f9 	.word	0x080039f9
 80036a8:	080039f9 	.word	0x080039f9
 80036ac:	080039f9 	.word	0x080039f9
 80036b0:	080039f9 	.word	0x080039f9
 80036b4:	080039f9 	.word	0x080039f9
 80036b8:	080039f9 	.word	0x080039f9
 80036bc:	080039f9 	.word	0x080039f9
 80036c0:	080039f9 	.word	0x080039f9
 80036c4:	080039f9 	.word	0x080039f9
 80036c8:	08003859 	.word	0x08003859
 80036cc:	080039f9 	.word	0x080039f9
 80036d0:	080039f9 	.word	0x080039f9
 80036d4:	080039f9 	.word	0x080039f9
 80036d8:	080039f9 	.word	0x080039f9
 80036dc:	080039f9 	.word	0x080039f9
 80036e0:	080039f9 	.word	0x080039f9
 80036e4:	080039f9 	.word	0x080039f9
 80036e8:	080039f9 	.word	0x080039f9
 80036ec:	080039f9 	.word	0x080039f9
 80036f0:	08003847 	.word	0x08003847
 80036f4:	080039f9 	.word	0x080039f9
 80036f8:	080039f9 	.word	0x080039f9
 80036fc:	080039f9 	.word	0x080039f9
 8003700:	080039f9 	.word	0x080039f9
 8003704:	080039f9 	.word	0x080039f9
 8003708:	080039f9 	.word	0x080039f9
 800370c:	080039f9 	.word	0x080039f9
 8003710:	080039f9 	.word	0x080039f9
 8003714:	080039f9 	.word	0x080039f9
 8003718:	080039f9 	.word	0x080039f9
 800371c:	080039f9 	.word	0x080039f9
 8003720:	080039f9 	.word	0x080039f9
 8003724:	080039f9 	.word	0x080039f9
 8003728:	080039f9 	.word	0x080039f9
 800372c:	080039f9 	.word	0x080039f9
 8003730:	080039f9 	.word	0x080039f9
 8003734:	080039f9 	.word	0x080039f9
 8003738:	080039f9 	.word	0x080039f9
 800373c:	080039f9 	.word	0x080039f9
 8003740:	080039f9 	.word	0x080039f9
 8003744:	080039f9 	.word	0x080039f9
 8003748:	08003861 	.word	0x08003861
 800374c:	080037e5 	.word	0x080037e5
 8003750:	080037f7 	.word	0x080037f7
 8003754:	080039f9 	.word	0x080039f9
 8003758:	080039f9 	.word	0x080039f9
 800375c:	080039f9 	.word	0x080039f9
 8003760:	080037db 	.word	0x080037db
 8003764:	080039f9 	.word	0x080039f9
 8003768:	080039f9 	.word	0x080039f9
 800376c:	080039f9 	.word	0x080039f9
 8003770:	08003851 	.word	0x08003851
 8003774:	08003815 	.word	0x08003815
 8003778:	08003801 	.word	0x08003801
 800377c:	080039f9 	.word	0x080039f9
 8003780:	0800380b 	.word	0x0800380b
 8003784:	0800383d 	.word	0x0800383d
 8003788:	080039f9 	.word	0x080039f9
 800378c:	080037d1 	.word	0x080037d1
 8003790:	08003829 	.word	0x08003829
 8003794:	0800381f 	.word	0x0800381f
 8003798:	080039f9 	.word	0x080039f9
 800379c:	08003833 	.word	0x08003833
 80037a0:	080037c7 	.word	0x080037c7
 80037a4:	080039f9 	.word	0x080039f9
 80037a8:	080037ed 	.word	0x080037ed
				// 문자를 표시할 행을 지정하는 서식 문자
				case '0': case '1': case '2': case '3': case '4': case '5': case '6':
					posX = 0;
 80037ac:	2300      	movs	r3, #0
 80037ae:	f887 321f 	strb.w	r3, [r7, #543]	@ 0x21f
					posY = (FONT_HEIGHT + 1) * (nextChar - '0'); // FONT_HEIGHT + 1를 해주는 이유는, 폰트 아래 한 칸 여백을 남겨두기 위함이다.
 80037b2:	f897 320b 	ldrb.w	r3, [r7, #523]	@ 0x20b
 80037b6:	3b30      	subs	r3, #48	@ 0x30
 80037b8:	b2db      	uxtb	r3, r3
 80037ba:	461a      	mov	r2, r3
 80037bc:	00d2      	lsls	r2, r2, #3
 80037be:	4413      	add	r3, r2
 80037c0:	f887 321e 	strb.w	r3, [r7, #542]	@ 0x21e
					break;
 80037c4:	e118      	b.n	80039f8 <Custom_OLED_Printf+0x448>
				// 색상을 지정할 서식 문자
				case 'w': color = OLED_COLOR_WHITE;   break;
 80037c6:	f64f 73ff 	movw	r3, #65535	@ 0xffff
 80037ca:	f8a7 3216 	strh.w	r3, [r7, #534]	@ 0x216
 80037ce:	e113      	b.n	80039f8 <Custom_OLED_Printf+0x448>
				case 'r': color = OLED_COLOR_RED;     break;
 80037d0:	f44f 4378 	mov.w	r3, #63488	@ 0xf800
 80037d4:	f8a7 3216 	strh.w	r3, [r7, #534]	@ 0x216
 80037d8:	e10e      	b.n	80039f8 <Custom_OLED_Printf+0x448>
				case 'g': color = OLED_COLOR_GREEN;   break;
 80037da:	f44f 63fc 	mov.w	r3, #2016	@ 0x7e0
 80037de:	f8a7 3216 	strh.w	r3, [r7, #534]	@ 0x216
 80037e2:	e109      	b.n	80039f8 <Custom_OLED_Printf+0x448>
				case 'b': color = OLED_COLOR_BLUE;    break;
 80037e4:	231f      	movs	r3, #31
 80037e6:	f8a7 3216 	strh.w	r3, [r7, #534]	@ 0x216
 80037ea:	e105      	b.n	80039f8 <Custom_OLED_Printf+0x448>
				case 'y': color = OLED_COLOR_YELLOW;  break;
 80037ec:	f64f 73e0 	movw	r3, #65504	@ 0xffe0
 80037f0:	f8a7 3216 	strh.w	r3, [r7, #534]	@ 0x216
 80037f4:	e100      	b.n	80039f8 <Custom_OLED_Printf+0x448>
				case 'c': color = OLED_COLOR_CYAN;    break;
 80037f6:	f240 73ff 	movw	r3, #2047	@ 0x7ff
 80037fa:	f8a7 3216 	strh.w	r3, [r7, #534]	@ 0x216
 80037fe:	e0fb      	b.n	80039f8 <Custom_OLED_Printf+0x448>
				case 'm': color = OLED_COLOR_MAGENTA; break;
 8003800:	f64f 031f 	movw	r3, #63519	@ 0xf81f
 8003804:	f8a7 3216 	strh.w	r3, [r7, #534]	@ 0x216
 8003808:	e0f6      	b.n	80039f8 <Custom_OLED_Printf+0x448>
				case 'o': color = OLED_COLOR_ORANGE;  break;
 800380a:	f64f 33e0 	movw	r3, #64480	@ 0xfbe0
 800380e:	f8a7 3216 	strh.w	r3, [r7, #534]	@ 0x216
 8003812:	e0f1      	b.n	80039f8 <Custom_OLED_Printf+0x448>
				case 'l': color = OLED_COLOR_LIME;    break;
 8003814:	f647 73e0 	movw	r3, #32736	@ 0x7fe0
 8003818:	f8a7 3216 	strh.w	r3, [r7, #534]	@ 0x216
 800381c:	e0ec      	b.n	80039f8 <Custom_OLED_Printf+0x448>
				case 't': color = OLED_COLOR_MINT;    break;
 800381e:	f240 73ef 	movw	r3, #2031	@ 0x7ef
 8003822:	f8a7 3216 	strh.w	r3, [r7, #534]	@ 0x216
 8003826:	e0e7      	b.n	80039f8 <Custom_OLED_Printf+0x448>
				case 's': color = OLED_COLOR_SEA;     break;
 8003828:	f240 33ff 	movw	r3, #1023	@ 0x3ff
 800382c:	f8a7 3216 	strh.w	r3, [r7, #534]	@ 0x216
 8003830:	e0e2      	b.n	80039f8 <Custom_OLED_Printf+0x448>
				case 'v': color = OLED_COLOR_VIOLET;  break;
 8003832:	f647 031f 	movw	r3, #30751	@ 0x781f
 8003836:	f8a7 3216 	strh.w	r3, [r7, #534]	@ 0x216
 800383a:	e0dd      	b.n	80039f8 <Custom_OLED_Printf+0x448>
				case 'p': color = OLED_COLOR_ROSE;    break;
 800383c:	f64f 030f 	movw	r3, #63503	@ 0xf80f
 8003840:	f8a7 3216 	strh.w	r3, [r7, #534]	@ 0x216
 8003844:	e0d8      	b.n	80039f8 <Custom_OLED_Printf+0x448>
				case 'K': color = OLED_COLOR_GRAY;    break;
 8003846:	f647 33ef 	movw	r3, #31727	@ 0x7bef
 800384a:	f8a7 3216 	strh.w	r3, [r7, #534]	@ 0x216
 800384e:	e0d3      	b.n	80039f8 <Custom_OLED_Printf+0x448>
				case 'k': color = OLED_COLOR_BLACK;   break;
 8003850:	2300      	movs	r3, #0
 8003852:	f8a7 3216 	strh.w	r3, [r7, #534]	@ 0x216
 8003856:	e0cf      	b.n	80039f8 <Custom_OLED_Printf+0x448>
				// TODO: 크기 지정 문자 추가
				case 'A': size = 2;                   break;
 8003858:	2302      	movs	r3, #2
 800385a:	f887 3215 	strb.w	r3, [r7, #533]	@ 0x215
 800385e:	e0cb      	b.n	80039f8 <Custom_OLED_Printf+0x448>
				case 'a': size = 1;                   break;
 8003860:	2301      	movs	r3, #1
 8003862:	f887 3215 	strb.w	r3, [r7, #533]	@ 0x215
 8003866:	e0c7      	b.n	80039f8 <Custom_OLED_Printf+0x448>
				case '#':
                    {
                        uint32_t colordata = 0;
 8003868:	2300      	movs	r3, #0
 800386a:	f8c7 3210 	str.w	r3, [r7, #528]	@ 0x210
                        for(uint32_t i = 0; i < 6; i++){
 800386e:	2300      	movs	r3, #0
 8003870:	f8c7 320c 	str.w	r3, [r7, #524]	@ 0x20c
 8003874:	e099      	b.n	80039aa <Custom_OLED_Printf+0x3fa>
                            if(buffer[cursor + i + 2] >= 'A' && buffer[cursor + i + 2] <= 'F'){
 8003876:	f8d7 2218 	ldr.w	r2, [r7, #536]	@ 0x218
 800387a:	f8d7 320c 	ldr.w	r3, [r7, #524]	@ 0x20c
 800387e:	4413      	add	r3, r2
 8003880:	3302      	adds	r3, #2
 8003882:	f507 7208 	add.w	r2, r7, #544	@ 0x220
 8003886:	f5a2 7206 	sub.w	r2, r2, #536	@ 0x218
 800388a:	5cd3      	ldrb	r3, [r2, r3]
 800388c:	2b40      	cmp	r3, #64	@ 0x40
 800388e:	d924      	bls.n	80038da <Custom_OLED_Printf+0x32a>
 8003890:	f8d7 2218 	ldr.w	r2, [r7, #536]	@ 0x218
 8003894:	f8d7 320c 	ldr.w	r3, [r7, #524]	@ 0x20c
 8003898:	4413      	add	r3, r2
 800389a:	3302      	adds	r3, #2
 800389c:	f507 7208 	add.w	r2, r7, #544	@ 0x220
 80038a0:	f5a2 7206 	sub.w	r2, r2, #536	@ 0x218
 80038a4:	5cd3      	ldrb	r3, [r2, r3]
 80038a6:	2b46      	cmp	r3, #70	@ 0x46
 80038a8:	d817      	bhi.n	80038da <Custom_OLED_Printf+0x32a>
                            	colordata *= 16;
 80038aa:	f8d7 3210 	ldr.w	r3, [r7, #528]	@ 0x210
 80038ae:	011b      	lsls	r3, r3, #4
 80038b0:	f8c7 3210 	str.w	r3, [r7, #528]	@ 0x210
                            	colordata += buffer[cursor + i + 2] - 'A' + 10;
 80038b4:	f8d7 2218 	ldr.w	r2, [r7, #536]	@ 0x218
 80038b8:	f8d7 320c 	ldr.w	r3, [r7, #524]	@ 0x20c
 80038bc:	4413      	add	r3, r2
 80038be:	3302      	adds	r3, #2
 80038c0:	f507 7208 	add.w	r2, r7, #544	@ 0x220
 80038c4:	f5a2 7206 	sub.w	r2, r2, #536	@ 0x218
 80038c8:	5cd3      	ldrb	r3, [r2, r3]
 80038ca:	461a      	mov	r2, r3
 80038cc:	f8d7 3210 	ldr.w	r3, [r7, #528]	@ 0x210
 80038d0:	4413      	add	r3, r2
 80038d2:	3b37      	subs	r3, #55	@ 0x37
 80038d4:	f8c7 3210 	str.w	r3, [r7, #528]	@ 0x210
 80038d8:	e062      	b.n	80039a0 <Custom_OLED_Printf+0x3f0>
                            }
                            else if(buffer[cursor + i + 2] >= 'a' && buffer[cursor + i + 2] <= 'f'){
 80038da:	f8d7 2218 	ldr.w	r2, [r7, #536]	@ 0x218
 80038de:	f8d7 320c 	ldr.w	r3, [r7, #524]	@ 0x20c
 80038e2:	4413      	add	r3, r2
 80038e4:	3302      	adds	r3, #2
 80038e6:	f507 7208 	add.w	r2, r7, #544	@ 0x220
 80038ea:	f5a2 7206 	sub.w	r2, r2, #536	@ 0x218
 80038ee:	5cd3      	ldrb	r3, [r2, r3]
 80038f0:	2b60      	cmp	r3, #96	@ 0x60
 80038f2:	d924      	bls.n	800393e <Custom_OLED_Printf+0x38e>
 80038f4:	f8d7 2218 	ldr.w	r2, [r7, #536]	@ 0x218
 80038f8:	f8d7 320c 	ldr.w	r3, [r7, #524]	@ 0x20c
 80038fc:	4413      	add	r3, r2
 80038fe:	3302      	adds	r3, #2
 8003900:	f507 7208 	add.w	r2, r7, #544	@ 0x220
 8003904:	f5a2 7206 	sub.w	r2, r2, #536	@ 0x218
 8003908:	5cd3      	ldrb	r3, [r2, r3]
 800390a:	2b66      	cmp	r3, #102	@ 0x66
 800390c:	d817      	bhi.n	800393e <Custom_OLED_Printf+0x38e>
                            	colordata *= 16;
 800390e:	f8d7 3210 	ldr.w	r3, [r7, #528]	@ 0x210
 8003912:	011b      	lsls	r3, r3, #4
 8003914:	f8c7 3210 	str.w	r3, [r7, #528]	@ 0x210
                            	colordata += buffer[cursor + i + 2] - 'a' + 10;
 8003918:	f8d7 2218 	ldr.w	r2, [r7, #536]	@ 0x218
 800391c:	f8d7 320c 	ldr.w	r3, [r7, #524]	@ 0x20c
 8003920:	4413      	add	r3, r2
 8003922:	3302      	adds	r3, #2
 8003924:	f507 7208 	add.w	r2, r7, #544	@ 0x220
 8003928:	f5a2 7206 	sub.w	r2, r2, #536	@ 0x218
 800392c:	5cd3      	ldrb	r3, [r2, r3]
 800392e:	461a      	mov	r2, r3
 8003930:	f8d7 3210 	ldr.w	r3, [r7, #528]	@ 0x210
 8003934:	4413      	add	r3, r2
 8003936:	3b57      	subs	r3, #87	@ 0x57
 8003938:	f8c7 3210 	str.w	r3, [r7, #528]	@ 0x210
 800393c:	e030      	b.n	80039a0 <Custom_OLED_Printf+0x3f0>
                            }
                            else if(buffer[cursor + i + 2] >= '0' && buffer[cursor + i + 2] <= '9'){
 800393e:	f8d7 2218 	ldr.w	r2, [r7, #536]	@ 0x218
 8003942:	f8d7 320c 	ldr.w	r3, [r7, #524]	@ 0x20c
 8003946:	4413      	add	r3, r2
 8003948:	3302      	adds	r3, #2
 800394a:	f507 7208 	add.w	r2, r7, #544	@ 0x220
 800394e:	f5a2 7206 	sub.w	r2, r2, #536	@ 0x218
 8003952:	5cd3      	ldrb	r3, [r2, r3]
 8003954:	2b2f      	cmp	r3, #47	@ 0x2f
 8003956:	d923      	bls.n	80039a0 <Custom_OLED_Printf+0x3f0>
 8003958:	f8d7 2218 	ldr.w	r2, [r7, #536]	@ 0x218
 800395c:	f8d7 320c 	ldr.w	r3, [r7, #524]	@ 0x20c
 8003960:	4413      	add	r3, r2
 8003962:	3302      	adds	r3, #2
 8003964:	f507 7208 	add.w	r2, r7, #544	@ 0x220
 8003968:	f5a2 7206 	sub.w	r2, r2, #536	@ 0x218
 800396c:	5cd3      	ldrb	r3, [r2, r3]
 800396e:	2b39      	cmp	r3, #57	@ 0x39
 8003970:	d816      	bhi.n	80039a0 <Custom_OLED_Printf+0x3f0>
                            	colordata *= 16;
 8003972:	f8d7 3210 	ldr.w	r3, [r7, #528]	@ 0x210
 8003976:	011b      	lsls	r3, r3, #4
 8003978:	f8c7 3210 	str.w	r3, [r7, #528]	@ 0x210
                            	colordata += buffer[cursor + i + 2] - '0';
 800397c:	f8d7 2218 	ldr.w	r2, [r7, #536]	@ 0x218
 8003980:	f8d7 320c 	ldr.w	r3, [r7, #524]	@ 0x20c
 8003984:	4413      	add	r3, r2
 8003986:	3302      	adds	r3, #2
 8003988:	f507 7208 	add.w	r2, r7, #544	@ 0x220
 800398c:	f5a2 7206 	sub.w	r2, r2, #536	@ 0x218
 8003990:	5cd3      	ldrb	r3, [r2, r3]
 8003992:	461a      	mov	r2, r3
 8003994:	f8d7 3210 	ldr.w	r3, [r7, #528]	@ 0x210
 8003998:	4413      	add	r3, r2
 800399a:	3b30      	subs	r3, #48	@ 0x30
 800399c:	f8c7 3210 	str.w	r3, [r7, #528]	@ 0x210
                        for(uint32_t i = 0; i < 6; i++){
 80039a0:	f8d7 320c 	ldr.w	r3, [r7, #524]	@ 0x20c
 80039a4:	3301      	adds	r3, #1
 80039a6:	f8c7 320c 	str.w	r3, [r7, #524]	@ 0x20c
 80039aa:	f8d7 320c 	ldr.w	r3, [r7, #524]	@ 0x20c
 80039ae:	2b05      	cmp	r3, #5
 80039b0:	f67f af61 	bls.w	8003876 <Custom_OLED_Printf+0x2c6>
                            }
                        }
                        color = ((colordata >> 8) & 0xF800) | ((colordata >> 5) & 0x07F0) | ((colordata >> 3) & 0x001F);
 80039b4:	f8d7 3210 	ldr.w	r3, [r7, #528]	@ 0x210
 80039b8:	0a1b      	lsrs	r3, r3, #8
 80039ba:	b29b      	uxth	r3, r3
 80039bc:	f423 63ff 	bic.w	r3, r3, #2040	@ 0x7f8
 80039c0:	f023 0307 	bic.w	r3, r3, #7
 80039c4:	b29a      	uxth	r2, r3
 80039c6:	f8d7 3210 	ldr.w	r3, [r7, #528]	@ 0x210
 80039ca:	095b      	lsrs	r3, r3, #5
 80039cc:	b29b      	uxth	r3, r3
 80039ce:	f403 63fe 	and.w	r3, r3, #2032	@ 0x7f0
 80039d2:	b29b      	uxth	r3, r3
 80039d4:	4313      	orrs	r3, r2
 80039d6:	b29a      	uxth	r2, r3
 80039d8:	f8d7 3210 	ldr.w	r3, [r7, #528]	@ 0x210
 80039dc:	08db      	lsrs	r3, r3, #3
 80039de:	b29b      	uxth	r3, r3
 80039e0:	f003 031f 	and.w	r3, r3, #31
 80039e4:	b29b      	uxth	r3, r3
 80039e6:	4313      	orrs	r3, r2
 80039e8:	f8a7 3216 	strh.w	r3, [r7, #534]	@ 0x216

                    }
                cursor += 6;
 80039ec:	f8d7 3218 	ldr.w	r3, [r7, #536]	@ 0x218
 80039f0:	3306      	adds	r3, #6
 80039f2:	f8c7 3218 	str.w	r3, [r7, #536]	@ 0x218
                break;
 80039f6:	bf00      	nop
				}

				cursor += 2;
 80039f8:	f8d7 3218 	ldr.w	r3, [r7, #536]	@ 0x218
 80039fc:	3302      	adds	r3, #2
 80039fe:	f8c7 3218 	str.w	r3, [r7, #536]	@ 0x218
				continue;
 8003a02:	e024      	b.n	8003a4e <Custom_OLED_Printf+0x49e>
			}
		}

		Custom_OLED_Putchar(buffer[cursor], color, posX, posY, size); // 문자를 화면에 표시한다.
 8003a04:	f507 7308 	add.w	r3, r7, #544	@ 0x220
 8003a08:	f5a3 7206 	sub.w	r2, r3, #536	@ 0x218
 8003a0c:	f8d7 3218 	ldr.w	r3, [r7, #536]	@ 0x218
 8003a10:	4413      	add	r3, r2
 8003a12:	7818      	ldrb	r0, [r3, #0]
 8003a14:	f897 421e 	ldrb.w	r4, [r7, #542]	@ 0x21e
 8003a18:	f897 221f 	ldrb.w	r2, [r7, #543]	@ 0x21f
 8003a1c:	f8b7 1216 	ldrh.w	r1, [r7, #534]	@ 0x216
 8003a20:	f897 3215 	ldrb.w	r3, [r7, #533]	@ 0x215
 8003a24:	9300      	str	r3, [sp, #0]
 8003a26:	4623      	mov	r3, r4
 8003a28:	f7ff fd22 	bl	8003470 <Custom_OLED_Putchar>
		posX += (FONT_WIDTH + 1) * size; // FONT_WIDTH + 1를 해주는 이유는, 폰트 오른쪽 한 칸 여백을 남겨두기 위함이다.
 8003a2c:	f897 3215 	ldrb.w	r3, [r7, #533]	@ 0x215
 8003a30:	461a      	mov	r2, r3
 8003a32:	0052      	lsls	r2, r2, #1
 8003a34:	4413      	add	r3, r2
 8003a36:	005b      	lsls	r3, r3, #1
 8003a38:	b2da      	uxtb	r2, r3
 8003a3a:	f897 321f 	ldrb.w	r3, [r7, #543]	@ 0x21f
 8003a3e:	4413      	add	r3, r2
 8003a40:	f887 321f 	strb.w	r3, [r7, #543]	@ 0x21f
		cursor++;
 8003a44:	f8d7 3218 	ldr.w	r3, [r7, #536]	@ 0x218
 8003a48:	3301      	adds	r3, #1
 8003a4a:	f8c7 3218 	str.w	r3, [r7, #536]	@ 0x218
	while (buffer[cursor]) {
 8003a4e:	f507 7308 	add.w	r3, r7, #544	@ 0x220
 8003a52:	f5a3 7206 	sub.w	r2, r3, #536	@ 0x218
 8003a56:	f8d7 3218 	ldr.w	r3, [r7, #536]	@ 0x218
 8003a5a:	4413      	add	r3, r2
 8003a5c:	781b      	ldrb	r3, [r3, #0]
 8003a5e:	2b00      	cmp	r3, #0
 8003a60:	f47f adce 	bne.w	8003600 <Custom_OLED_Printf+0x50>
	}
}
 8003a64:	bf00      	nop
 8003a66:	bf00      	nop
 8003a68:	f507 7709 	add.w	r7, r7, #548	@ 0x224
 8003a6c:	46bd      	mov	sp, r7
 8003a6e:	e8bd 4090 	ldmia.w	sp!, {r4, r7, lr}
 8003a72:	b004      	add	sp, #16
 8003a74:	4770      	bx	lr
 8003a76:	bf00      	nop

08003a78 <LL_GPIO_ReadInputPort>:
{
 8003a78:	b480      	push	{r7}
 8003a7a:	b083      	sub	sp, #12
 8003a7c:	af00      	add	r7, sp, #0
 8003a7e:	6078      	str	r0, [r7, #4]
  return (uint32_t)(READ_REG(GPIOx->IDR));
 8003a80:	687b      	ldr	r3, [r7, #4]
 8003a82:	691b      	ldr	r3, [r3, #16]
}
 8003a84:	4618      	mov	r0, r3
 8003a86:	370c      	adds	r7, #12
 8003a88:	46bd      	mov	sp, r7
 8003a8a:	f85d 7b04 	ldr.w	r7, [sp], #4
 8003a8e:	4770      	bx	lr

08003a90 <Custom_Delay_Get_SysTick>:
}

/**
 * @brief SysTick이 초기화된 시점부터 경과한 시간을 반환한다.
 */
__STATIC_INLINE uint32_t Custom_Delay_Get_SysTick() {
 8003a90:	b480      	push	{r7}
 8003a92:	af00      	add	r7, sp, #0
	return uwTick;
 8003a94:	4b03      	ldr	r3, [pc, #12]	@ (8003aa4 <Custom_Delay_Get_SysTick+0x14>)
 8003a96:	681b      	ldr	r3, [r3, #0]
}
 8003a98:	4618      	mov	r0, r3
 8003a9a:	46bd      	mov	sp, r7
 8003a9c:	f85d 7b04 	ldr.w	r7, [sp], #4
 8003aa0:	4770      	bx	lr
 8003aa2:	bf00      	nop
 8003aa4:	200001e8 	.word	0x200001e8

08003aa8 <Custom_Switch_Init_ButtonState>:
	uint32_t prevTick;
	uint8_t state;
} ButtonState_t;

static void Custom_Switch_Init_ButtonState(ButtonState_t *State,
		GPIO_TypeDef *GPIOx, uint32_t PinMask) {
 8003aa8:	b580      	push	{r7, lr}
 8003aaa:	b084      	sub	sp, #16
 8003aac:	af00      	add	r7, sp, #0
 8003aae:	60f8      	str	r0, [r7, #12]
 8003ab0:	60b9      	str	r1, [r7, #8]
 8003ab2:	607a      	str	r2, [r7, #4]
	State->port = GPIOx;
 8003ab4:	68fb      	ldr	r3, [r7, #12]
 8003ab6:	68ba      	ldr	r2, [r7, #8]
 8003ab8:	601a      	str	r2, [r3, #0]
	State->pinMask = PinMask;
 8003aba:	68fb      	ldr	r3, [r7, #12]
 8003abc:	687a      	ldr	r2, [r7, #4]
 8003abe:	605a      	str	r2, [r3, #4]
	State->timer = 0;
 8003ac0:	68fb      	ldr	r3, [r7, #12]
 8003ac2:	2200      	movs	r2, #0
 8003ac4:	609a      	str	r2, [r3, #8]
	State->prevTick = Custom_Delay_Get_SysTick();
 8003ac6:	f7ff ffe3 	bl	8003a90 <Custom_Delay_Get_SysTick>
 8003aca:	4602      	mov	r2, r0
 8003acc:	68fb      	ldr	r3, [r7, #12]
 8003ace:	60da      	str	r2, [r3, #12]
	State->state = LONG_OFF;
 8003ad0:	68fb      	ldr	r3, [r7, #12]
 8003ad2:	2201      	movs	r2, #1
 8003ad4:	741a      	strb	r2, [r3, #16]
}
 8003ad6:	bf00      	nop
 8003ad8:	3710      	adds	r7, #16
 8003ada:	46bd      	mov	sp, r7
 8003adc:	bd80      	pop	{r7, pc}
	...

08003ae0 <Custom_Switch_State_Machine>:

static uint8_t Custom_Switch_State_Machine(ButtonState_t *State) {
 8003ae0:	b580      	push	{r7, lr}
 8003ae2:	b084      	sub	sp, #16
 8003ae4:	af00      	add	r7, sp, #0
 8003ae6:	6078      	str	r0, [r7, #4]
	 * 이 함수는 State 구조체의 값을 기반으로 아래 설명된 바와 같이 state machine을 구현한다.
	 * 원래는 1ms마다 호출됨을 전제로 하였으나 OLED 화면 출력과 같은 시간이 많이 소요되는 함로로 인해 부하가 걸리면
	 * 1ms 시간이 부족하여 스위치가 동작이 제대로 수행되지 않는 문제점이 있었다.
	 * 함수가 호출된 시간을 측정하여 타이머 값에 시간을 뺀 뒤 기준 시간이 지났음을 감지하여 버튼 입력값을 출력하는 방식으로 변경하였다.
	 */
	bool currentPushed = !(LL_GPIO_ReadInputPort(State->port) & State->pinMask);
 8003ae8:	687b      	ldr	r3, [r7, #4]
 8003aea:	681b      	ldr	r3, [r3, #0]
 8003aec:	4618      	mov	r0, r3
 8003aee:	f7ff ffc3 	bl	8003a78 <LL_GPIO_ReadInputPort>
 8003af2:	4602      	mov	r2, r0
 8003af4:	687b      	ldr	r3, [r7, #4]
 8003af6:	685b      	ldr	r3, [r3, #4]
 8003af8:	4013      	ands	r3, r2
 8003afa:	2b00      	cmp	r3, #0
 8003afc:	bf0c      	ite	eq
 8003afe:	2301      	moveq	r3, #1
 8003b00:	2300      	movne	r3, #0
 8003b02:	73bb      	strb	r3, [r7, #14]
	bool pushEvent = false;
 8003b04:	2300      	movs	r3, #0
 8003b06:	73fb      	strb	r3, [r7, #15]

	uint32_t currTick = Custom_Delay_Get_SysTick();
 8003b08:	f7ff ffc2 	bl	8003a90 <Custom_Delay_Get_SysTick>
 8003b0c:	60b8      	str	r0, [r7, #8]

	switch (State->state) {
 8003b0e:	687b      	ldr	r3, [r7, #4]
 8003b10:	7c1b      	ldrb	r3, [r3, #16]
 8003b12:	3b01      	subs	r3, #1
 8003b14:	2b07      	cmp	r3, #7
 8003b16:	d871      	bhi.n	8003bfc <Custom_Switch_State_Machine+0x11c>
 8003b18:	a201      	add	r2, pc, #4	@ (adr r2, 8003b20 <Custom_Switch_State_Machine+0x40>)
 8003b1a:	f852 f023 	ldr.w	pc, [r2, r3, lsl #2]
 8003b1e:	bf00      	nop
 8003b20:	08003b41 	.word	0x08003b41
 8003b24:	08003b55 	.word	0x08003b55
 8003b28:	08003bfd 	.word	0x08003bfd
 8003b2c:	08003b89 	.word	0x08003b89
 8003b30:	08003bfd 	.word	0x08003bfd
 8003b34:	08003bfd 	.word	0x08003bfd
 8003b38:	08003bfd 	.word	0x08003bfd
 8003b3c:	08003bd1 	.word	0x08003bd1

		case LONG_OFF:
			if (currentPushed) {
 8003b40:	7bbb      	ldrb	r3, [r7, #14]
 8003b42:	2b00      	cmp	r3, #0
 8003b44:	d059      	beq.n	8003bfa <Custom_Switch_State_Machine+0x11a>
				State->state = SHORT_ON;
 8003b46:	687b      	ldr	r3, [r7, #4]
 8003b48:	2202      	movs	r2, #2
 8003b4a:	741a      	strb	r2, [r3, #16]
				State->timer = TIME_SHROT;
 8003b4c:	687b      	ldr	r3, [r7, #4]
 8003b4e:	2250      	movs	r2, #80	@ 0x50
 8003b50:	609a      	str	r2, [r3, #8]
			}
			break;
 8003b52:	e052      	b.n	8003bfa <Custom_Switch_State_Machine+0x11a>

		case SHORT_ON:
			if (State->timer <= currTick - State->prevTick) {
 8003b54:	687b      	ldr	r3, [r7, #4]
 8003b56:	689a      	ldr	r2, [r3, #8]
 8003b58:	687b      	ldr	r3, [r7, #4]
 8003b5a:	68db      	ldr	r3, [r3, #12]
 8003b5c:	68b9      	ldr	r1, [r7, #8]
 8003b5e:	1acb      	subs	r3, r1, r3
 8003b60:	429a      	cmp	r2, r3
 8003b62:	d807      	bhi.n	8003b74 <Custom_Switch_State_Machine+0x94>
				pushEvent = true;
 8003b64:	2301      	movs	r3, #1
 8003b66:	73fb      	strb	r3, [r7, #15]
				State->state = LONG_ON;
 8003b68:	687b      	ldr	r3, [r7, #4]
 8003b6a:	2204      	movs	r2, #4
 8003b6c:	741a      	strb	r2, [r3, #16]
				State->timer = TIME_LONG;
 8003b6e:	687b      	ldr	r3, [r7, #4]
 8003b70:	22a0      	movs	r2, #160	@ 0xa0
 8003b72:	609a      	str	r2, [r3, #8]
			}
			State->timer -= currTick - State->prevTick;
 8003b74:	687b      	ldr	r3, [r7, #4]
 8003b76:	689a      	ldr	r2, [r3, #8]
 8003b78:	687b      	ldr	r3, [r7, #4]
 8003b7a:	68d9      	ldr	r1, [r3, #12]
 8003b7c:	68bb      	ldr	r3, [r7, #8]
 8003b7e:	1acb      	subs	r3, r1, r3
 8003b80:	441a      	add	r2, r3
 8003b82:	687b      	ldr	r3, [r7, #4]
 8003b84:	609a      	str	r2, [r3, #8]
			break;
 8003b86:	e039      	b.n	8003bfc <Custom_Switch_State_Machine+0x11c>

		case LONG_ON:
			if (!currentPushed) {
 8003b88:	7bbb      	ldrb	r3, [r7, #14]
 8003b8a:	f083 0301 	eor.w	r3, r3, #1
 8003b8e:	b2db      	uxtb	r3, r3
 8003b90:	2b00      	cmp	r3, #0
 8003b92:	d006      	beq.n	8003ba2 <Custom_Switch_State_Machine+0xc2>
				State->state = SHORT_OFF;
 8003b94:	687b      	ldr	r3, [r7, #4]
 8003b96:	2208      	movs	r2, #8
 8003b98:	741a      	strb	r2, [r3, #16]
				State->timer = TIME_SHROT;
 8003b9a:	687b      	ldr	r3, [r7, #4]
 8003b9c:	2250      	movs	r2, #80	@ 0x50
 8003b9e:	609a      	str	r2, [r3, #8]
				break;
 8003ba0:	e02c      	b.n	8003bfc <Custom_Switch_State_Machine+0x11c>
			}
			if (State->timer <= currTick - State->prevTick) {
 8003ba2:	687b      	ldr	r3, [r7, #4]
 8003ba4:	689a      	ldr	r2, [r3, #8]
 8003ba6:	687b      	ldr	r3, [r7, #4]
 8003ba8:	68db      	ldr	r3, [r3, #12]
 8003baa:	68b9      	ldr	r1, [r7, #8]
 8003bac:	1acb      	subs	r3, r1, r3
 8003bae:	429a      	cmp	r2, r3
 8003bb0:	d804      	bhi.n	8003bbc <Custom_Switch_State_Machine+0xdc>
				pushEvent = true;
 8003bb2:	2301      	movs	r3, #1
 8003bb4:	73fb      	strb	r3, [r7, #15]
				State->timer = TIME_LONG;
 8003bb6:	687b      	ldr	r3, [r7, #4]
 8003bb8:	22a0      	movs	r2, #160	@ 0xa0
 8003bba:	609a      	str	r2, [r3, #8]
			}
			State->timer -= currTick - State->prevTick;
 8003bbc:	687b      	ldr	r3, [r7, #4]
 8003bbe:	689a      	ldr	r2, [r3, #8]
 8003bc0:	687b      	ldr	r3, [r7, #4]
 8003bc2:	68d9      	ldr	r1, [r3, #12]
 8003bc4:	68bb      	ldr	r3, [r7, #8]
 8003bc6:	1acb      	subs	r3, r1, r3
 8003bc8:	441a      	add	r2, r3
 8003bca:	687b      	ldr	r3, [r7, #4]
 8003bcc:	609a      	str	r2, [r3, #8]
			break;
 8003bce:	e015      	b.n	8003bfc <Custom_Switch_State_Machine+0x11c>

		case SHORT_OFF:
			if (State->timer <= currTick - State->prevTick) {
 8003bd0:	687b      	ldr	r3, [r7, #4]
 8003bd2:	689a      	ldr	r2, [r3, #8]
 8003bd4:	687b      	ldr	r3, [r7, #4]
 8003bd6:	68db      	ldr	r3, [r3, #12]
 8003bd8:	68b9      	ldr	r1, [r7, #8]
 8003bda:	1acb      	subs	r3, r1, r3
 8003bdc:	429a      	cmp	r2, r3
 8003bde:	d802      	bhi.n	8003be6 <Custom_Switch_State_Machine+0x106>
				State->state = LONG_OFF;
 8003be0:	687b      	ldr	r3, [r7, #4]
 8003be2:	2201      	movs	r2, #1
 8003be4:	741a      	strb	r2, [r3, #16]
			}
			State->timer -= currTick - State->prevTick;
 8003be6:	687b      	ldr	r3, [r7, #4]
 8003be8:	689a      	ldr	r2, [r3, #8]
 8003bea:	687b      	ldr	r3, [r7, #4]
 8003bec:	68d9      	ldr	r1, [r3, #12]
 8003bee:	68bb      	ldr	r3, [r7, #8]
 8003bf0:	1acb      	subs	r3, r1, r3
 8003bf2:	441a      	add	r2, r3
 8003bf4:	687b      	ldr	r3, [r7, #4]
 8003bf6:	609a      	str	r2, [r3, #8]
			break;
 8003bf8:	e000      	b.n	8003bfc <Custom_Switch_State_Machine+0x11c>
			break;
 8003bfa:	bf00      	nop
	}

	// 다음 호출 시 이전에 함수가 호출된 시간을 참조해야 하므로 prevTick값에 저장한다.
	State->prevTick = currTick;
 8003bfc:	687b      	ldr	r3, [r7, #4]
 8003bfe:	68ba      	ldr	r2, [r7, #8]
 8003c00:	60da      	str	r2, [r3, #12]

	return pushEvent;
 8003c02:	7bfb      	ldrb	r3, [r7, #15]
}
 8003c04:	4618      	mov	r0, r3
 8003c06:	3710      	adds	r7, #16
 8003c08:	46bd      	mov	sp, r7
 8003c0a:	bd80      	pop	{r7, pc}

08003c0c <Custom_Switch_Read>:

uint8_t Custom_Switch_Read(void) {
 8003c0c:	b580      	push	{r7, lr}
 8003c0e:	b082      	sub	sp, #8
 8003c10:	af00      	add	r7, sp, #0
	 * 그러나 C언어 및 임베디드시스템에는 그런 오류를 잡는 기능이 없다. 그래서 이러한 함수를 사용하는 것이 바람직하다.
	 * 다만 매우 고속의 연산이 필요한 경우 if검사를 매번 실시하는 것은 바람직하지 않다. 그런 경우 초기화 루틴을 따로 함수로 빼는 것이 낫다.
	 */
	static bool isInitialized = false;
	static ButtonState_t sw1, sw2;
	if (!isInitialized) {
 8003c12:	4b2c      	ldr	r3, [pc, #176]	@ (8003cc4 <Custom_Switch_Read+0xb8>)
 8003c14:	781b      	ldrb	r3, [r3, #0]
 8003c16:	f083 0301 	eor.w	r3, r3, #1
 8003c1a:	b2db      	uxtb	r3, r3
 8003c1c:	2b00      	cmp	r3, #0
 8003c1e:	d00c      	beq.n	8003c3a <Custom_Switch_Read+0x2e>
		isInitialized = true;
 8003c20:	4b28      	ldr	r3, [pc, #160]	@ (8003cc4 <Custom_Switch_Read+0xb8>)
 8003c22:	2201      	movs	r2, #1
 8003c24:	701a      	strb	r2, [r3, #0]
		Custom_Switch_Init_ButtonState(&sw1, SW1_PORT, SW1_PIN);
 8003c26:	2210      	movs	r2, #16
 8003c28:	4927      	ldr	r1, [pc, #156]	@ (8003cc8 <Custom_Switch_Read+0xbc>)
 8003c2a:	4828      	ldr	r0, [pc, #160]	@ (8003ccc <Custom_Switch_Read+0xc0>)
 8003c2c:	f7ff ff3c 	bl	8003aa8 <Custom_Switch_Init_ButtonState>
		Custom_Switch_Init_ButtonState(&sw2, SW2_PORT, SW2_PIN);
 8003c30:	2220      	movs	r2, #32
 8003c32:	4925      	ldr	r1, [pc, #148]	@ (8003cc8 <Custom_Switch_Read+0xbc>)
 8003c34:	4826      	ldr	r0, [pc, #152]	@ (8003cd0 <Custom_Switch_Read+0xc4>)
 8003c36:	f7ff ff37 	bl	8003aa8 <Custom_Switch_Init_ButtonState>
	}

	uint8_t sw1PushEvent = Custom_Switch_State_Machine(&sw1);
 8003c3a:	4824      	ldr	r0, [pc, #144]	@ (8003ccc <Custom_Switch_Read+0xc0>)
 8003c3c:	f7ff ff50 	bl	8003ae0 <Custom_Switch_State_Machine>
 8003c40:	4603      	mov	r3, r0
 8003c42:	71fb      	strb	r3, [r7, #7]
	uint8_t sw2PushEvent = Custom_Switch_State_Machine(&sw2);
 8003c44:	4822      	ldr	r0, [pc, #136]	@ (8003cd0 <Custom_Switch_Read+0xc4>)
 8003c46:	f7ff ff4b 	bl	8003ae0 <Custom_Switch_State_Machine>
 8003c4a:	4603      	mov	r3, r0
 8003c4c:	71bb      	strb	r3, [r7, #6]

	/*
	 * 두 버튼이 동시에 눌리는 것을 처리하기 위해, 한 버튼의 푸시 이벤트가 발생했고 다른 버튼이 Short-On 상태에 있다면 두 버튼이 동시에 눌린 것으로 간주한다.
	 */
	if ((sw1.state & SHORT_ON) && sw2PushEvent) {
 8003c4e:	4b1f      	ldr	r3, [pc, #124]	@ (8003ccc <Custom_Switch_Read+0xc0>)
 8003c50:	7c1b      	ldrb	r3, [r3, #16]
 8003c52:	f003 0302 	and.w	r3, r3, #2
 8003c56:	2b00      	cmp	r3, #0
 8003c58:	d00c      	beq.n	8003c74 <Custom_Switch_Read+0x68>
 8003c5a:	79bb      	ldrb	r3, [r7, #6]
 8003c5c:	2b00      	cmp	r3, #0
 8003c5e:	d009      	beq.n	8003c74 <Custom_Switch_Read+0x68>
		sw1PushEvent = true;
 8003c60:	2301      	movs	r3, #1
 8003c62:	71fb      	strb	r3, [r7, #7]
		sw1.state = sw2.state;
 8003c64:	4b1a      	ldr	r3, [pc, #104]	@ (8003cd0 <Custom_Switch_Read+0xc4>)
 8003c66:	7c1a      	ldrb	r2, [r3, #16]
 8003c68:	4b18      	ldr	r3, [pc, #96]	@ (8003ccc <Custom_Switch_Read+0xc0>)
 8003c6a:	741a      	strb	r2, [r3, #16]
		sw1.timer = sw2.timer;
 8003c6c:	4b18      	ldr	r3, [pc, #96]	@ (8003cd0 <Custom_Switch_Read+0xc4>)
 8003c6e:	689b      	ldr	r3, [r3, #8]
 8003c70:	4a16      	ldr	r2, [pc, #88]	@ (8003ccc <Custom_Switch_Read+0xc0>)
 8003c72:	6093      	str	r3, [r2, #8]
	}
	if ((sw2.state & SHORT_ON) && sw1PushEvent) {
 8003c74:	4b16      	ldr	r3, [pc, #88]	@ (8003cd0 <Custom_Switch_Read+0xc4>)
 8003c76:	7c1b      	ldrb	r3, [r3, #16]
 8003c78:	f003 0302 	and.w	r3, r3, #2
 8003c7c:	2b00      	cmp	r3, #0
 8003c7e:	d00c      	beq.n	8003c9a <Custom_Switch_Read+0x8e>
 8003c80:	79fb      	ldrb	r3, [r7, #7]
 8003c82:	2b00      	cmp	r3, #0
 8003c84:	d009      	beq.n	8003c9a <Custom_Switch_Read+0x8e>
		sw2PushEvent = true;
 8003c86:	2301      	movs	r3, #1
 8003c88:	71bb      	strb	r3, [r7, #6]
		sw2.state = sw1.state;
 8003c8a:	4b10      	ldr	r3, [pc, #64]	@ (8003ccc <Custom_Switch_Read+0xc0>)
 8003c8c:	7c1a      	ldrb	r2, [r3, #16]
 8003c8e:	4b10      	ldr	r3, [pc, #64]	@ (8003cd0 <Custom_Switch_Read+0xc4>)
 8003c90:	741a      	strb	r2, [r3, #16]
		sw2.timer = sw1.timer;
 8003c92:	4b0e      	ldr	r3, [pc, #56]	@ (8003ccc <Custom_Switch_Read+0xc0>)
 8003c94:	689b      	ldr	r3, [r3, #8]
 8003c96:	4a0e      	ldr	r2, [pc, #56]	@ (8003cd0 <Custom_Switch_Read+0xc4>)
 8003c98:	6093      	str	r3, [r2, #8]
	}

	uint8_t buttonPushEvent = 0;
 8003c9a:	2300      	movs	r3, #0
 8003c9c:	717b      	strb	r3, [r7, #5]
	if (sw1PushEvent) buttonPushEvent |= CUSTOM_SW_1;
 8003c9e:	79fb      	ldrb	r3, [r7, #7]
 8003ca0:	2b00      	cmp	r3, #0
 8003ca2:	d003      	beq.n	8003cac <Custom_Switch_Read+0xa0>
 8003ca4:	797b      	ldrb	r3, [r7, #5]
 8003ca6:	f043 0301 	orr.w	r3, r3, #1
 8003caa:	717b      	strb	r3, [r7, #5]
	if (sw2PushEvent) buttonPushEvent |= CUSTOM_SW_2;
 8003cac:	79bb      	ldrb	r3, [r7, #6]
 8003cae:	2b00      	cmp	r3, #0
 8003cb0:	d003      	beq.n	8003cba <Custom_Switch_Read+0xae>
 8003cb2:	797b      	ldrb	r3, [r7, #5]
 8003cb4:	f043 0302 	orr.w	r3, r3, #2
 8003cb8:	717b      	strb	r3, [r7, #5]

	return buttonPushEvent;
 8003cba:	797b      	ldrb	r3, [r7, #5]
}
 8003cbc:	4618      	mov	r0, r3
 8003cbe:	3708      	adds	r7, #8
 8003cc0:	46bd      	mov	sp, r7
 8003cc2:	bd80      	pop	{r7, pc}
 8003cc4:	20001340 	.word	0x20001340
 8003cc8:	42020400 	.word	0x42020400
 8003ccc:	20001344 	.word	0x20001344
 8003cd0:	20001358 	.word	0x20001358

08003cd4 <Drive_TIM7_IRQ>:
 * drive.c
 */

#include "drive.h"

void Drive_TIM7_IRQ(){
 8003cd4:	b480      	push	{r7}
 8003cd6:	af00      	add	r7, sp, #0

}
 8003cd8:	bf00      	nop
 8003cda:	46bd      	mov	sp, r7
 8003cdc:	f85d 7b04 	ldr.w	r7, [sp], #4
 8003ce0:	4770      	bx	lr
	...

08003ce4 <Custom_Delay_us>:
__STATIC_INLINE void Custom_Delay_us(uint16_t microsecond) {
 8003ce4:	b480      	push	{r7}
 8003ce6:	b083      	sub	sp, #12
 8003ce8:	af00      	add	r7, sp, #0
 8003cea:	4603      	mov	r3, r0
 8003cec:	80fb      	strh	r3, [r7, #6]
	CUSTOM_DELAY_TIM->ARR = microsecond - 1;
 8003cee:	88fb      	ldrh	r3, [r7, #6]
 8003cf0:	1e5a      	subs	r2, r3, #1
 8003cf2:	4b0e      	ldr	r3, [pc, #56]	@ (8003d2c <Custom_Delay_us+0x48>)
 8003cf4:	62da      	str	r2, [r3, #44]	@ 0x2c
	CUSTOM_DELAY_TIM->SR &= ~(0x0001); // Clear UEV flag
 8003cf6:	4b0d      	ldr	r3, [pc, #52]	@ (8003d2c <Custom_Delay_us+0x48>)
 8003cf8:	691b      	ldr	r3, [r3, #16]
 8003cfa:	4a0c      	ldr	r2, [pc, #48]	@ (8003d2c <Custom_Delay_us+0x48>)
 8003cfc:	f023 0301 	bic.w	r3, r3, #1
 8003d00:	6113      	str	r3, [r2, #16]
	CUSTOM_DELAY_TIM->CR1 |= 1UL;
 8003d02:	4b0a      	ldr	r3, [pc, #40]	@ (8003d2c <Custom_Delay_us+0x48>)
 8003d04:	681b      	ldr	r3, [r3, #0]
 8003d06:	4a09      	ldr	r2, [pc, #36]	@ (8003d2c <Custom_Delay_us+0x48>)
 8003d08:	f043 0301 	orr.w	r3, r3, #1
 8003d0c:	6013      	str	r3, [r2, #0]
	while ((CUSTOM_DELAY_TIM->SR & 0x0001) != 1);
 8003d0e:	bf00      	nop
 8003d10:	4b06      	ldr	r3, [pc, #24]	@ (8003d2c <Custom_Delay_us+0x48>)
 8003d12:	691b      	ldr	r3, [r3, #16]
 8003d14:	f003 0301 	and.w	r3, r3, #1
 8003d18:	2b01      	cmp	r3, #1
 8003d1a:	d1f9      	bne.n	8003d10 <Custom_Delay_us+0x2c>
}
 8003d1c:	bf00      	nop
 8003d1e:	bf00      	nop
 8003d20:	370c      	adds	r7, #12
 8003d22:	46bd      	mov	sp, r7
 8003d24:	f85d 7b04 	ldr.w	r7, [sp], #4
 8003d28:	4770      	bx	lr
 8003d2a:	bf00      	nop
 8003d2c:	40012c00 	.word	0x40012c00

08003d30 <Custom_Delay_ms>:
__STATIC_INLINE void Custom_Delay_ms(uint16_t millisecond) {
 8003d30:	b580      	push	{r7, lr}
 8003d32:	b084      	sub	sp, #16
 8003d34:	af00      	add	r7, sp, #0
 8003d36:	4603      	mov	r3, r0
 8003d38:	80fb      	strh	r3, [r7, #6]
	for(uint16_t count = 0; count < millisecond; count++){
 8003d3a:	2300      	movs	r3, #0
 8003d3c:	81fb      	strh	r3, [r7, #14]
 8003d3e:	e006      	b.n	8003d4e <Custom_Delay_ms+0x1e>
		Custom_Delay_us(1000);
 8003d40:	f44f 707a 	mov.w	r0, #1000	@ 0x3e8
 8003d44:	f7ff ffce 	bl	8003ce4 <Custom_Delay_us>
	for(uint16_t count = 0; count < millisecond; count++){
 8003d48:	89fb      	ldrh	r3, [r7, #14]
 8003d4a:	3301      	adds	r3, #1
 8003d4c:	81fb      	strh	r3, [r7, #14]
 8003d4e:	89fa      	ldrh	r2, [r7, #14]
 8003d50:	88fb      	ldrh	r3, [r7, #6]
 8003d52:	429a      	cmp	r2, r3
 8003d54:	d3f4      	bcc.n	8003d40 <Custom_Delay_ms+0x10>
}
 8003d56:	bf00      	nop
 8003d58:	bf00      	nop
 8003d5a:	3710      	adds	r7, #16
 8003d5c:	46bd      	mov	sp, r7
 8003d5e:	bd80      	pop	{r7, pc}

08003d60 <Custom_Delay_Init_SysTick>:
__STATIC_INLINE void Custom_Delay_Init_SysTick() {
 8003d60:	b480      	push	{r7}
 8003d62:	af00      	add	r7, sp, #0
	uwTick = 0;
 8003d64:	4b06      	ldr	r3, [pc, #24]	@ (8003d80 <Custom_Delay_Init_SysTick+0x20>)
 8003d66:	2200      	movs	r2, #0
 8003d68:	601a      	str	r2, [r3, #0]
	SysTick->CTRL = (SysTick->CTRL & 0xFFFFFFF8) | 0x07;
 8003d6a:	4b06      	ldr	r3, [pc, #24]	@ (8003d84 <Custom_Delay_Init_SysTick+0x24>)
 8003d6c:	681b      	ldr	r3, [r3, #0]
 8003d6e:	4a05      	ldr	r2, [pc, #20]	@ (8003d84 <Custom_Delay_Init_SysTick+0x24>)
 8003d70:	f043 0307 	orr.w	r3, r3, #7
 8003d74:	6013      	str	r3, [r2, #0]
}
 8003d76:	bf00      	nop
 8003d78:	46bd      	mov	sp, r7
 8003d7a:	f85d 7b04 	ldr.w	r7, [sp], #4
 8003d7e:	4770      	bx	lr
 8003d80:	200001e8 	.word	0x200001e8
 8003d84:	e000e010 	.word	0xe000e010

08003d88 <Init>:
//	while (!LL_USART_IsActiveFlag_TXE(USART2));
//	LL_USART_TransmitData8(USART2, (char)ch);
//	return ch;
//}

void Init() {
 8003d88:	b580      	push	{r7, lr}
 8003d8a:	b082      	sub	sp, #8
 8003d8c:	af00      	add	r7, sp, #0
	/*
	 * STM 보드와 컴퓨터 간 UART 통신을 통해 컴퓨터 터미널로 디버깅할 수 있도록 USART2를 활성화한다.
	 */
//	LL_USART_Enable(USART2);

	Custom_Delay_Init_SysTick();
 8003d8e:	f7ff ffe7 	bl	8003d60 <Custom_Delay_Init_SysTick>

	/*
	 * OLED를 사용하기 전에는 Custom_OLED_Init 함수를 호출하여 여러가지 초기화를 수행해야 한다.
	 * 이 함수는 OLED 처음 쓰기 전에 딱 한 번만 호출하면 된다.
	 */
	Custom_OLED_Init();
 8003d92:	f7ff fb47 	bl	8003424 <Custom_OLED_Init>

	/*
	 * 플래시를 사용하기 전에는 Custom_FileSystem_Load 함수를 호출하여 플래시 정보를 불러와야 한다.
	 * 이 함수는 플래시를 처음 쓰기 전에 딱 한 번만 호출하면 된다.
	 */
	Custom_FileSystem_Load();
 8003d96:	f7ff f957 	bl	8003048 <Custom_FileSystem_Load>
	 * /1이라는 부분이 있으면 두 번째 줄의 첫 번째 칸으로 돌아간다.
	 * 그리고 /r, /g, /b라는 부분이 있으면 각각 문자를 빨강, 초록, 파랑으로 출력한다.
	 * 즉, 아래 예제에서는 첫 번째 줄에 "Hello"를 출력한 후, 두 번째 줄의 첫 번째 칸으로 커서가 이동하고 파란색 글씨로 "ZETIN!"을 쓴다.
	 */

	Custom_OLED_Printf("/0Hello, /1/bZETIN!");
 8003d9a:	4818      	ldr	r0, [pc, #96]	@ (8003dfc <Init+0x74>)
 8003d9c:	f7ff fc08 	bl	80035b0 <Custom_OLED_Printf>
	Custom_Delay_ms(500);
 8003da0:	f44f 70fa 	mov.w	r0, #500	@ 0x1f4
 8003da4:	f7ff ffc4 	bl	8003d30 <Custom_Delay_ms>
	Custom_OLED_Clear();
 8003da8:	f7ff fb1d 	bl	80033e6 <Custom_OLED_Clear>
	/*
	 * 아래는 스위치를 사용하는 예제다.
	 * Custom_Switch_Read 함수 내부에는 1ms 딜레이가 존재하기 때문에, 이 함수를 주행 알고리즘 내부에 집어넣으면 성능이 크게 떨어지니 주의해야한다.
	 */
	uint8_t count = 0;
 8003dac:	2300      	movs	r3, #0
 8003dae:	71fb      	strb	r3, [r7, #7]
	uint8_t sw = 0;
 8003db0:	2300      	movs	r3, #0
 8003db2:	71bb      	strb	r3, [r7, #6]
	while(1){
		Custom_OLED_Printf("/gcount: /w%3d", count);
 8003db4:	79fb      	ldrb	r3, [r7, #7]
 8003db6:	4619      	mov	r1, r3
 8003db8:	4811      	ldr	r0, [pc, #68]	@ (8003e00 <Init+0x78>)
 8003dba:	f7ff fbf9 	bl	80035b0 <Custom_OLED_Printf>
		while(!(sw = Custom_Switch_Read()));
 8003dbe:	bf00      	nop
 8003dc0:	f7ff ff24 	bl	8003c0c <Custom_Switch_Read>
 8003dc4:	4603      	mov	r3, r0
 8003dc6:	71bb      	strb	r3, [r7, #6]
 8003dc8:	79bb      	ldrb	r3, [r7, #6]
 8003dca:	2b00      	cmp	r3, #0
 8003dcc:	d0f8      	beq.n	8003dc0 <Init+0x38>
		switch(sw){
 8003dce:	79bb      	ldrb	r3, [r7, #6]
 8003dd0:	2b03      	cmp	r3, #3
 8003dd2:	d00e      	beq.n	8003df2 <Init+0x6a>
 8003dd4:	2b03      	cmp	r3, #3
 8003dd6:	dced      	bgt.n	8003db4 <Init+0x2c>
 8003dd8:	2b01      	cmp	r3, #1
 8003dda:	d002      	beq.n	8003de2 <Init+0x5a>
 8003ddc:	2b02      	cmp	r3, #2
 8003dde:	d004      	beq.n	8003dea <Init+0x62>
 8003de0:	e00a      	b.n	8003df8 <Init+0x70>
		case CUSTOM_SW_1:
			count--;
 8003de2:	79fb      	ldrb	r3, [r7, #7]
 8003de4:	3b01      	subs	r3, #1
 8003de6:	71fb      	strb	r3, [r7, #7]
			break;
 8003de8:	e006      	b.n	8003df8 <Init+0x70>
		case CUSTOM_SW_2:
			count++;
 8003dea:	79fb      	ldrb	r3, [r7, #7]
 8003dec:	3301      	adds	r3, #1
 8003dee:	71fb      	strb	r3, [r7, #7]
			break;
 8003df0:	e002      	b.n	8003df8 <Init+0x70>
		case CUSTOM_SW_BOTH:
			count = 0;
 8003df2:	2300      	movs	r3, #0
 8003df4:	71fb      	strb	r3, [r7, #7]
			break;
 8003df6:	bf00      	nop
		Custom_OLED_Printf("/gcount: /w%3d", count);
 8003df8:	e7dc      	b.n	8003db4 <Init+0x2c>
 8003dfa:	bf00      	nop
 8003dfc:	08006c24 	.word	0x08006c24
 8003e00:	08006c38 	.word	0x08006c38

08003e04 <Motor_L_TIM3_IRQ>:
 * motor.c
 */

#include "motor.h"

void Motor_L_TIM3_IRQ() {
 8003e04:	b480      	push	{r7}
 8003e06:	af00      	add	r7, sp, #0

}
 8003e08:	bf00      	nop
 8003e0a:	46bd      	mov	sp, r7
 8003e0c:	f85d 7b04 	ldr.w	r7, [sp], #4
 8003e10:	4770      	bx	lr

08003e12 <Motor_R_TIM4_IRQ>:

void Motor_R_TIM4_IRQ() {
 8003e12:	b480      	push	{r7}
 8003e14:	af00      	add	r7, sp, #0

}
 8003e16:	bf00      	nop
 8003e18:	46bd      	mov	sp, r7
 8003e1a:	f85d 7b04 	ldr.w	r7, [sp], #4
 8003e1e:	4770      	bx	lr

08003e20 <Sensor_TIM6_IRQ>:
	uint16_t adcValue = LL_ADC_REG_ReadConversionData12(ADC1);
	__enable_irq();
	return adcValue;
}

void Sensor_TIM6_IRQ() {
 8003e20:	b480      	push	{r7}
 8003e22:	af00      	add	r7, sp, #0

}
 8003e24:	bf00      	nop
 8003e26:	46bd      	mov	sp, r7
 8003e28:	f85d 7b04 	ldr.w	r7, [sp], #4
 8003e2c:	4770      	bx	lr

08003e2e <__cvt>:
 8003e2e:	e92d 47ff 	stmdb	sp!, {r0, r1, r2, r3, r4, r5, r6, r7, r8, r9, sl, lr}
 8003e32:	ec57 6b10 	vmov	r6, r7, d0
 8003e36:	2f00      	cmp	r7, #0
 8003e38:	460c      	mov	r4, r1
 8003e3a:	4619      	mov	r1, r3
 8003e3c:	463b      	mov	r3, r7
 8003e3e:	bfb4      	ite	lt
 8003e40:	f107 4300 	addlt.w	r3, r7, #2147483648	@ 0x80000000
 8003e44:	2300      	movge	r3, #0
 8003e46:	4691      	mov	r9, r2
 8003e48:	bfbf      	itttt	lt
 8003e4a:	4632      	movlt	r2, r6
 8003e4c:	461f      	movlt	r7, r3
 8003e4e:	232d      	movlt	r3, #45	@ 0x2d
 8003e50:	4616      	movlt	r6, r2
 8003e52:	f8dd a030 	ldr.w	sl, [sp, #48]	@ 0x30
 8003e56:	700b      	strb	r3, [r1, #0]
 8003e58:	9b0d      	ldr	r3, [sp, #52]	@ 0x34
 8003e5a:	f023 0820 	bic.w	r8, r3, #32
 8003e5e:	f1b8 0f46 	cmp.w	r8, #70	@ 0x46
 8003e62:	d005      	beq.n	8003e70 <__cvt+0x42>
 8003e64:	f1b8 0f45 	cmp.w	r8, #69	@ 0x45
 8003e68:	d100      	bne.n	8003e6c <__cvt+0x3e>
 8003e6a:	3401      	adds	r4, #1
 8003e6c:	2102      	movs	r1, #2
 8003e6e:	e000      	b.n	8003e72 <__cvt+0x44>
 8003e70:	2103      	movs	r1, #3
 8003e72:	ab03      	add	r3, sp, #12
 8003e74:	4622      	mov	r2, r4
 8003e76:	9301      	str	r3, [sp, #4]
 8003e78:	ab02      	add	r3, sp, #8
 8003e7a:	ec47 6b10 	vmov	d0, r6, r7
 8003e7e:	9300      	str	r3, [sp, #0]
 8003e80:	4653      	mov	r3, sl
 8003e82:	f000 fe6d 	bl	8004b60 <_dtoa_r>
 8003e86:	f1b8 0f47 	cmp.w	r8, #71	@ 0x47
 8003e8a:	4605      	mov	r5, r0
 8003e8c:	d119      	bne.n	8003ec2 <__cvt+0x94>
 8003e8e:	f019 0f01 	tst.w	r9, #1
 8003e92:	d00e      	beq.n	8003eb2 <__cvt+0x84>
 8003e94:	eb00 0904 	add.w	r9, r0, r4
 8003e98:	2200      	movs	r2, #0
 8003e9a:	2300      	movs	r3, #0
 8003e9c:	4630      	mov	r0, r6
 8003e9e:	4639      	mov	r1, r7
 8003ea0:	f7fc fe26 	bl	8000af0 <__aeabi_dcmpeq>
 8003ea4:	b108      	cbz	r0, 8003eaa <__cvt+0x7c>
 8003ea6:	f8cd 900c 	str.w	r9, [sp, #12]
 8003eaa:	2230      	movs	r2, #48	@ 0x30
 8003eac:	9b03      	ldr	r3, [sp, #12]
 8003eae:	454b      	cmp	r3, r9
 8003eb0:	d31e      	bcc.n	8003ef0 <__cvt+0xc2>
 8003eb2:	9b03      	ldr	r3, [sp, #12]
 8003eb4:	4628      	mov	r0, r5
 8003eb6:	9a0e      	ldr	r2, [sp, #56]	@ 0x38
 8003eb8:	1b5b      	subs	r3, r3, r5
 8003eba:	6013      	str	r3, [r2, #0]
 8003ebc:	b004      	add	sp, #16
 8003ebe:	e8bd 87f0 	ldmia.w	sp!, {r4, r5, r6, r7, r8, r9, sl, pc}
 8003ec2:	f1b8 0f46 	cmp.w	r8, #70	@ 0x46
 8003ec6:	eb00 0904 	add.w	r9, r0, r4
 8003eca:	d1e5      	bne.n	8003e98 <__cvt+0x6a>
 8003ecc:	7803      	ldrb	r3, [r0, #0]
 8003ece:	2b30      	cmp	r3, #48	@ 0x30
 8003ed0:	d10a      	bne.n	8003ee8 <__cvt+0xba>
 8003ed2:	2200      	movs	r2, #0
 8003ed4:	2300      	movs	r3, #0
 8003ed6:	4630      	mov	r0, r6
 8003ed8:	4639      	mov	r1, r7
 8003eda:	f7fc fe09 	bl	8000af0 <__aeabi_dcmpeq>
 8003ede:	b918      	cbnz	r0, 8003ee8 <__cvt+0xba>
 8003ee0:	f1c4 0401 	rsb	r4, r4, #1
 8003ee4:	f8ca 4000 	str.w	r4, [sl]
 8003ee8:	f8da 3000 	ldr.w	r3, [sl]
 8003eec:	4499      	add	r9, r3
 8003eee:	e7d3      	b.n	8003e98 <__cvt+0x6a>
 8003ef0:	1c59      	adds	r1, r3, #1
 8003ef2:	9103      	str	r1, [sp, #12]
 8003ef4:	701a      	strb	r2, [r3, #0]
 8003ef6:	e7d9      	b.n	8003eac <__cvt+0x7e>

08003ef8 <__exponent>:
 8003ef8:	b5f7      	push	{r0, r1, r2, r4, r5, r6, r7, lr}
 8003efa:	2900      	cmp	r1, #0
 8003efc:	7002      	strb	r2, [r0, #0]
 8003efe:	bfba      	itte	lt
 8003f00:	4249      	neglt	r1, r1
 8003f02:	232d      	movlt	r3, #45	@ 0x2d
 8003f04:	232b      	movge	r3, #43	@ 0x2b
 8003f06:	2909      	cmp	r1, #9
 8003f08:	7043      	strb	r3, [r0, #1]
 8003f0a:	dd28      	ble.n	8003f5e <__exponent+0x66>
 8003f0c:	f10d 0307 	add.w	r3, sp, #7
 8003f10:	270a      	movs	r7, #10
 8003f12:	461d      	mov	r5, r3
 8003f14:	461a      	mov	r2, r3
 8003f16:	3b01      	subs	r3, #1
 8003f18:	fbb1 f6f7 	udiv	r6, r1, r7
 8003f1c:	fb07 1416 	mls	r4, r7, r6, r1
 8003f20:	3430      	adds	r4, #48	@ 0x30
 8003f22:	f802 4c01 	strb.w	r4, [r2, #-1]
 8003f26:	460c      	mov	r4, r1
 8003f28:	4631      	mov	r1, r6
 8003f2a:	2c63      	cmp	r4, #99	@ 0x63
 8003f2c:	dcf2      	bgt.n	8003f14 <__exponent+0x1c>
 8003f2e:	3130      	adds	r1, #48	@ 0x30
 8003f30:	1e94      	subs	r4, r2, #2
 8003f32:	f803 1c01 	strb.w	r1, [r3, #-1]
 8003f36:	1c41      	adds	r1, r0, #1
 8003f38:	4623      	mov	r3, r4
 8003f3a:	42ab      	cmp	r3, r5
 8003f3c:	d30a      	bcc.n	8003f54 <__exponent+0x5c>
 8003f3e:	f10d 0309 	add.w	r3, sp, #9
 8003f42:	1a9b      	subs	r3, r3, r2
 8003f44:	42ac      	cmp	r4, r5
 8003f46:	bf88      	it	hi
 8003f48:	2300      	movhi	r3, #0
 8003f4a:	3302      	adds	r3, #2
 8003f4c:	4403      	add	r3, r0
 8003f4e:	1a18      	subs	r0, r3, r0
 8003f50:	b003      	add	sp, #12
 8003f52:	bdf0      	pop	{r4, r5, r6, r7, pc}
 8003f54:	f813 6b01 	ldrb.w	r6, [r3], #1
 8003f58:	f801 6f01 	strb.w	r6, [r1, #1]!
 8003f5c:	e7ed      	b.n	8003f3a <__exponent+0x42>
 8003f5e:	2330      	movs	r3, #48	@ 0x30
 8003f60:	3130      	adds	r1, #48	@ 0x30
 8003f62:	7083      	strb	r3, [r0, #2]
 8003f64:	1d03      	adds	r3, r0, #4
 8003f66:	70c1      	strb	r1, [r0, #3]
 8003f68:	e7f1      	b.n	8003f4e <__exponent+0x56>
	...

08003f6c <_printf_float>:
 8003f6c:	e92d 4ff0 	stmdb	sp!, {r4, r5, r6, r7, r8, r9, sl, fp, lr}
 8003f70:	b08d      	sub	sp, #52	@ 0x34
 8003f72:	460c      	mov	r4, r1
 8003f74:	4616      	mov	r6, r2
 8003f76:	461f      	mov	r7, r3
 8003f78:	f8dd 8058 	ldr.w	r8, [sp, #88]	@ 0x58
 8003f7c:	4605      	mov	r5, r0
 8003f7e:	f000 fcdd 	bl	800493c <_localeconv_r>
 8003f82:	6803      	ldr	r3, [r0, #0]
 8003f84:	4618      	mov	r0, r3
 8003f86:	9304      	str	r3, [sp, #16]
 8003f88:	f7fc f986 	bl	8000298 <strlen>
 8003f8c:	2300      	movs	r3, #0
 8003f8e:	9005      	str	r0, [sp, #20]
 8003f90:	930a      	str	r3, [sp, #40]	@ 0x28
 8003f92:	f8d8 3000 	ldr.w	r3, [r8]
 8003f96:	f894 a018 	ldrb.w	sl, [r4, #24]
 8003f9a:	3307      	adds	r3, #7
 8003f9c:	f8d4 b000 	ldr.w	fp, [r4]
 8003fa0:	f023 0307 	bic.w	r3, r3, #7
 8003fa4:	f103 0208 	add.w	r2, r3, #8
 8003fa8:	f8c8 2000 	str.w	r2, [r8]
 8003fac:	f04f 32ff 	mov.w	r2, #4294967295
 8003fb0:	e9d3 8900 	ldrd	r8, r9, [r3]
 8003fb4:	f029 4300 	bic.w	r3, r9, #2147483648	@ 0x80000000
 8003fb8:	f8cd 8018 	str.w	r8, [sp, #24]
 8003fbc:	9307      	str	r3, [sp, #28]
 8003fbe:	4b9d      	ldr	r3, [pc, #628]	@ (8004234 <_printf_float+0x2c8>)
 8003fc0:	e9dd 0106 	ldrd	r0, r1, [sp, #24]
 8003fc4:	e9c4 8912 	strd	r8, r9, [r4, #72]	@ 0x48
 8003fc8:	f7fc fdc4 	bl	8000b54 <__aeabi_dcmpun>
 8003fcc:	bb70      	cbnz	r0, 800402c <_printf_float+0xc0>
 8003fce:	f04f 32ff 	mov.w	r2, #4294967295
 8003fd2:	4b98      	ldr	r3, [pc, #608]	@ (8004234 <_printf_float+0x2c8>)
 8003fd4:	e9dd 0106 	ldrd	r0, r1, [sp, #24]
 8003fd8:	f7fc fd9e 	bl	8000b18 <__aeabi_dcmple>
 8003fdc:	bb30      	cbnz	r0, 800402c <_printf_float+0xc0>
 8003fde:	2200      	movs	r2, #0
 8003fe0:	2300      	movs	r3, #0
 8003fe2:	4640      	mov	r0, r8
 8003fe4:	4649      	mov	r1, r9
 8003fe6:	f7fc fd8d 	bl	8000b04 <__aeabi_dcmplt>
 8003fea:	b110      	cbz	r0, 8003ff2 <_printf_float+0x86>
 8003fec:	232d      	movs	r3, #45	@ 0x2d
 8003fee:	f884 3043 	strb.w	r3, [r4, #67]	@ 0x43
 8003ff2:	4a91      	ldr	r2, [pc, #580]	@ (8004238 <_printf_float+0x2cc>)
 8003ff4:	4b91      	ldr	r3, [pc, #580]	@ (800423c <_printf_float+0x2d0>)
 8003ff6:	f1ba 0f47 	cmp.w	sl, #71	@ 0x47
 8003ffa:	bf8c      	ite	hi
 8003ffc:	4690      	movhi	r8, r2
 8003ffe:	4698      	movls	r8, r3
 8004000:	2303      	movs	r3, #3
 8004002:	f04f 0900 	mov.w	r9, #0
 8004006:	6123      	str	r3, [r4, #16]
 8004008:	f02b 0304 	bic.w	r3, fp, #4
 800400c:	6023      	str	r3, [r4, #0]
 800400e:	4633      	mov	r3, r6
 8004010:	aa0b      	add	r2, sp, #44	@ 0x2c
 8004012:	4621      	mov	r1, r4
 8004014:	4628      	mov	r0, r5
 8004016:	9700      	str	r7, [sp, #0]
 8004018:	f000 f9d2 	bl	80043c0 <_printf_common>
 800401c:	3001      	adds	r0, #1
 800401e:	f040 808d 	bne.w	800413c <_printf_float+0x1d0>
 8004022:	f04f 30ff 	mov.w	r0, #4294967295
 8004026:	b00d      	add	sp, #52	@ 0x34
 8004028:	e8bd 8ff0 	ldmia.w	sp!, {r4, r5, r6, r7, r8, r9, sl, fp, pc}
 800402c:	4642      	mov	r2, r8
 800402e:	464b      	mov	r3, r9
 8004030:	4640      	mov	r0, r8
 8004032:	4649      	mov	r1, r9
 8004034:	f7fc fd8e 	bl	8000b54 <__aeabi_dcmpun>
 8004038:	b140      	cbz	r0, 800404c <_printf_float+0xe0>
 800403a:	464b      	mov	r3, r9
 800403c:	4a80      	ldr	r2, [pc, #512]	@ (8004240 <_printf_float+0x2d4>)
 800403e:	2b00      	cmp	r3, #0
 8004040:	bfbc      	itt	lt
 8004042:	232d      	movlt	r3, #45	@ 0x2d
 8004044:	f884 3043 	strblt.w	r3, [r4, #67]	@ 0x43
 8004048:	4b7e      	ldr	r3, [pc, #504]	@ (8004244 <_printf_float+0x2d8>)
 800404a:	e7d4      	b.n	8003ff6 <_printf_float+0x8a>
 800404c:	f00a 02df 	and.w	r2, sl, #223	@ 0xdf
 8004050:	6863      	ldr	r3, [r4, #4]
 8004052:	9206      	str	r2, [sp, #24]
 8004054:	1c5a      	adds	r2, r3, #1
 8004056:	d13b      	bne.n	80040d0 <_printf_float+0x164>
 8004058:	2306      	movs	r3, #6
 800405a:	6063      	str	r3, [r4, #4]
 800405c:	f44b 6280 	orr.w	r2, fp, #1024	@ 0x400
 8004060:	2300      	movs	r3, #0
 8004062:	4628      	mov	r0, r5
 8004064:	6022      	str	r2, [r4, #0]
 8004066:	9303      	str	r3, [sp, #12]
 8004068:	ab0a      	add	r3, sp, #40	@ 0x28
 800406a:	e9cd a301 	strd	sl, r3, [sp, #4]
 800406e:	ab09      	add	r3, sp, #36	@ 0x24
 8004070:	ec49 8b10 	vmov	d0, r8, r9
 8004074:	9300      	str	r3, [sp, #0]
 8004076:	f10d 0323 	add.w	r3, sp, #35	@ 0x23
 800407a:	6861      	ldr	r1, [r4, #4]
 800407c:	f7ff fed7 	bl	8003e2e <__cvt>
 8004080:	9b06      	ldr	r3, [sp, #24]
 8004082:	4680      	mov	r8, r0
 8004084:	9909      	ldr	r1, [sp, #36]	@ 0x24
 8004086:	2b47      	cmp	r3, #71	@ 0x47
 8004088:	d129      	bne.n	80040de <_printf_float+0x172>
 800408a:	1cc8      	adds	r0, r1, #3
 800408c:	db02      	blt.n	8004094 <_printf_float+0x128>
 800408e:	6863      	ldr	r3, [r4, #4]
 8004090:	4299      	cmp	r1, r3
 8004092:	dd41      	ble.n	8004118 <_printf_float+0x1ac>
 8004094:	f1aa 0a02 	sub.w	sl, sl, #2
 8004098:	fa5f fa8a 	uxtb.w	sl, sl
 800409c:	3901      	subs	r1, #1
 800409e:	4652      	mov	r2, sl
 80040a0:	f104 0050 	add.w	r0, r4, #80	@ 0x50
 80040a4:	9109      	str	r1, [sp, #36]	@ 0x24
 80040a6:	f7ff ff27 	bl	8003ef8 <__exponent>
 80040aa:	9a0a      	ldr	r2, [sp, #40]	@ 0x28
 80040ac:	4681      	mov	r9, r0
 80040ae:	1813      	adds	r3, r2, r0
 80040b0:	2a01      	cmp	r2, #1
 80040b2:	6123      	str	r3, [r4, #16]
 80040b4:	dc02      	bgt.n	80040bc <_printf_float+0x150>
 80040b6:	6822      	ldr	r2, [r4, #0]
 80040b8:	07d2      	lsls	r2, r2, #31
 80040ba:	d501      	bpl.n	80040c0 <_printf_float+0x154>
 80040bc:	3301      	adds	r3, #1
 80040be:	6123      	str	r3, [r4, #16]
 80040c0:	f89d 3023 	ldrb.w	r3, [sp, #35]	@ 0x23
 80040c4:	2b00      	cmp	r3, #0
 80040c6:	d0a2      	beq.n	800400e <_printf_float+0xa2>
 80040c8:	232d      	movs	r3, #45	@ 0x2d
 80040ca:	f884 3043 	strb.w	r3, [r4, #67]	@ 0x43
 80040ce:	e79e      	b.n	800400e <_printf_float+0xa2>
 80040d0:	9a06      	ldr	r2, [sp, #24]
 80040d2:	2a47      	cmp	r2, #71	@ 0x47
 80040d4:	d1c2      	bne.n	800405c <_printf_float+0xf0>
 80040d6:	2b00      	cmp	r3, #0
 80040d8:	d1c0      	bne.n	800405c <_printf_float+0xf0>
 80040da:	2301      	movs	r3, #1
 80040dc:	e7bd      	b.n	800405a <_printf_float+0xee>
 80040de:	f1ba 0f65 	cmp.w	sl, #101	@ 0x65
 80040e2:	d9db      	bls.n	800409c <_printf_float+0x130>
 80040e4:	f1ba 0f66 	cmp.w	sl, #102	@ 0x66
 80040e8:	d118      	bne.n	800411c <_printf_float+0x1b0>
 80040ea:	2900      	cmp	r1, #0
 80040ec:	6863      	ldr	r3, [r4, #4]
 80040ee:	dd0b      	ble.n	8004108 <_printf_float+0x19c>
 80040f0:	6121      	str	r1, [r4, #16]
 80040f2:	b913      	cbnz	r3, 80040fa <_printf_float+0x18e>
 80040f4:	6822      	ldr	r2, [r4, #0]
 80040f6:	07d0      	lsls	r0, r2, #31
 80040f8:	d502      	bpl.n	8004100 <_printf_float+0x194>
 80040fa:	3301      	adds	r3, #1
 80040fc:	440b      	add	r3, r1
 80040fe:	6123      	str	r3, [r4, #16]
 8004100:	f04f 0900 	mov.w	r9, #0
 8004104:	65a1      	str	r1, [r4, #88]	@ 0x58
 8004106:	e7db      	b.n	80040c0 <_printf_float+0x154>
 8004108:	b913      	cbnz	r3, 8004110 <_printf_float+0x1a4>
 800410a:	6822      	ldr	r2, [r4, #0]
 800410c:	07d2      	lsls	r2, r2, #31
 800410e:	d501      	bpl.n	8004114 <_printf_float+0x1a8>
 8004110:	3302      	adds	r3, #2
 8004112:	e7f4      	b.n	80040fe <_printf_float+0x192>
 8004114:	2301      	movs	r3, #1
 8004116:	e7f2      	b.n	80040fe <_printf_float+0x192>
 8004118:	f04f 0a67 	mov.w	sl, #103	@ 0x67
 800411c:	9b0a      	ldr	r3, [sp, #40]	@ 0x28
 800411e:	4299      	cmp	r1, r3
 8004120:	db05      	blt.n	800412e <_printf_float+0x1c2>
 8004122:	6823      	ldr	r3, [r4, #0]
 8004124:	6121      	str	r1, [r4, #16]
 8004126:	07d8      	lsls	r0, r3, #31
 8004128:	d5ea      	bpl.n	8004100 <_printf_float+0x194>
 800412a:	1c4b      	adds	r3, r1, #1
 800412c:	e7e7      	b.n	80040fe <_printf_float+0x192>
 800412e:	2900      	cmp	r1, #0
 8004130:	bfd4      	ite	le
 8004132:	f1c1 0202 	rsble	r2, r1, #2
 8004136:	2201      	movgt	r2, #1
 8004138:	4413      	add	r3, r2
 800413a:	e7e0      	b.n	80040fe <_printf_float+0x192>
 800413c:	6823      	ldr	r3, [r4, #0]
 800413e:	055a      	lsls	r2, r3, #21
 8004140:	d407      	bmi.n	8004152 <_printf_float+0x1e6>
 8004142:	6923      	ldr	r3, [r4, #16]
 8004144:	4642      	mov	r2, r8
 8004146:	4631      	mov	r1, r6
 8004148:	4628      	mov	r0, r5
 800414a:	47b8      	blx	r7
 800414c:	3001      	adds	r0, #1
 800414e:	d12b      	bne.n	80041a8 <_printf_float+0x23c>
 8004150:	e767      	b.n	8004022 <_printf_float+0xb6>
 8004152:	f1ba 0f65 	cmp.w	sl, #101	@ 0x65
 8004156:	f240 80dd 	bls.w	8004314 <_printf_float+0x3a8>
 800415a:	2200      	movs	r2, #0
 800415c:	2300      	movs	r3, #0
 800415e:	e9d4 0112 	ldrd	r0, r1, [r4, #72]	@ 0x48
 8004162:	f7fc fcc5 	bl	8000af0 <__aeabi_dcmpeq>
 8004166:	2800      	cmp	r0, #0
 8004168:	d033      	beq.n	80041d2 <_printf_float+0x266>
 800416a:	2301      	movs	r3, #1
 800416c:	4a36      	ldr	r2, [pc, #216]	@ (8004248 <_printf_float+0x2dc>)
 800416e:	4631      	mov	r1, r6
 8004170:	4628      	mov	r0, r5
 8004172:	47b8      	blx	r7
 8004174:	3001      	adds	r0, #1
 8004176:	f43f af54 	beq.w	8004022 <_printf_float+0xb6>
 800417a:	e9dd 3809 	ldrd	r3, r8, [sp, #36]	@ 0x24
 800417e:	4543      	cmp	r3, r8
 8004180:	db02      	blt.n	8004188 <_printf_float+0x21c>
 8004182:	6823      	ldr	r3, [r4, #0]
 8004184:	07d8      	lsls	r0, r3, #31
 8004186:	d50f      	bpl.n	80041a8 <_printf_float+0x23c>
 8004188:	4631      	mov	r1, r6
 800418a:	4628      	mov	r0, r5
 800418c:	e9dd 2304 	ldrd	r2, r3, [sp, #16]
 8004190:	47b8      	blx	r7
 8004192:	3001      	adds	r0, #1
 8004194:	f43f af45 	beq.w	8004022 <_printf_float+0xb6>
 8004198:	f04f 0900 	mov.w	r9, #0
 800419c:	f108 38ff 	add.w	r8, r8, #4294967295
 80041a0:	f104 0a1a 	add.w	sl, r4, #26
 80041a4:	45c8      	cmp	r8, r9
 80041a6:	dc09      	bgt.n	80041bc <_printf_float+0x250>
 80041a8:	6823      	ldr	r3, [r4, #0]
 80041aa:	079b      	lsls	r3, r3, #30
 80041ac:	f100 8103 	bmi.w	80043b6 <_printf_float+0x44a>
 80041b0:	68e0      	ldr	r0, [r4, #12]
 80041b2:	9b0b      	ldr	r3, [sp, #44]	@ 0x2c
 80041b4:	4298      	cmp	r0, r3
 80041b6:	bfb8      	it	lt
 80041b8:	4618      	movlt	r0, r3
 80041ba:	e734      	b.n	8004026 <_printf_float+0xba>
 80041bc:	2301      	movs	r3, #1
 80041be:	4652      	mov	r2, sl
 80041c0:	4631      	mov	r1, r6
 80041c2:	4628      	mov	r0, r5
 80041c4:	47b8      	blx	r7
 80041c6:	3001      	adds	r0, #1
 80041c8:	f43f af2b 	beq.w	8004022 <_printf_float+0xb6>
 80041cc:	f109 0901 	add.w	r9, r9, #1
 80041d0:	e7e8      	b.n	80041a4 <_printf_float+0x238>
 80041d2:	9b09      	ldr	r3, [sp, #36]	@ 0x24
 80041d4:	2b00      	cmp	r3, #0
 80041d6:	dc39      	bgt.n	800424c <_printf_float+0x2e0>
 80041d8:	2301      	movs	r3, #1
 80041da:	4a1b      	ldr	r2, [pc, #108]	@ (8004248 <_printf_float+0x2dc>)
 80041dc:	4631      	mov	r1, r6
 80041de:	4628      	mov	r0, r5
 80041e0:	47b8      	blx	r7
 80041e2:	3001      	adds	r0, #1
 80041e4:	f43f af1d 	beq.w	8004022 <_printf_float+0xb6>
 80041e8:	e9dd 3909 	ldrd	r3, r9, [sp, #36]	@ 0x24
 80041ec:	ea59 0303 	orrs.w	r3, r9, r3
 80041f0:	d102      	bne.n	80041f8 <_printf_float+0x28c>
 80041f2:	6823      	ldr	r3, [r4, #0]
 80041f4:	07d9      	lsls	r1, r3, #31
 80041f6:	d5d7      	bpl.n	80041a8 <_printf_float+0x23c>
 80041f8:	4631      	mov	r1, r6
 80041fa:	4628      	mov	r0, r5
 80041fc:	e9dd 2304 	ldrd	r2, r3, [sp, #16]
 8004200:	47b8      	blx	r7
 8004202:	3001      	adds	r0, #1
 8004204:	f43f af0d 	beq.w	8004022 <_printf_float+0xb6>
 8004208:	f04f 0a00 	mov.w	sl, #0
 800420c:	f104 0b1a 	add.w	fp, r4, #26
 8004210:	9b09      	ldr	r3, [sp, #36]	@ 0x24
 8004212:	425b      	negs	r3, r3
 8004214:	4553      	cmp	r3, sl
 8004216:	dc01      	bgt.n	800421c <_printf_float+0x2b0>
 8004218:	464b      	mov	r3, r9
 800421a:	e793      	b.n	8004144 <_printf_float+0x1d8>
 800421c:	2301      	movs	r3, #1
 800421e:	465a      	mov	r2, fp
 8004220:	4631      	mov	r1, r6
 8004222:	4628      	mov	r0, r5
 8004224:	47b8      	blx	r7
 8004226:	3001      	adds	r0, #1
 8004228:	f43f aefb 	beq.w	8004022 <_printf_float+0xb6>
 800422c:	f10a 0a01 	add.w	sl, sl, #1
 8004230:	e7ee      	b.n	8004210 <_printf_float+0x2a4>
 8004232:	bf00      	nop
 8004234:	7fefffff 	.word	0x7fefffff
 8004238:	08006ecc 	.word	0x08006ecc
 800423c:	08006ec8 	.word	0x08006ec8
 8004240:	08006ed4 	.word	0x08006ed4
 8004244:	08006ed0 	.word	0x08006ed0
 8004248:	08006ed8 	.word	0x08006ed8
 800424c:	6da3      	ldr	r3, [r4, #88]	@ 0x58
 800424e:	f8dd a028 	ldr.w	sl, [sp, #40]	@ 0x28
 8004252:	4553      	cmp	r3, sl
 8004254:	bfa8      	it	ge
 8004256:	4653      	movge	r3, sl
 8004258:	2b00      	cmp	r3, #0
 800425a:	4699      	mov	r9, r3
 800425c:	dc36      	bgt.n	80042cc <_printf_float+0x360>
 800425e:	f04f 0b00 	mov.w	fp, #0
 8004262:	ea29 79e9 	bic.w	r9, r9, r9, asr #31
 8004266:	f104 021a 	add.w	r2, r4, #26
 800426a:	6da3      	ldr	r3, [r4, #88]	@ 0x58
 800426c:	9306      	str	r3, [sp, #24]
 800426e:	eba3 0309 	sub.w	r3, r3, r9
 8004272:	455b      	cmp	r3, fp
 8004274:	dc31      	bgt.n	80042da <_printf_float+0x36e>
 8004276:	9b09      	ldr	r3, [sp, #36]	@ 0x24
 8004278:	459a      	cmp	sl, r3
 800427a:	dc3a      	bgt.n	80042f2 <_printf_float+0x386>
 800427c:	6823      	ldr	r3, [r4, #0]
 800427e:	07da      	lsls	r2, r3, #31
 8004280:	d437      	bmi.n	80042f2 <_printf_float+0x386>
 8004282:	9b09      	ldr	r3, [sp, #36]	@ 0x24
 8004284:	ebaa 0903 	sub.w	r9, sl, r3
 8004288:	9b06      	ldr	r3, [sp, #24]
 800428a:	ebaa 0303 	sub.w	r3, sl, r3
 800428e:	4599      	cmp	r9, r3
 8004290:	bfa8      	it	ge
 8004292:	4699      	movge	r9, r3
 8004294:	f1b9 0f00 	cmp.w	r9, #0
 8004298:	dc33      	bgt.n	8004302 <_printf_float+0x396>
 800429a:	f04f 0800 	mov.w	r8, #0
 800429e:	ea29 79e9 	bic.w	r9, r9, r9, asr #31
 80042a2:	f104 0b1a 	add.w	fp, r4, #26
 80042a6:	9b09      	ldr	r3, [sp, #36]	@ 0x24
 80042a8:	ebaa 0303 	sub.w	r3, sl, r3
 80042ac:	eba3 0309 	sub.w	r3, r3, r9
 80042b0:	4543      	cmp	r3, r8
 80042b2:	f77f af79 	ble.w	80041a8 <_printf_float+0x23c>
 80042b6:	2301      	movs	r3, #1
 80042b8:	465a      	mov	r2, fp
 80042ba:	4631      	mov	r1, r6
 80042bc:	4628      	mov	r0, r5
 80042be:	47b8      	blx	r7
 80042c0:	3001      	adds	r0, #1
 80042c2:	f43f aeae 	beq.w	8004022 <_printf_float+0xb6>
 80042c6:	f108 0801 	add.w	r8, r8, #1
 80042ca:	e7ec      	b.n	80042a6 <_printf_float+0x33a>
 80042cc:	4642      	mov	r2, r8
 80042ce:	4631      	mov	r1, r6
 80042d0:	4628      	mov	r0, r5
 80042d2:	47b8      	blx	r7
 80042d4:	3001      	adds	r0, #1
 80042d6:	d1c2      	bne.n	800425e <_printf_float+0x2f2>
 80042d8:	e6a3      	b.n	8004022 <_printf_float+0xb6>
 80042da:	2301      	movs	r3, #1
 80042dc:	4631      	mov	r1, r6
 80042de:	4628      	mov	r0, r5
 80042e0:	9206      	str	r2, [sp, #24]
 80042e2:	47b8      	blx	r7
 80042e4:	3001      	adds	r0, #1
 80042e6:	f43f ae9c 	beq.w	8004022 <_printf_float+0xb6>
 80042ea:	f10b 0b01 	add.w	fp, fp, #1
 80042ee:	9a06      	ldr	r2, [sp, #24]
 80042f0:	e7bb      	b.n	800426a <_printf_float+0x2fe>
 80042f2:	e9dd 2304 	ldrd	r2, r3, [sp, #16]
 80042f6:	4631      	mov	r1, r6
 80042f8:	4628      	mov	r0, r5
 80042fa:	47b8      	blx	r7
 80042fc:	3001      	adds	r0, #1
 80042fe:	d1c0      	bne.n	8004282 <_printf_float+0x316>
 8004300:	e68f      	b.n	8004022 <_printf_float+0xb6>
 8004302:	9a06      	ldr	r2, [sp, #24]
 8004304:	464b      	mov	r3, r9
 8004306:	4631      	mov	r1, r6
 8004308:	4628      	mov	r0, r5
 800430a:	4442      	add	r2, r8
 800430c:	47b8      	blx	r7
 800430e:	3001      	adds	r0, #1
 8004310:	d1c3      	bne.n	800429a <_printf_float+0x32e>
 8004312:	e686      	b.n	8004022 <_printf_float+0xb6>
 8004314:	f8dd a028 	ldr.w	sl, [sp, #40]	@ 0x28
 8004318:	f1ba 0f01 	cmp.w	sl, #1
 800431c:	dc01      	bgt.n	8004322 <_printf_float+0x3b6>
 800431e:	07db      	lsls	r3, r3, #31
 8004320:	d536      	bpl.n	8004390 <_printf_float+0x424>
 8004322:	2301      	movs	r3, #1
 8004324:	4642      	mov	r2, r8
 8004326:	4631      	mov	r1, r6
 8004328:	4628      	mov	r0, r5
 800432a:	47b8      	blx	r7
 800432c:	3001      	adds	r0, #1
 800432e:	f43f ae78 	beq.w	8004022 <_printf_float+0xb6>
 8004332:	4631      	mov	r1, r6
 8004334:	4628      	mov	r0, r5
 8004336:	e9dd 2304 	ldrd	r2, r3, [sp, #16]
 800433a:	47b8      	blx	r7
 800433c:	3001      	adds	r0, #1
 800433e:	f43f ae70 	beq.w	8004022 <_printf_float+0xb6>
 8004342:	2200      	movs	r2, #0
 8004344:	2300      	movs	r3, #0
 8004346:	f10a 3aff 	add.w	sl, sl, #4294967295
 800434a:	e9d4 0112 	ldrd	r0, r1, [r4, #72]	@ 0x48
 800434e:	f7fc fbcf 	bl	8000af0 <__aeabi_dcmpeq>
 8004352:	b9c0      	cbnz	r0, 8004386 <_printf_float+0x41a>
 8004354:	4653      	mov	r3, sl
 8004356:	f108 0201 	add.w	r2, r8, #1
 800435a:	4631      	mov	r1, r6
 800435c:	4628      	mov	r0, r5
 800435e:	47b8      	blx	r7
 8004360:	3001      	adds	r0, #1
 8004362:	d10c      	bne.n	800437e <_printf_float+0x412>
 8004364:	e65d      	b.n	8004022 <_printf_float+0xb6>
 8004366:	2301      	movs	r3, #1
 8004368:	465a      	mov	r2, fp
 800436a:	4631      	mov	r1, r6
 800436c:	4628      	mov	r0, r5
 800436e:	47b8      	blx	r7
 8004370:	3001      	adds	r0, #1
 8004372:	f43f ae56 	beq.w	8004022 <_printf_float+0xb6>
 8004376:	f108 0801 	add.w	r8, r8, #1
 800437a:	45d0      	cmp	r8, sl
 800437c:	dbf3      	blt.n	8004366 <_printf_float+0x3fa>
 800437e:	464b      	mov	r3, r9
 8004380:	f104 0250 	add.w	r2, r4, #80	@ 0x50
 8004384:	e6df      	b.n	8004146 <_printf_float+0x1da>
 8004386:	f04f 0800 	mov.w	r8, #0
 800438a:	f104 0b1a 	add.w	fp, r4, #26
 800438e:	e7f4      	b.n	800437a <_printf_float+0x40e>
 8004390:	2301      	movs	r3, #1
 8004392:	4642      	mov	r2, r8
 8004394:	e7e1      	b.n	800435a <_printf_float+0x3ee>
 8004396:	2301      	movs	r3, #1
 8004398:	464a      	mov	r2, r9
 800439a:	4631      	mov	r1, r6
 800439c:	4628      	mov	r0, r5
 800439e:	47b8      	blx	r7
 80043a0:	3001      	adds	r0, #1
 80043a2:	f43f ae3e 	beq.w	8004022 <_printf_float+0xb6>
 80043a6:	f108 0801 	add.w	r8, r8, #1
 80043aa:	68e3      	ldr	r3, [r4, #12]
 80043ac:	990b      	ldr	r1, [sp, #44]	@ 0x2c
 80043ae:	1a5b      	subs	r3, r3, r1
 80043b0:	4543      	cmp	r3, r8
 80043b2:	dcf0      	bgt.n	8004396 <_printf_float+0x42a>
 80043b4:	e6fc      	b.n	80041b0 <_printf_float+0x244>
 80043b6:	f04f 0800 	mov.w	r8, #0
 80043ba:	f104 0919 	add.w	r9, r4, #25
 80043be:	e7f4      	b.n	80043aa <_printf_float+0x43e>

080043c0 <_printf_common>:
 80043c0:	e92d 47f0 	stmdb	sp!, {r4, r5, r6, r7, r8, r9, sl, lr}
 80043c4:	4616      	mov	r6, r2
 80043c6:	4698      	mov	r8, r3
 80043c8:	688a      	ldr	r2, [r1, #8]
 80043ca:	4607      	mov	r7, r0
 80043cc:	690b      	ldr	r3, [r1, #16]
 80043ce:	460c      	mov	r4, r1
 80043d0:	f8dd 9020 	ldr.w	r9, [sp, #32]
 80043d4:	4293      	cmp	r3, r2
 80043d6:	bfb8      	it	lt
 80043d8:	4613      	movlt	r3, r2
 80043da:	6033      	str	r3, [r6, #0]
 80043dc:	f891 2043 	ldrb.w	r2, [r1, #67]	@ 0x43
 80043e0:	b10a      	cbz	r2, 80043e6 <_printf_common+0x26>
 80043e2:	3301      	adds	r3, #1
 80043e4:	6033      	str	r3, [r6, #0]
 80043e6:	6823      	ldr	r3, [r4, #0]
 80043e8:	0699      	lsls	r1, r3, #26
 80043ea:	bf42      	ittt	mi
 80043ec:	6833      	ldrmi	r3, [r6, #0]
 80043ee:	3302      	addmi	r3, #2
 80043f0:	6033      	strmi	r3, [r6, #0]
 80043f2:	6825      	ldr	r5, [r4, #0]
 80043f4:	f015 0506 	ands.w	r5, r5, #6
 80043f8:	d106      	bne.n	8004408 <_printf_common+0x48>
 80043fa:	f104 0a19 	add.w	sl, r4, #25
 80043fe:	68e3      	ldr	r3, [r4, #12]
 8004400:	6832      	ldr	r2, [r6, #0]
 8004402:	1a9b      	subs	r3, r3, r2
 8004404:	42ab      	cmp	r3, r5
 8004406:	dc2b      	bgt.n	8004460 <_printf_common+0xa0>
 8004408:	f894 3043 	ldrb.w	r3, [r4, #67]	@ 0x43
 800440c:	6822      	ldr	r2, [r4, #0]
 800440e:	3b00      	subs	r3, #0
 8004410:	bf18      	it	ne
 8004412:	2301      	movne	r3, #1
 8004414:	0692      	lsls	r2, r2, #26
 8004416:	d430      	bmi.n	800447a <_printf_common+0xba>
 8004418:	f104 0243 	add.w	r2, r4, #67	@ 0x43
 800441c:	4641      	mov	r1, r8
 800441e:	4638      	mov	r0, r7
 8004420:	47c8      	blx	r9
 8004422:	3001      	adds	r0, #1
 8004424:	d023      	beq.n	800446e <_printf_common+0xae>
 8004426:	6823      	ldr	r3, [r4, #0]
 8004428:	341a      	adds	r4, #26
 800442a:	f854 2c0a 	ldr.w	r2, [r4, #-10]
 800442e:	f003 0306 	and.w	r3, r3, #6
 8004432:	2b04      	cmp	r3, #4
 8004434:	bf0a      	itet	eq
 8004436:	f854 5c0e 	ldreq.w	r5, [r4, #-14]
 800443a:	2500      	movne	r5, #0
 800443c:	6833      	ldreq	r3, [r6, #0]
 800443e:	f04f 0600 	mov.w	r6, #0
 8004442:	bf08      	it	eq
 8004444:	1aed      	subeq	r5, r5, r3
 8004446:	f854 3c12 	ldr.w	r3, [r4, #-18]
 800444a:	bf08      	it	eq
 800444c:	ea25 75e5 	biceq.w	r5, r5, r5, asr #31
 8004450:	4293      	cmp	r3, r2
 8004452:	bfc4      	itt	gt
 8004454:	1a9b      	subgt	r3, r3, r2
 8004456:	18ed      	addgt	r5, r5, r3
 8004458:	42b5      	cmp	r5, r6
 800445a:	d11a      	bne.n	8004492 <_printf_common+0xd2>
 800445c:	2000      	movs	r0, #0
 800445e:	e008      	b.n	8004472 <_printf_common+0xb2>
 8004460:	2301      	movs	r3, #1
 8004462:	4652      	mov	r2, sl
 8004464:	4641      	mov	r1, r8
 8004466:	4638      	mov	r0, r7
 8004468:	47c8      	blx	r9
 800446a:	3001      	adds	r0, #1
 800446c:	d103      	bne.n	8004476 <_printf_common+0xb6>
 800446e:	f04f 30ff 	mov.w	r0, #4294967295
 8004472:	e8bd 87f0 	ldmia.w	sp!, {r4, r5, r6, r7, r8, r9, sl, pc}
 8004476:	3501      	adds	r5, #1
 8004478:	e7c1      	b.n	80043fe <_printf_common+0x3e>
 800447a:	18e1      	adds	r1, r4, r3
 800447c:	1c5a      	adds	r2, r3, #1
 800447e:	2030      	movs	r0, #48	@ 0x30
 8004480:	3302      	adds	r3, #2
 8004482:	4422      	add	r2, r4
 8004484:	f881 0043 	strb.w	r0, [r1, #67]	@ 0x43
 8004488:	f894 1045 	ldrb.w	r1, [r4, #69]	@ 0x45
 800448c:	f882 1043 	strb.w	r1, [r2, #67]	@ 0x43
 8004490:	e7c2      	b.n	8004418 <_printf_common+0x58>
 8004492:	2301      	movs	r3, #1
 8004494:	4622      	mov	r2, r4
 8004496:	4641      	mov	r1, r8
 8004498:	4638      	mov	r0, r7
 800449a:	47c8      	blx	r9
 800449c:	3001      	adds	r0, #1
 800449e:	d0e6      	beq.n	800446e <_printf_common+0xae>
 80044a0:	3601      	adds	r6, #1
 80044a2:	e7d9      	b.n	8004458 <_printf_common+0x98>

080044a4 <_printf_i>:
 80044a4:	e92d 47ff 	stmdb	sp!, {r0, r1, r2, r3, r4, r5, r6, r7, r8, r9, sl, lr}
 80044a8:	7e0f      	ldrb	r7, [r1, #24]
 80044aa:	4691      	mov	r9, r2
 80044ac:	4680      	mov	r8, r0
 80044ae:	460c      	mov	r4, r1
 80044b0:	2f78      	cmp	r7, #120	@ 0x78
 80044b2:	469a      	mov	sl, r3
 80044b4:	9e0c      	ldr	r6, [sp, #48]	@ 0x30
 80044b6:	f101 0243 	add.w	r2, r1, #67	@ 0x43
 80044ba:	d807      	bhi.n	80044cc <_printf_i+0x28>
 80044bc:	2f62      	cmp	r7, #98	@ 0x62
 80044be:	d80a      	bhi.n	80044d6 <_printf_i+0x32>
 80044c0:	2f00      	cmp	r7, #0
 80044c2:	f000 80d1 	beq.w	8004668 <_printf_i+0x1c4>
 80044c6:	2f58      	cmp	r7, #88	@ 0x58
 80044c8:	f000 80b8 	beq.w	800463c <_printf_i+0x198>
 80044cc:	f104 0642 	add.w	r6, r4, #66	@ 0x42
 80044d0:	f884 7042 	strb.w	r7, [r4, #66]	@ 0x42
 80044d4:	e03a      	b.n	800454c <_printf_i+0xa8>
 80044d6:	f1a7 0363 	sub.w	r3, r7, #99	@ 0x63
 80044da:	2b15      	cmp	r3, #21
 80044dc:	d8f6      	bhi.n	80044cc <_printf_i+0x28>
 80044de:	a101      	add	r1, pc, #4	@ (adr r1, 80044e4 <_printf_i+0x40>)
 80044e0:	f851 f023 	ldr.w	pc, [r1, r3, lsl #2]
 80044e4:	0800453d 	.word	0x0800453d
 80044e8:	08004551 	.word	0x08004551
 80044ec:	080044cd 	.word	0x080044cd
 80044f0:	080044cd 	.word	0x080044cd
 80044f4:	080044cd 	.word	0x080044cd
 80044f8:	080044cd 	.word	0x080044cd
 80044fc:	08004551 	.word	0x08004551
 8004500:	080044cd 	.word	0x080044cd
 8004504:	080044cd 	.word	0x080044cd
 8004508:	080044cd 	.word	0x080044cd
 800450c:	080044cd 	.word	0x080044cd
 8004510:	0800464f 	.word	0x0800464f
 8004514:	0800457b 	.word	0x0800457b
 8004518:	08004609 	.word	0x08004609
 800451c:	080044cd 	.word	0x080044cd
 8004520:	080044cd 	.word	0x080044cd
 8004524:	08004671 	.word	0x08004671
 8004528:	080044cd 	.word	0x080044cd
 800452c:	0800457b 	.word	0x0800457b
 8004530:	080044cd 	.word	0x080044cd
 8004534:	080044cd 	.word	0x080044cd
 8004538:	08004611 	.word	0x08004611
 800453c:	6833      	ldr	r3, [r6, #0]
 800453e:	1d1a      	adds	r2, r3, #4
 8004540:	681b      	ldr	r3, [r3, #0]
 8004542:	6032      	str	r2, [r6, #0]
 8004544:	f104 0642 	add.w	r6, r4, #66	@ 0x42
 8004548:	f884 3042 	strb.w	r3, [r4, #66]	@ 0x42
 800454c:	2301      	movs	r3, #1
 800454e:	e09c      	b.n	800468a <_printf_i+0x1e6>
 8004550:	6833      	ldr	r3, [r6, #0]
 8004552:	6820      	ldr	r0, [r4, #0]
 8004554:	1d19      	adds	r1, r3, #4
 8004556:	6031      	str	r1, [r6, #0]
 8004558:	0606      	lsls	r6, r0, #24
 800455a:	d501      	bpl.n	8004560 <_printf_i+0xbc>
 800455c:	681d      	ldr	r5, [r3, #0]
 800455e:	e003      	b.n	8004568 <_printf_i+0xc4>
 8004560:	0645      	lsls	r5, r0, #25
 8004562:	d5fb      	bpl.n	800455c <_printf_i+0xb8>
 8004564:	f9b3 5000 	ldrsh.w	r5, [r3]
 8004568:	2d00      	cmp	r5, #0
 800456a:	da03      	bge.n	8004574 <_printf_i+0xd0>
 800456c:	232d      	movs	r3, #45	@ 0x2d
 800456e:	426d      	negs	r5, r5
 8004570:	f884 3043 	strb.w	r3, [r4, #67]	@ 0x43
 8004574:	4858      	ldr	r0, [pc, #352]	@ (80046d8 <_printf_i+0x234>)
 8004576:	230a      	movs	r3, #10
 8004578:	e011      	b.n	800459e <_printf_i+0xfa>
 800457a:	6821      	ldr	r1, [r4, #0]
 800457c:	6833      	ldr	r3, [r6, #0]
 800457e:	0608      	lsls	r0, r1, #24
 8004580:	f853 5b04 	ldr.w	r5, [r3], #4
 8004584:	d402      	bmi.n	800458c <_printf_i+0xe8>
 8004586:	0649      	lsls	r1, r1, #25
 8004588:	bf48      	it	mi
 800458a:	b2ad      	uxthmi	r5, r5
 800458c:	2f6f      	cmp	r7, #111	@ 0x6f
 800458e:	6033      	str	r3, [r6, #0]
 8004590:	4851      	ldr	r0, [pc, #324]	@ (80046d8 <_printf_i+0x234>)
 8004592:	bf14      	ite	ne
 8004594:	230a      	movne	r3, #10
 8004596:	2308      	moveq	r3, #8
 8004598:	2100      	movs	r1, #0
 800459a:	f884 1043 	strb.w	r1, [r4, #67]	@ 0x43
 800459e:	6866      	ldr	r6, [r4, #4]
 80045a0:	2e00      	cmp	r6, #0
 80045a2:	60a6      	str	r6, [r4, #8]
 80045a4:	db05      	blt.n	80045b2 <_printf_i+0x10e>
 80045a6:	6821      	ldr	r1, [r4, #0]
 80045a8:	432e      	orrs	r6, r5
 80045aa:	f021 0104 	bic.w	r1, r1, #4
 80045ae:	6021      	str	r1, [r4, #0]
 80045b0:	d04b      	beq.n	800464a <_printf_i+0x1a6>
 80045b2:	4616      	mov	r6, r2
 80045b4:	fbb5 f1f3 	udiv	r1, r5, r3
 80045b8:	fb03 5711 	mls	r7, r3, r1, r5
 80045bc:	5dc7      	ldrb	r7, [r0, r7]
 80045be:	f806 7d01 	strb.w	r7, [r6, #-1]!
 80045c2:	462f      	mov	r7, r5
 80045c4:	460d      	mov	r5, r1
 80045c6:	42bb      	cmp	r3, r7
 80045c8:	d9f4      	bls.n	80045b4 <_printf_i+0x110>
 80045ca:	2b08      	cmp	r3, #8
 80045cc:	d10b      	bne.n	80045e6 <_printf_i+0x142>
 80045ce:	6823      	ldr	r3, [r4, #0]
 80045d0:	07df      	lsls	r7, r3, #31
 80045d2:	d508      	bpl.n	80045e6 <_printf_i+0x142>
 80045d4:	6923      	ldr	r3, [r4, #16]
 80045d6:	6861      	ldr	r1, [r4, #4]
 80045d8:	4299      	cmp	r1, r3
 80045da:	bfde      	ittt	le
 80045dc:	2330      	movle	r3, #48	@ 0x30
 80045de:	f806 3c01 	strble.w	r3, [r6, #-1]
 80045e2:	f106 36ff 	addle.w	r6, r6, #4294967295
 80045e6:	1b92      	subs	r2, r2, r6
 80045e8:	6122      	str	r2, [r4, #16]
 80045ea:	464b      	mov	r3, r9
 80045ec:	aa03      	add	r2, sp, #12
 80045ee:	4621      	mov	r1, r4
 80045f0:	4640      	mov	r0, r8
 80045f2:	f8cd a000 	str.w	sl, [sp]
 80045f6:	f7ff fee3 	bl	80043c0 <_printf_common>
 80045fa:	3001      	adds	r0, #1
 80045fc:	d14a      	bne.n	8004694 <_printf_i+0x1f0>
 80045fe:	f04f 30ff 	mov.w	r0, #4294967295
 8004602:	b004      	add	sp, #16
 8004604:	e8bd 87f0 	ldmia.w	sp!, {r4, r5, r6, r7, r8, r9, sl, pc}
 8004608:	6823      	ldr	r3, [r4, #0]
 800460a:	f043 0320 	orr.w	r3, r3, #32
 800460e:	6023      	str	r3, [r4, #0]
 8004610:	2778      	movs	r7, #120	@ 0x78
 8004612:	4832      	ldr	r0, [pc, #200]	@ (80046dc <_printf_i+0x238>)
 8004614:	6823      	ldr	r3, [r4, #0]
 8004616:	f884 7045 	strb.w	r7, [r4, #69]	@ 0x45
 800461a:	061f      	lsls	r7, r3, #24
 800461c:	6831      	ldr	r1, [r6, #0]
 800461e:	f851 5b04 	ldr.w	r5, [r1], #4
 8004622:	d402      	bmi.n	800462a <_printf_i+0x186>
 8004624:	065f      	lsls	r7, r3, #25
 8004626:	bf48      	it	mi
 8004628:	b2ad      	uxthmi	r5, r5
 800462a:	6031      	str	r1, [r6, #0]
 800462c:	07d9      	lsls	r1, r3, #31
 800462e:	bf44      	itt	mi
 8004630:	f043 0320 	orrmi.w	r3, r3, #32
 8004634:	6023      	strmi	r3, [r4, #0]
 8004636:	b11d      	cbz	r5, 8004640 <_printf_i+0x19c>
 8004638:	2310      	movs	r3, #16
 800463a:	e7ad      	b.n	8004598 <_printf_i+0xf4>
 800463c:	4826      	ldr	r0, [pc, #152]	@ (80046d8 <_printf_i+0x234>)
 800463e:	e7e9      	b.n	8004614 <_printf_i+0x170>
 8004640:	6823      	ldr	r3, [r4, #0]
 8004642:	f023 0320 	bic.w	r3, r3, #32
 8004646:	6023      	str	r3, [r4, #0]
 8004648:	e7f6      	b.n	8004638 <_printf_i+0x194>
 800464a:	4616      	mov	r6, r2
 800464c:	e7bd      	b.n	80045ca <_printf_i+0x126>
 800464e:	6833      	ldr	r3, [r6, #0]
 8004650:	6825      	ldr	r5, [r4, #0]
 8004652:	1d18      	adds	r0, r3, #4
 8004654:	6961      	ldr	r1, [r4, #20]
 8004656:	6030      	str	r0, [r6, #0]
 8004658:	062e      	lsls	r6, r5, #24
 800465a:	681b      	ldr	r3, [r3, #0]
 800465c:	d501      	bpl.n	8004662 <_printf_i+0x1be>
 800465e:	6019      	str	r1, [r3, #0]
 8004660:	e002      	b.n	8004668 <_printf_i+0x1c4>
 8004662:	0668      	lsls	r0, r5, #25
 8004664:	d5fb      	bpl.n	800465e <_printf_i+0x1ba>
 8004666:	8019      	strh	r1, [r3, #0]
 8004668:	2300      	movs	r3, #0
 800466a:	4616      	mov	r6, r2
 800466c:	6123      	str	r3, [r4, #16]
 800466e:	e7bc      	b.n	80045ea <_printf_i+0x146>
 8004670:	6833      	ldr	r3, [r6, #0]
 8004672:	2100      	movs	r1, #0
 8004674:	1d1a      	adds	r2, r3, #4
 8004676:	6032      	str	r2, [r6, #0]
 8004678:	681e      	ldr	r6, [r3, #0]
 800467a:	6862      	ldr	r2, [r4, #4]
 800467c:	4630      	mov	r0, r6
 800467e:	f000 f9d4 	bl	8004a2a <memchr>
 8004682:	b108      	cbz	r0, 8004688 <_printf_i+0x1e4>
 8004684:	1b80      	subs	r0, r0, r6
 8004686:	6060      	str	r0, [r4, #4]
 8004688:	6863      	ldr	r3, [r4, #4]
 800468a:	6123      	str	r3, [r4, #16]
 800468c:	2300      	movs	r3, #0
 800468e:	f884 3043 	strb.w	r3, [r4, #67]	@ 0x43
 8004692:	e7aa      	b.n	80045ea <_printf_i+0x146>
 8004694:	6923      	ldr	r3, [r4, #16]
 8004696:	4632      	mov	r2, r6
 8004698:	4649      	mov	r1, r9
 800469a:	4640      	mov	r0, r8
 800469c:	47d0      	blx	sl
 800469e:	3001      	adds	r0, #1
 80046a0:	d0ad      	beq.n	80045fe <_printf_i+0x15a>
 80046a2:	6823      	ldr	r3, [r4, #0]
 80046a4:	079b      	lsls	r3, r3, #30
 80046a6:	d413      	bmi.n	80046d0 <_printf_i+0x22c>
 80046a8:	68e0      	ldr	r0, [r4, #12]
 80046aa:	9b03      	ldr	r3, [sp, #12]
 80046ac:	4298      	cmp	r0, r3
 80046ae:	bfb8      	it	lt
 80046b0:	4618      	movlt	r0, r3
 80046b2:	e7a6      	b.n	8004602 <_printf_i+0x15e>
 80046b4:	2301      	movs	r3, #1
 80046b6:	4632      	mov	r2, r6
 80046b8:	4649      	mov	r1, r9
 80046ba:	4640      	mov	r0, r8
 80046bc:	47d0      	blx	sl
 80046be:	3001      	adds	r0, #1
 80046c0:	d09d      	beq.n	80045fe <_printf_i+0x15a>
 80046c2:	3501      	adds	r5, #1
 80046c4:	68e3      	ldr	r3, [r4, #12]
 80046c6:	9903      	ldr	r1, [sp, #12]
 80046c8:	1a5b      	subs	r3, r3, r1
 80046ca:	42ab      	cmp	r3, r5
 80046cc:	dcf2      	bgt.n	80046b4 <_printf_i+0x210>
 80046ce:	e7eb      	b.n	80046a8 <_printf_i+0x204>
 80046d0:	2500      	movs	r5, #0
 80046d2:	f104 0619 	add.w	r6, r4, #25
 80046d6:	e7f5      	b.n	80046c4 <_printf_i+0x220>
 80046d8:	08006eda 	.word	0x08006eda
 80046dc:	08006eeb 	.word	0x08006eeb

080046e0 <std>:
 80046e0:	2300      	movs	r3, #0
 80046e2:	b510      	push	{r4, lr}
 80046e4:	4604      	mov	r4, r0
 80046e6:	6083      	str	r3, [r0, #8]
 80046e8:	8181      	strh	r1, [r0, #12]
 80046ea:	4619      	mov	r1, r3
 80046ec:	6643      	str	r3, [r0, #100]	@ 0x64
 80046ee:	81c2      	strh	r2, [r0, #14]
 80046f0:	2208      	movs	r2, #8
 80046f2:	6183      	str	r3, [r0, #24]
 80046f4:	e9c0 3300 	strd	r3, r3, [r0]
 80046f8:	e9c0 3304 	strd	r3, r3, [r0, #16]
 80046fc:	305c      	adds	r0, #92	@ 0x5c
 80046fe:	f000 f915 	bl	800492c <memset>
 8004702:	4b0d      	ldr	r3, [pc, #52]	@ (8004738 <std+0x58>)
 8004704:	6224      	str	r4, [r4, #32]
 8004706:	6263      	str	r3, [r4, #36]	@ 0x24
 8004708:	4b0c      	ldr	r3, [pc, #48]	@ (800473c <std+0x5c>)
 800470a:	62a3      	str	r3, [r4, #40]	@ 0x28
 800470c:	4b0c      	ldr	r3, [pc, #48]	@ (8004740 <std+0x60>)
 800470e:	62e3      	str	r3, [r4, #44]	@ 0x2c
 8004710:	4b0c      	ldr	r3, [pc, #48]	@ (8004744 <std+0x64>)
 8004712:	6323      	str	r3, [r4, #48]	@ 0x30
 8004714:	4b0c      	ldr	r3, [pc, #48]	@ (8004748 <std+0x68>)
 8004716:	429c      	cmp	r4, r3
 8004718:	d006      	beq.n	8004728 <std+0x48>
 800471a:	f103 0268 	add.w	r2, r3, #104	@ 0x68
 800471e:	4294      	cmp	r4, r2
 8004720:	d002      	beq.n	8004728 <std+0x48>
 8004722:	33d0      	adds	r3, #208	@ 0xd0
 8004724:	429c      	cmp	r4, r3
 8004726:	d105      	bne.n	8004734 <std+0x54>
 8004728:	f104 0058 	add.w	r0, r4, #88	@ 0x58
 800472c:	e8bd 4010 	ldmia.w	sp!, {r4, lr}
 8004730:	f000 b978 	b.w	8004a24 <__retarget_lock_init_recursive>
 8004734:	bd10      	pop	{r4, pc}
 8004736:	bf00      	nop
 8004738:	08004865 	.word	0x08004865
 800473c:	08004887 	.word	0x08004887
 8004740:	080048bf 	.word	0x080048bf
 8004744:	080048e3 	.word	0x080048e3
 8004748:	2000136c 	.word	0x2000136c

0800474c <stdio_exit_handler>:
 800474c:	4a02      	ldr	r2, [pc, #8]	@ (8004758 <stdio_exit_handler+0xc>)
 800474e:	4903      	ldr	r1, [pc, #12]	@ (800475c <stdio_exit_handler+0x10>)
 8004750:	4803      	ldr	r0, [pc, #12]	@ (8004760 <stdio_exit_handler+0x14>)
 8004752:	f000 b869 	b.w	8004828 <_fwalk_sglue>
 8004756:	bf00      	nop
 8004758:	20000004 	.word	0x20000004
 800475c:	080063c1 	.word	0x080063c1
 8004760:	20000014 	.word	0x20000014

08004764 <cleanup_stdio>:
 8004764:	6841      	ldr	r1, [r0, #4]
 8004766:	4b0c      	ldr	r3, [pc, #48]	@ (8004798 <cleanup_stdio+0x34>)
 8004768:	4299      	cmp	r1, r3
 800476a:	b510      	push	{r4, lr}
 800476c:	4604      	mov	r4, r0
 800476e:	d001      	beq.n	8004774 <cleanup_stdio+0x10>
 8004770:	f001 fe26 	bl	80063c0 <_fflush_r>
 8004774:	68a1      	ldr	r1, [r4, #8]
 8004776:	4b09      	ldr	r3, [pc, #36]	@ (800479c <cleanup_stdio+0x38>)
 8004778:	4299      	cmp	r1, r3
 800477a:	d002      	beq.n	8004782 <cleanup_stdio+0x1e>
 800477c:	4620      	mov	r0, r4
 800477e:	f001 fe1f 	bl	80063c0 <_fflush_r>
 8004782:	68e1      	ldr	r1, [r4, #12]
 8004784:	4b06      	ldr	r3, [pc, #24]	@ (80047a0 <cleanup_stdio+0x3c>)
 8004786:	4299      	cmp	r1, r3
 8004788:	d004      	beq.n	8004794 <cleanup_stdio+0x30>
 800478a:	4620      	mov	r0, r4
 800478c:	e8bd 4010 	ldmia.w	sp!, {r4, lr}
 8004790:	f001 be16 	b.w	80063c0 <_fflush_r>
 8004794:	bd10      	pop	{r4, pc}
 8004796:	bf00      	nop
 8004798:	2000136c 	.word	0x2000136c
 800479c:	200013d4 	.word	0x200013d4
 80047a0:	2000143c 	.word	0x2000143c

080047a4 <global_stdio_init.part.0>:
 80047a4:	b510      	push	{r4, lr}
 80047a6:	4b0b      	ldr	r3, [pc, #44]	@ (80047d4 <global_stdio_init.part.0+0x30>)
 80047a8:	2104      	movs	r1, #4
 80047aa:	4c0b      	ldr	r4, [pc, #44]	@ (80047d8 <global_stdio_init.part.0+0x34>)
 80047ac:	4a0b      	ldr	r2, [pc, #44]	@ (80047dc <global_stdio_init.part.0+0x38>)
 80047ae:	4620      	mov	r0, r4
 80047b0:	601a      	str	r2, [r3, #0]
 80047b2:	2200      	movs	r2, #0
 80047b4:	f7ff ff94 	bl	80046e0 <std>
 80047b8:	f104 0068 	add.w	r0, r4, #104	@ 0x68
 80047bc:	2201      	movs	r2, #1
 80047be:	2109      	movs	r1, #9
 80047c0:	f7ff ff8e 	bl	80046e0 <std>
 80047c4:	f104 00d0 	add.w	r0, r4, #208	@ 0xd0
 80047c8:	2202      	movs	r2, #2
 80047ca:	2112      	movs	r1, #18
 80047cc:	e8bd 4010 	ldmia.w	sp!, {r4, lr}
 80047d0:	f7ff bf86 	b.w	80046e0 <std>
 80047d4:	200014a4 	.word	0x200014a4
 80047d8:	2000136c 	.word	0x2000136c
 80047dc:	0800474d 	.word	0x0800474d

080047e0 <__sfp_lock_acquire>:
 80047e0:	4801      	ldr	r0, [pc, #4]	@ (80047e8 <__sfp_lock_acquire+0x8>)
 80047e2:	f000 b920 	b.w	8004a26 <__retarget_lock_acquire_recursive>
 80047e6:	bf00      	nop
 80047e8:	200014ad 	.word	0x200014ad

080047ec <__sfp_lock_release>:
 80047ec:	4801      	ldr	r0, [pc, #4]	@ (80047f4 <__sfp_lock_release+0x8>)
 80047ee:	f000 b91b 	b.w	8004a28 <__retarget_lock_release_recursive>
 80047f2:	bf00      	nop
 80047f4:	200014ad 	.word	0x200014ad

080047f8 <__sinit>:
 80047f8:	b510      	push	{r4, lr}
 80047fa:	4604      	mov	r4, r0
 80047fc:	f7ff fff0 	bl	80047e0 <__sfp_lock_acquire>
 8004800:	6a23      	ldr	r3, [r4, #32]
 8004802:	b11b      	cbz	r3, 800480c <__sinit+0x14>
 8004804:	e8bd 4010 	ldmia.w	sp!, {r4, lr}
 8004808:	f7ff bff0 	b.w	80047ec <__sfp_lock_release>
 800480c:	4b04      	ldr	r3, [pc, #16]	@ (8004820 <__sinit+0x28>)
 800480e:	6223      	str	r3, [r4, #32]
 8004810:	4b04      	ldr	r3, [pc, #16]	@ (8004824 <__sinit+0x2c>)
 8004812:	681b      	ldr	r3, [r3, #0]
 8004814:	2b00      	cmp	r3, #0
 8004816:	d1f5      	bne.n	8004804 <__sinit+0xc>
 8004818:	f7ff ffc4 	bl	80047a4 <global_stdio_init.part.0>
 800481c:	e7f2      	b.n	8004804 <__sinit+0xc>
 800481e:	bf00      	nop
 8004820:	08004765 	.word	0x08004765
 8004824:	200014a4 	.word	0x200014a4

08004828 <_fwalk_sglue>:
 8004828:	e92d 43f8 	stmdb	sp!, {r3, r4, r5, r6, r7, r8, r9, lr}
 800482c:	4607      	mov	r7, r0
 800482e:	4688      	mov	r8, r1
 8004830:	4614      	mov	r4, r2
 8004832:	2600      	movs	r6, #0
 8004834:	e9d4 9501 	ldrd	r9, r5, [r4, #4]
 8004838:	f1b9 0901 	subs.w	r9, r9, #1
 800483c:	d505      	bpl.n	800484a <_fwalk_sglue+0x22>
 800483e:	6824      	ldr	r4, [r4, #0]
 8004840:	2c00      	cmp	r4, #0
 8004842:	d1f7      	bne.n	8004834 <_fwalk_sglue+0xc>
 8004844:	4630      	mov	r0, r6
 8004846:	e8bd 83f8 	ldmia.w	sp!, {r3, r4, r5, r6, r7, r8, r9, pc}
 800484a:	89ab      	ldrh	r3, [r5, #12]
 800484c:	2b01      	cmp	r3, #1
 800484e:	d907      	bls.n	8004860 <_fwalk_sglue+0x38>
 8004850:	f9b5 300e 	ldrsh.w	r3, [r5, #14]
 8004854:	3301      	adds	r3, #1
 8004856:	d003      	beq.n	8004860 <_fwalk_sglue+0x38>
 8004858:	4629      	mov	r1, r5
 800485a:	4638      	mov	r0, r7
 800485c:	47c0      	blx	r8
 800485e:	4306      	orrs	r6, r0
 8004860:	3568      	adds	r5, #104	@ 0x68
 8004862:	e7e9      	b.n	8004838 <_fwalk_sglue+0x10>

08004864 <__sread>:
 8004864:	b510      	push	{r4, lr}
 8004866:	460c      	mov	r4, r1
 8004868:	f9b1 100e 	ldrsh.w	r1, [r1, #14]
 800486c:	f000 f88c 	bl	8004988 <_read_r>
 8004870:	2800      	cmp	r0, #0
 8004872:	bfab      	itete	ge
 8004874:	6d63      	ldrge	r3, [r4, #84]	@ 0x54
 8004876:	89a3      	ldrhlt	r3, [r4, #12]
 8004878:	181b      	addge	r3, r3, r0
 800487a:	f423 5380 	biclt.w	r3, r3, #4096	@ 0x1000
 800487e:	bfac      	ite	ge
 8004880:	6563      	strge	r3, [r4, #84]	@ 0x54
 8004882:	81a3      	strhlt	r3, [r4, #12]
 8004884:	bd10      	pop	{r4, pc}

08004886 <__swrite>:
 8004886:	e92d 41f0 	stmdb	sp!, {r4, r5, r6, r7, r8, lr}
 800488a:	461f      	mov	r7, r3
 800488c:	898b      	ldrh	r3, [r1, #12]
 800488e:	4605      	mov	r5, r0
 8004890:	460c      	mov	r4, r1
 8004892:	05db      	lsls	r3, r3, #23
 8004894:	4616      	mov	r6, r2
 8004896:	d505      	bpl.n	80048a4 <__swrite+0x1e>
 8004898:	2302      	movs	r3, #2
 800489a:	2200      	movs	r2, #0
 800489c:	f9b1 100e 	ldrsh.w	r1, [r1, #14]
 80048a0:	f000 f860 	bl	8004964 <_lseek_r>
 80048a4:	89a3      	ldrh	r3, [r4, #12]
 80048a6:	4632      	mov	r2, r6
 80048a8:	f9b4 100e 	ldrsh.w	r1, [r4, #14]
 80048ac:	4628      	mov	r0, r5
 80048ae:	f423 5380 	bic.w	r3, r3, #4096	@ 0x1000
 80048b2:	81a3      	strh	r3, [r4, #12]
 80048b4:	463b      	mov	r3, r7
 80048b6:	e8bd 41f0 	ldmia.w	sp!, {r4, r5, r6, r7, r8, lr}
 80048ba:	f000 b877 	b.w	80049ac <_write_r>

080048be <__sseek>:
 80048be:	b510      	push	{r4, lr}
 80048c0:	460c      	mov	r4, r1
 80048c2:	f9b1 100e 	ldrsh.w	r1, [r1, #14]
 80048c6:	f000 f84d 	bl	8004964 <_lseek_r>
 80048ca:	1c43      	adds	r3, r0, #1
 80048cc:	89a3      	ldrh	r3, [r4, #12]
 80048ce:	bf15      	itete	ne
 80048d0:	6560      	strne	r0, [r4, #84]	@ 0x54
 80048d2:	f423 5380 	biceq.w	r3, r3, #4096	@ 0x1000
 80048d6:	f443 5380 	orrne.w	r3, r3, #4096	@ 0x1000
 80048da:	81a3      	strheq	r3, [r4, #12]
 80048dc:	bf18      	it	ne
 80048de:	81a3      	strhne	r3, [r4, #12]
 80048e0:	bd10      	pop	{r4, pc}

080048e2 <__sclose>:
 80048e2:	f9b1 100e 	ldrsh.w	r1, [r1, #14]
 80048e6:	f000 b82d 	b.w	8004944 <_close_r>
	...

080048ec <_vsiprintf_r>:
 80048ec:	b510      	push	{r4, lr}
 80048ee:	b09a      	sub	sp, #104	@ 0x68
 80048f0:	2400      	movs	r4, #0
 80048f2:	9100      	str	r1, [sp, #0]
 80048f4:	9104      	str	r1, [sp, #16]
 80048f6:	f06f 4100 	mvn.w	r1, #2147483648	@ 0x80000000
 80048fa:	9419      	str	r4, [sp, #100]	@ 0x64
 80048fc:	9105      	str	r1, [sp, #20]
 80048fe:	9102      	str	r1, [sp, #8]
 8004900:	4904      	ldr	r1, [pc, #16]	@ (8004914 <_vsiprintf_r+0x28>)
 8004902:	9103      	str	r1, [sp, #12]
 8004904:	4669      	mov	r1, sp
 8004906:	f001 fbdb 	bl	80060c0 <_svfiprintf_r>
 800490a:	9b00      	ldr	r3, [sp, #0]
 800490c:	701c      	strb	r4, [r3, #0]
 800490e:	b01a      	add	sp, #104	@ 0x68
 8004910:	bd10      	pop	{r4, pc}
 8004912:	bf00      	nop
 8004914:	ffff0208 	.word	0xffff0208

08004918 <vsiprintf>:
 8004918:	4613      	mov	r3, r2
 800491a:	460a      	mov	r2, r1
 800491c:	4601      	mov	r1, r0
 800491e:	4802      	ldr	r0, [pc, #8]	@ (8004928 <vsiprintf+0x10>)
 8004920:	6800      	ldr	r0, [r0, #0]
 8004922:	f7ff bfe3 	b.w	80048ec <_vsiprintf_r>
 8004926:	bf00      	nop
 8004928:	20000010 	.word	0x20000010

0800492c <memset>:
 800492c:	4402      	add	r2, r0
 800492e:	4603      	mov	r3, r0
 8004930:	4293      	cmp	r3, r2
 8004932:	d100      	bne.n	8004936 <memset+0xa>
 8004934:	4770      	bx	lr
 8004936:	f803 1b01 	strb.w	r1, [r3], #1
 800493a:	e7f9      	b.n	8004930 <memset+0x4>

0800493c <_localeconv_r>:
 800493c:	4800      	ldr	r0, [pc, #0]	@ (8004940 <_localeconv_r+0x4>)
 800493e:	4770      	bx	lr
 8004940:	20000150 	.word	0x20000150

08004944 <_close_r>:
 8004944:	b538      	push	{r3, r4, r5, lr}
 8004946:	2300      	movs	r3, #0
 8004948:	4d05      	ldr	r5, [pc, #20]	@ (8004960 <_close_r+0x1c>)
 800494a:	4604      	mov	r4, r0
 800494c:	4608      	mov	r0, r1
 800494e:	602b      	str	r3, [r5, #0]
 8004950:	f7fd fb74 	bl	800203c <_close>
 8004954:	1c43      	adds	r3, r0, #1
 8004956:	d102      	bne.n	800495e <_close_r+0x1a>
 8004958:	682b      	ldr	r3, [r5, #0]
 800495a:	b103      	cbz	r3, 800495e <_close_r+0x1a>
 800495c:	6023      	str	r3, [r4, #0]
 800495e:	bd38      	pop	{r3, r4, r5, pc}
 8004960:	200014a8 	.word	0x200014a8

08004964 <_lseek_r>:
 8004964:	b538      	push	{r3, r4, r5, lr}
 8004966:	4604      	mov	r4, r0
 8004968:	4d06      	ldr	r5, [pc, #24]	@ (8004984 <_lseek_r+0x20>)
 800496a:	4608      	mov	r0, r1
 800496c:	4611      	mov	r1, r2
 800496e:	2200      	movs	r2, #0
 8004970:	602a      	str	r2, [r5, #0]
 8004972:	461a      	mov	r2, r3
 8004974:	f7fd fb89 	bl	800208a <_lseek>
 8004978:	1c43      	adds	r3, r0, #1
 800497a:	d102      	bne.n	8004982 <_lseek_r+0x1e>
 800497c:	682b      	ldr	r3, [r5, #0]
 800497e:	b103      	cbz	r3, 8004982 <_lseek_r+0x1e>
 8004980:	6023      	str	r3, [r4, #0]
 8004982:	bd38      	pop	{r3, r4, r5, pc}
 8004984:	200014a8 	.word	0x200014a8

08004988 <_read_r>:
 8004988:	b538      	push	{r3, r4, r5, lr}
 800498a:	4604      	mov	r4, r0
 800498c:	4d06      	ldr	r5, [pc, #24]	@ (80049a8 <_read_r+0x20>)
 800498e:	4608      	mov	r0, r1
 8004990:	4611      	mov	r1, r2
 8004992:	2200      	movs	r2, #0
 8004994:	602a      	str	r2, [r5, #0]
 8004996:	461a      	mov	r2, r3
 8004998:	f7fd fb17 	bl	8001fca <_read>
 800499c:	1c43      	adds	r3, r0, #1
 800499e:	d102      	bne.n	80049a6 <_read_r+0x1e>
 80049a0:	682b      	ldr	r3, [r5, #0]
 80049a2:	b103      	cbz	r3, 80049a6 <_read_r+0x1e>
 80049a4:	6023      	str	r3, [r4, #0]
 80049a6:	bd38      	pop	{r3, r4, r5, pc}
 80049a8:	200014a8 	.word	0x200014a8

080049ac <_write_r>:
 80049ac:	b538      	push	{r3, r4, r5, lr}
 80049ae:	4604      	mov	r4, r0
 80049b0:	4d06      	ldr	r5, [pc, #24]	@ (80049cc <_write_r+0x20>)
 80049b2:	4608      	mov	r0, r1
 80049b4:	4611      	mov	r1, r2
 80049b6:	2200      	movs	r2, #0
 80049b8:	602a      	str	r2, [r5, #0]
 80049ba:	461a      	mov	r2, r3
 80049bc:	f7fd fb22 	bl	8002004 <_write>
 80049c0:	1c43      	adds	r3, r0, #1
 80049c2:	d102      	bne.n	80049ca <_write_r+0x1e>
 80049c4:	682b      	ldr	r3, [r5, #0]
 80049c6:	b103      	cbz	r3, 80049ca <_write_r+0x1e>
 80049c8:	6023      	str	r3, [r4, #0]
 80049ca:	bd38      	pop	{r3, r4, r5, pc}
 80049cc:	200014a8 	.word	0x200014a8

080049d0 <__errno>:
 80049d0:	4b01      	ldr	r3, [pc, #4]	@ (80049d8 <__errno+0x8>)
 80049d2:	6818      	ldr	r0, [r3, #0]
 80049d4:	4770      	bx	lr
 80049d6:	bf00      	nop
 80049d8:	20000010 	.word	0x20000010

080049dc <__libc_init_array>:
 80049dc:	b570      	push	{r4, r5, r6, lr}
 80049de:	4d0d      	ldr	r5, [pc, #52]	@ (8004a14 <__libc_init_array+0x38>)
 80049e0:	2600      	movs	r6, #0
 80049e2:	4c0d      	ldr	r4, [pc, #52]	@ (8004a18 <__libc_init_array+0x3c>)
 80049e4:	1b64      	subs	r4, r4, r5
 80049e6:	10a4      	asrs	r4, r4, #2
 80049e8:	42a6      	cmp	r6, r4
 80049ea:	d109      	bne.n	8004a00 <__libc_init_array+0x24>
 80049ec:	4d0b      	ldr	r5, [pc, #44]	@ (8004a1c <__libc_init_array+0x40>)
 80049ee:	2600      	movs	r6, #0
 80049f0:	4c0b      	ldr	r4, [pc, #44]	@ (8004a20 <__libc_init_array+0x44>)
 80049f2:	f002 f883 	bl	8006afc <_init>
 80049f6:	1b64      	subs	r4, r4, r5
 80049f8:	10a4      	asrs	r4, r4, #2
 80049fa:	42a6      	cmp	r6, r4
 80049fc:	d105      	bne.n	8004a0a <__libc_init_array+0x2e>
 80049fe:	bd70      	pop	{r4, r5, r6, pc}
 8004a00:	f855 3b04 	ldr.w	r3, [r5], #4
 8004a04:	3601      	adds	r6, #1
 8004a06:	4798      	blx	r3
 8004a08:	e7ee      	b.n	80049e8 <__libc_init_array+0xc>
 8004a0a:	f855 3b04 	ldr.w	r3, [r5], #4
 8004a0e:	3601      	adds	r6, #1
 8004a10:	4798      	blx	r3
 8004a12:	e7f2      	b.n	80049fa <__libc_init_array+0x1e>
 8004a14:	08007244 	.word	0x08007244
 8004a18:	08007244 	.word	0x08007244
 8004a1c:	08007244 	.word	0x08007244
 8004a20:	08007248 	.word	0x08007248

08004a24 <__retarget_lock_init_recursive>:
 8004a24:	4770      	bx	lr

08004a26 <__retarget_lock_acquire_recursive>:
 8004a26:	4770      	bx	lr

08004a28 <__retarget_lock_release_recursive>:
 8004a28:	4770      	bx	lr

08004a2a <memchr>:
 8004a2a:	b2c9      	uxtb	r1, r1
 8004a2c:	4603      	mov	r3, r0
 8004a2e:	4402      	add	r2, r0
 8004a30:	b510      	push	{r4, lr}
 8004a32:	4293      	cmp	r3, r2
 8004a34:	4618      	mov	r0, r3
 8004a36:	d101      	bne.n	8004a3c <memchr+0x12>
 8004a38:	2000      	movs	r0, #0
 8004a3a:	e003      	b.n	8004a44 <memchr+0x1a>
 8004a3c:	7804      	ldrb	r4, [r0, #0]
 8004a3e:	3301      	adds	r3, #1
 8004a40:	428c      	cmp	r4, r1
 8004a42:	d1f6      	bne.n	8004a32 <memchr+0x8>
 8004a44:	bd10      	pop	{r4, pc}

08004a46 <quorem>:
 8004a46:	e92d 4ff7 	stmdb	sp!, {r0, r1, r2, r4, r5, r6, r7, r8, r9, sl, fp, lr}
 8004a4a:	6903      	ldr	r3, [r0, #16]
 8004a4c:	4607      	mov	r7, r0
 8004a4e:	690c      	ldr	r4, [r1, #16]
 8004a50:	42a3      	cmp	r3, r4
 8004a52:	f2c0 8083 	blt.w	8004b5c <quorem+0x116>
 8004a56:	3c01      	subs	r4, #1
 8004a58:	f100 0514 	add.w	r5, r0, #20
 8004a5c:	f101 0814 	add.w	r8, r1, #20
 8004a60:	00a3      	lsls	r3, r4, #2
 8004a62:	f855 2024 	ldr.w	r2, [r5, r4, lsl #2]
 8004a66:	eb08 0984 	add.w	r9, r8, r4, lsl #2
 8004a6a:	9300      	str	r3, [sp, #0]
 8004a6c:	eb05 0384 	add.w	r3, r5, r4, lsl #2
 8004a70:	9301      	str	r3, [sp, #4]
 8004a72:	f858 3024 	ldr.w	r3, [r8, r4, lsl #2]
 8004a76:	3301      	adds	r3, #1
 8004a78:	429a      	cmp	r2, r3
 8004a7a:	fbb2 f6f3 	udiv	r6, r2, r3
 8004a7e:	d331      	bcc.n	8004ae4 <quorem+0x9e>
 8004a80:	f04f 0a00 	mov.w	sl, #0
 8004a84:	46c4      	mov	ip, r8
 8004a86:	46ae      	mov	lr, r5
 8004a88:	46d3      	mov	fp, sl
 8004a8a:	f85c 3b04 	ldr.w	r3, [ip], #4
 8004a8e:	b298      	uxth	r0, r3
 8004a90:	45e1      	cmp	r9, ip
 8004a92:	ea4f 4313 	mov.w	r3, r3, lsr #16
 8004a96:	fb06 a000 	mla	r0, r6, r0, sl
 8004a9a:	ea4f 4210 	mov.w	r2, r0, lsr #16
 8004a9e:	b280      	uxth	r0, r0
 8004aa0:	fb06 2303 	mla	r3, r6, r3, r2
 8004aa4:	f8de 2000 	ldr.w	r2, [lr]
 8004aa8:	b292      	uxth	r2, r2
 8004aaa:	ea4f 4a13 	mov.w	sl, r3, lsr #16
 8004aae:	eba2 0200 	sub.w	r2, r2, r0
 8004ab2:	b29b      	uxth	r3, r3
 8004ab4:	f8de 0000 	ldr.w	r0, [lr]
 8004ab8:	445a      	add	r2, fp
 8004aba:	ebc3 4322 	rsb	r3, r3, r2, asr #16
 8004abe:	b292      	uxth	r2, r2
 8004ac0:	eb03 4310 	add.w	r3, r3, r0, lsr #16
 8004ac4:	ea42 4203 	orr.w	r2, r2, r3, lsl #16
 8004ac8:	ea4f 4b23 	mov.w	fp, r3, asr #16
 8004acc:	f84e 2b04 	str.w	r2, [lr], #4
 8004ad0:	d2db      	bcs.n	8004a8a <quorem+0x44>
 8004ad2:	9b00      	ldr	r3, [sp, #0]
 8004ad4:	58eb      	ldr	r3, [r5, r3]
 8004ad6:	b92b      	cbnz	r3, 8004ae4 <quorem+0x9e>
 8004ad8:	9b01      	ldr	r3, [sp, #4]
 8004ada:	3b04      	subs	r3, #4
 8004adc:	429d      	cmp	r5, r3
 8004ade:	461a      	mov	r2, r3
 8004ae0:	d330      	bcc.n	8004b44 <quorem+0xfe>
 8004ae2:	613c      	str	r4, [r7, #16]
 8004ae4:	4638      	mov	r0, r7
 8004ae6:	f001 f983 	bl	8005df0 <__mcmp>
 8004aea:	2800      	cmp	r0, #0
 8004aec:	db26      	blt.n	8004b3c <quorem+0xf6>
 8004aee:	4629      	mov	r1, r5
 8004af0:	2000      	movs	r0, #0
 8004af2:	f858 2b04 	ldr.w	r2, [r8], #4
 8004af6:	f8d1 c000 	ldr.w	ip, [r1]
 8004afa:	fa1f fe82 	uxth.w	lr, r2
 8004afe:	45c1      	cmp	r9, r8
 8004b00:	fa1f f38c 	uxth.w	r3, ip
 8004b04:	ea4f 4212 	mov.w	r2, r2, lsr #16
 8004b08:	eba3 030e 	sub.w	r3, r3, lr
 8004b0c:	4403      	add	r3, r0
 8004b0e:	ebc2 4223 	rsb	r2, r2, r3, asr #16
 8004b12:	b29b      	uxth	r3, r3
 8004b14:	eb02 421c 	add.w	r2, r2, ip, lsr #16
 8004b18:	ea43 4302 	orr.w	r3, r3, r2, lsl #16
 8004b1c:	ea4f 4022 	mov.w	r0, r2, asr #16
 8004b20:	f841 3b04 	str.w	r3, [r1], #4
 8004b24:	d2e5      	bcs.n	8004af2 <quorem+0xac>
 8004b26:	f855 2024 	ldr.w	r2, [r5, r4, lsl #2]
 8004b2a:	eb05 0384 	add.w	r3, r5, r4, lsl #2
 8004b2e:	b922      	cbnz	r2, 8004b3a <quorem+0xf4>
 8004b30:	3b04      	subs	r3, #4
 8004b32:	429d      	cmp	r5, r3
 8004b34:	461a      	mov	r2, r3
 8004b36:	d30b      	bcc.n	8004b50 <quorem+0x10a>
 8004b38:	613c      	str	r4, [r7, #16]
 8004b3a:	3601      	adds	r6, #1
 8004b3c:	4630      	mov	r0, r6
 8004b3e:	b003      	add	sp, #12
 8004b40:	e8bd 8ff0 	ldmia.w	sp!, {r4, r5, r6, r7, r8, r9, sl, fp, pc}
 8004b44:	6812      	ldr	r2, [r2, #0]
 8004b46:	3b04      	subs	r3, #4
 8004b48:	2a00      	cmp	r2, #0
 8004b4a:	d1ca      	bne.n	8004ae2 <quorem+0x9c>
 8004b4c:	3c01      	subs	r4, #1
 8004b4e:	e7c5      	b.n	8004adc <quorem+0x96>
 8004b50:	6812      	ldr	r2, [r2, #0]
 8004b52:	3b04      	subs	r3, #4
 8004b54:	2a00      	cmp	r2, #0
 8004b56:	d1ef      	bne.n	8004b38 <quorem+0xf2>
 8004b58:	3c01      	subs	r4, #1
 8004b5a:	e7ea      	b.n	8004b32 <quorem+0xec>
 8004b5c:	2000      	movs	r0, #0
 8004b5e:	e7ee      	b.n	8004b3e <quorem+0xf8>

08004b60 <_dtoa_r>:
 8004b60:	e92d 4ff0 	stmdb	sp!, {r4, r5, r6, r7, r8, r9, sl, fp, lr}
 8004b64:	69c7      	ldr	r7, [r0, #28]
 8004b66:	b097      	sub	sp, #92	@ 0x5c
 8004b68:	4681      	mov	r9, r0
 8004b6a:	9e20      	ldr	r6, [sp, #128]	@ 0x80
 8004b6c:	9107      	str	r1, [sp, #28]
 8004b6e:	920c      	str	r2, [sp, #48]	@ 0x30
 8004b70:	9311      	str	r3, [sp, #68]	@ 0x44
 8004b72:	ec55 4b10 	vmov	r4, r5, d0
 8004b76:	ed8d 0b04 	vstr	d0, [sp, #16]
 8004b7a:	b97f      	cbnz	r7, 8004b9c <_dtoa_r+0x3c>
 8004b7c:	2010      	movs	r0, #16
 8004b7e:	f000 fe0b 	bl	8005798 <malloc>
 8004b82:	4602      	mov	r2, r0
 8004b84:	f8c9 001c 	str.w	r0, [r9, #28]
 8004b88:	b920      	cbnz	r0, 8004b94 <_dtoa_r+0x34>
 8004b8a:	4ba9      	ldr	r3, [pc, #676]	@ (8004e30 <_dtoa_r+0x2d0>)
 8004b8c:	21ef      	movs	r1, #239	@ 0xef
 8004b8e:	48a9      	ldr	r0, [pc, #676]	@ (8004e34 <_dtoa_r+0x2d4>)
 8004b90:	f001 fc76 	bl	8006480 <__assert_func>
 8004b94:	e9c0 7701 	strd	r7, r7, [r0, #4]
 8004b98:	6007      	str	r7, [r0, #0]
 8004b9a:	60c7      	str	r7, [r0, #12]
 8004b9c:	f8d9 301c 	ldr.w	r3, [r9, #28]
 8004ba0:	6819      	ldr	r1, [r3, #0]
 8004ba2:	b159      	cbz	r1, 8004bbc <_dtoa_r+0x5c>
 8004ba4:	685a      	ldr	r2, [r3, #4]
 8004ba6:	2301      	movs	r3, #1
 8004ba8:	4648      	mov	r0, r9
 8004baa:	4093      	lsls	r3, r2
 8004bac:	604a      	str	r2, [r1, #4]
 8004bae:	608b      	str	r3, [r1, #8]
 8004bb0:	f000 fee8 	bl	8005984 <_Bfree>
 8004bb4:	f8d9 301c 	ldr.w	r3, [r9, #28]
 8004bb8:	2200      	movs	r2, #0
 8004bba:	601a      	str	r2, [r3, #0]
 8004bbc:	1e2b      	subs	r3, r5, #0
 8004bbe:	bfb7      	itett	lt
 8004bc0:	f023 4300 	biclt.w	r3, r3, #2147483648	@ 0x80000000
 8004bc4:	2300      	movge	r3, #0
 8004bc6:	2201      	movlt	r2, #1
 8004bc8:	9305      	strlt	r3, [sp, #20]
 8004bca:	bfa8      	it	ge
 8004bcc:	6033      	strge	r3, [r6, #0]
 8004bce:	9f05      	ldr	r7, [sp, #20]
 8004bd0:	4b99      	ldr	r3, [pc, #612]	@ (8004e38 <_dtoa_r+0x2d8>)
 8004bd2:	bfb8      	it	lt
 8004bd4:	6032      	strlt	r2, [r6, #0]
 8004bd6:	43bb      	bics	r3, r7
 8004bd8:	d112      	bne.n	8004c00 <_dtoa_r+0xa0>
 8004bda:	f242 730f 	movw	r3, #9999	@ 0x270f
 8004bde:	9a11      	ldr	r2, [sp, #68]	@ 0x44
 8004be0:	6013      	str	r3, [r2, #0]
 8004be2:	f3c7 0313 	ubfx	r3, r7, #0, #20
 8004be6:	4323      	orrs	r3, r4
 8004be8:	f000 855a 	beq.w	80056a0 <_dtoa_r+0xb40>
 8004bec:	9b21      	ldr	r3, [sp, #132]	@ 0x84
 8004bee:	f8df a25c 	ldr.w	sl, [pc, #604]	@ 8004e4c <_dtoa_r+0x2ec>
 8004bf2:	2b00      	cmp	r3, #0
 8004bf4:	f000 855c 	beq.w	80056b0 <_dtoa_r+0xb50>
 8004bf8:	f10a 0303 	add.w	r3, sl, #3
 8004bfc:	f000 bd56 	b.w	80056ac <_dtoa_r+0xb4c>
 8004c00:	ed9d 7b04 	vldr	d7, [sp, #16]
 8004c04:	2200      	movs	r2, #0
 8004c06:	2300      	movs	r3, #0
 8004c08:	ec51 0b17 	vmov	r0, r1, d7
 8004c0c:	ed8d 7b0a 	vstr	d7, [sp, #40]	@ 0x28
 8004c10:	f7fb ff6e 	bl	8000af0 <__aeabi_dcmpeq>
 8004c14:	4680      	mov	r8, r0
 8004c16:	b158      	cbz	r0, 8004c30 <_dtoa_r+0xd0>
 8004c18:	2301      	movs	r3, #1
 8004c1a:	9a11      	ldr	r2, [sp, #68]	@ 0x44
 8004c1c:	6013      	str	r3, [r2, #0]
 8004c1e:	9b21      	ldr	r3, [sp, #132]	@ 0x84
 8004c20:	b113      	cbz	r3, 8004c28 <_dtoa_r+0xc8>
 8004c22:	4b86      	ldr	r3, [pc, #536]	@ (8004e3c <_dtoa_r+0x2dc>)
 8004c24:	9a21      	ldr	r2, [sp, #132]	@ 0x84
 8004c26:	6013      	str	r3, [r2, #0]
 8004c28:	f8df a224 	ldr.w	sl, [pc, #548]	@ 8004e50 <_dtoa_r+0x2f0>
 8004c2c:	f000 bd40 	b.w	80056b0 <_dtoa_r+0xb50>
 8004c30:	f3c7 560a 	ubfx	r6, r7, #20, #11
 8004c34:	aa14      	add	r2, sp, #80	@ 0x50
 8004c36:	a915      	add	r1, sp, #84	@ 0x54
 8004c38:	4648      	mov	r0, r9
 8004c3a:	ed9d 0b0a 	vldr	d0, [sp, #40]	@ 0x28
 8004c3e:	f001 f98b 	bl	8005f58 <__d2b>
 8004c42:	9002      	str	r0, [sp, #8]
 8004c44:	2e00      	cmp	r6, #0
 8004c46:	d076      	beq.n	8004d36 <_dtoa_r+0x1d6>
 8004c48:	9b0b      	ldr	r3, [sp, #44]	@ 0x2c
 8004c4a:	f2a6 36ff 	subw	r6, r6, #1023	@ 0x3ff
 8004c4e:	f8cd 8048 	str.w	r8, [sp, #72]	@ 0x48
 8004c52:	f3c3 0313 	ubfx	r3, r3, #0, #20
 8004c56:	f043 537f 	orr.w	r3, r3, #1069547520	@ 0x3fc00000
 8004c5a:	e9dd 010a 	ldrd	r0, r1, [sp, #40]	@ 0x28
 8004c5e:	f443 1340 	orr.w	r3, r3, #3145728	@ 0x300000
 8004c62:	4619      	mov	r1, r3
 8004c64:	2200      	movs	r2, #0
 8004c66:	4b76      	ldr	r3, [pc, #472]	@ (8004e40 <_dtoa_r+0x2e0>)
 8004c68:	f7fb fb22 	bl	80002b0 <__aeabi_dsub>
 8004c6c:	a36a      	add	r3, pc, #424	@ (adr r3, 8004e18 <_dtoa_r+0x2b8>)
 8004c6e:	e9d3 2300 	ldrd	r2, r3, [r3]
 8004c72:	f7fb fcd5 	bl	8000620 <__aeabi_dmul>
 8004c76:	a36a      	add	r3, pc, #424	@ (adr r3, 8004e20 <_dtoa_r+0x2c0>)
 8004c78:	e9d3 2300 	ldrd	r2, r3, [r3]
 8004c7c:	f7fb fb1a 	bl	80002b4 <__adddf3>
 8004c80:	4604      	mov	r4, r0
 8004c82:	460d      	mov	r5, r1
 8004c84:	4630      	mov	r0, r6
 8004c86:	f7fb fc61 	bl	800054c <__aeabi_i2d>
 8004c8a:	a367      	add	r3, pc, #412	@ (adr r3, 8004e28 <_dtoa_r+0x2c8>)
 8004c8c:	e9d3 2300 	ldrd	r2, r3, [r3]
 8004c90:	f7fb fcc6 	bl	8000620 <__aeabi_dmul>
 8004c94:	4602      	mov	r2, r0
 8004c96:	460b      	mov	r3, r1
 8004c98:	4620      	mov	r0, r4
 8004c9a:	4629      	mov	r1, r5
 8004c9c:	f7fb fb0a 	bl	80002b4 <__adddf3>
 8004ca0:	4604      	mov	r4, r0
 8004ca2:	460d      	mov	r5, r1
 8004ca4:	f7fb ff6c 	bl	8000b80 <__aeabi_d2iz>
 8004ca8:	2200      	movs	r2, #0
 8004caa:	4607      	mov	r7, r0
 8004cac:	2300      	movs	r3, #0
 8004cae:	4620      	mov	r0, r4
 8004cb0:	4629      	mov	r1, r5
 8004cb2:	f7fb ff27 	bl	8000b04 <__aeabi_dcmplt>
 8004cb6:	b140      	cbz	r0, 8004cca <_dtoa_r+0x16a>
 8004cb8:	4638      	mov	r0, r7
 8004cba:	f7fb fc47 	bl	800054c <__aeabi_i2d>
 8004cbe:	4622      	mov	r2, r4
 8004cc0:	462b      	mov	r3, r5
 8004cc2:	f7fb ff15 	bl	8000af0 <__aeabi_dcmpeq>
 8004cc6:	b900      	cbnz	r0, 8004cca <_dtoa_r+0x16a>
 8004cc8:	3f01      	subs	r7, #1
 8004cca:	2f16      	cmp	r7, #22
 8004ccc:	d852      	bhi.n	8004d74 <_dtoa_r+0x214>
 8004cce:	4b5d      	ldr	r3, [pc, #372]	@ (8004e44 <_dtoa_r+0x2e4>)
 8004cd0:	eb03 03c7 	add.w	r3, r3, r7, lsl #3
 8004cd4:	e9dd 010a 	ldrd	r0, r1, [sp, #40]	@ 0x28
 8004cd8:	e9d3 2300 	ldrd	r2, r3, [r3]
 8004cdc:	f7fb ff12 	bl	8000b04 <__aeabi_dcmplt>
 8004ce0:	2800      	cmp	r0, #0
 8004ce2:	d049      	beq.n	8004d78 <_dtoa_r+0x218>
 8004ce4:	3f01      	subs	r7, #1
 8004ce6:	2300      	movs	r3, #0
 8004ce8:	9310      	str	r3, [sp, #64]	@ 0x40
 8004cea:	9b14      	ldr	r3, [sp, #80]	@ 0x50
 8004cec:	1b9b      	subs	r3, r3, r6
 8004cee:	1e5a      	subs	r2, r3, #1
 8004cf0:	bf4c      	ite	mi
 8004cf2:	f1c3 0301 	rsbmi	r3, r3, #1
 8004cf6:	2300      	movpl	r3, #0
 8004cf8:	9206      	str	r2, [sp, #24]
 8004cfa:	bf45      	ittet	mi
 8004cfc:	9300      	strmi	r3, [sp, #0]
 8004cfe:	2300      	movmi	r3, #0
 8004d00:	9300      	strpl	r3, [sp, #0]
 8004d02:	9306      	strmi	r3, [sp, #24]
 8004d04:	2f00      	cmp	r7, #0
 8004d06:	db39      	blt.n	8004d7c <_dtoa_r+0x21c>
 8004d08:	9b06      	ldr	r3, [sp, #24]
 8004d0a:	970d      	str	r7, [sp, #52]	@ 0x34
 8004d0c:	443b      	add	r3, r7
 8004d0e:	9306      	str	r3, [sp, #24]
 8004d10:	2300      	movs	r3, #0
 8004d12:	9308      	str	r3, [sp, #32]
 8004d14:	9b07      	ldr	r3, [sp, #28]
 8004d16:	2b09      	cmp	r3, #9
 8004d18:	d863      	bhi.n	8004de2 <_dtoa_r+0x282>
 8004d1a:	2b05      	cmp	r3, #5
 8004d1c:	bfc5      	ittet	gt
 8004d1e:	3b04      	subgt	r3, #4
 8004d20:	2400      	movgt	r4, #0
 8004d22:	2401      	movle	r4, #1
 8004d24:	9307      	strgt	r3, [sp, #28]
 8004d26:	9b07      	ldr	r3, [sp, #28]
 8004d28:	3b02      	subs	r3, #2
 8004d2a:	2b03      	cmp	r3, #3
 8004d2c:	d865      	bhi.n	8004dfa <_dtoa_r+0x29a>
 8004d2e:	e8df f003 	tbb	[pc, r3]
 8004d32:	5654      	.short	0x5654
 8004d34:	2d39      	.short	0x2d39
 8004d36:	e9dd 6314 	ldrd	r6, r3, [sp, #80]	@ 0x50
 8004d3a:	441e      	add	r6, r3
 8004d3c:	f206 4332 	addw	r3, r6, #1074	@ 0x432
 8004d40:	2b20      	cmp	r3, #32
 8004d42:	bfc9      	itett	gt
 8004d44:	f1c3 0340 	rsbgt	r3, r3, #64	@ 0x40
 8004d48:	f1c3 0320 	rsble	r3, r3, #32
 8004d4c:	409f      	lslgt	r7, r3
 8004d4e:	f206 4312 	addwgt	r3, r6, #1042	@ 0x412
 8004d52:	bfd8      	it	le
 8004d54:	fa04 f003 	lslle.w	r0, r4, r3
 8004d58:	f106 36ff 	add.w	r6, r6, #4294967295
 8004d5c:	bfc4      	itt	gt
 8004d5e:	fa24 f303 	lsrgt.w	r3, r4, r3
 8004d62:	ea47 0003 	orrgt.w	r0, r7, r3
 8004d66:	f7fb fbe1 	bl	800052c <__aeabi_ui2d>
 8004d6a:	2201      	movs	r2, #1
 8004d6c:	f1a1 73f8 	sub.w	r3, r1, #32505856	@ 0x1f00000
 8004d70:	9212      	str	r2, [sp, #72]	@ 0x48
 8004d72:	e776      	b.n	8004c62 <_dtoa_r+0x102>
 8004d74:	2301      	movs	r3, #1
 8004d76:	e7b7      	b.n	8004ce8 <_dtoa_r+0x188>
 8004d78:	9010      	str	r0, [sp, #64]	@ 0x40
 8004d7a:	e7b6      	b.n	8004cea <_dtoa_r+0x18a>
 8004d7c:	9b00      	ldr	r3, [sp, #0]
 8004d7e:	1bdb      	subs	r3, r3, r7
 8004d80:	9300      	str	r3, [sp, #0]
 8004d82:	427b      	negs	r3, r7
 8004d84:	9308      	str	r3, [sp, #32]
 8004d86:	2300      	movs	r3, #0
 8004d88:	930d      	str	r3, [sp, #52]	@ 0x34
 8004d8a:	e7c3      	b.n	8004d14 <_dtoa_r+0x1b4>
 8004d8c:	2301      	movs	r3, #1
 8004d8e:	9309      	str	r3, [sp, #36]	@ 0x24
 8004d90:	9b0c      	ldr	r3, [sp, #48]	@ 0x30
 8004d92:	eb07 0b03 	add.w	fp, r7, r3
 8004d96:	f10b 0301 	add.w	r3, fp, #1
 8004d9a:	2b01      	cmp	r3, #1
 8004d9c:	9303      	str	r3, [sp, #12]
 8004d9e:	bfb8      	it	lt
 8004da0:	2301      	movlt	r3, #1
 8004da2:	e006      	b.n	8004db2 <_dtoa_r+0x252>
 8004da4:	2301      	movs	r3, #1
 8004da6:	9309      	str	r3, [sp, #36]	@ 0x24
 8004da8:	9b0c      	ldr	r3, [sp, #48]	@ 0x30
 8004daa:	2b00      	cmp	r3, #0
 8004dac:	dd28      	ble.n	8004e00 <_dtoa_r+0x2a0>
 8004dae:	469b      	mov	fp, r3
 8004db0:	9303      	str	r3, [sp, #12]
 8004db2:	f8d9 001c 	ldr.w	r0, [r9, #28]
 8004db6:	2100      	movs	r1, #0
 8004db8:	2204      	movs	r2, #4
 8004dba:	f102 0514 	add.w	r5, r2, #20
 8004dbe:	429d      	cmp	r5, r3
 8004dc0:	d926      	bls.n	8004e10 <_dtoa_r+0x2b0>
 8004dc2:	6041      	str	r1, [r0, #4]
 8004dc4:	4648      	mov	r0, r9
 8004dc6:	f000 fd9d 	bl	8005904 <_Balloc>
 8004dca:	4682      	mov	sl, r0
 8004dcc:	2800      	cmp	r0, #0
 8004dce:	d141      	bne.n	8004e54 <_dtoa_r+0x2f4>
 8004dd0:	4b1d      	ldr	r3, [pc, #116]	@ (8004e48 <_dtoa_r+0x2e8>)
 8004dd2:	4602      	mov	r2, r0
 8004dd4:	f240 11af 	movw	r1, #431	@ 0x1af
 8004dd8:	e6d9      	b.n	8004b8e <_dtoa_r+0x2e>
 8004dda:	2300      	movs	r3, #0
 8004ddc:	e7e3      	b.n	8004da6 <_dtoa_r+0x246>
 8004dde:	2300      	movs	r3, #0
 8004de0:	e7d5      	b.n	8004d8e <_dtoa_r+0x22e>
 8004de2:	2401      	movs	r4, #1
 8004de4:	2300      	movs	r3, #0
 8004de6:	9409      	str	r4, [sp, #36]	@ 0x24
 8004de8:	9307      	str	r3, [sp, #28]
 8004dea:	f04f 3bff 	mov.w	fp, #4294967295
 8004dee:	2200      	movs	r2, #0
 8004df0:	2312      	movs	r3, #18
 8004df2:	f8cd b00c 	str.w	fp, [sp, #12]
 8004df6:	920c      	str	r2, [sp, #48]	@ 0x30
 8004df8:	e7db      	b.n	8004db2 <_dtoa_r+0x252>
 8004dfa:	2301      	movs	r3, #1
 8004dfc:	9309      	str	r3, [sp, #36]	@ 0x24
 8004dfe:	e7f4      	b.n	8004dea <_dtoa_r+0x28a>
 8004e00:	f04f 0b01 	mov.w	fp, #1
 8004e04:	465b      	mov	r3, fp
 8004e06:	f8cd b00c 	str.w	fp, [sp, #12]
 8004e0a:	f8cd b030 	str.w	fp, [sp, #48]	@ 0x30
 8004e0e:	e7d0      	b.n	8004db2 <_dtoa_r+0x252>
 8004e10:	3101      	adds	r1, #1
 8004e12:	0052      	lsls	r2, r2, #1
 8004e14:	e7d1      	b.n	8004dba <_dtoa_r+0x25a>
 8004e16:	bf00      	nop
 8004e18:	636f4361 	.word	0x636f4361
 8004e1c:	3fd287a7 	.word	0x3fd287a7
 8004e20:	8b60c8b3 	.word	0x8b60c8b3
 8004e24:	3fc68a28 	.word	0x3fc68a28
 8004e28:	509f79fb 	.word	0x509f79fb
 8004e2c:	3fd34413 	.word	0x3fd34413
 8004e30:	08006f09 	.word	0x08006f09
 8004e34:	08006f20 	.word	0x08006f20
 8004e38:	7ff00000 	.word	0x7ff00000
 8004e3c:	08006ed9 	.word	0x08006ed9
 8004e40:	3ff80000 	.word	0x3ff80000
 8004e44:	08007070 	.word	0x08007070
 8004e48:	08006f78 	.word	0x08006f78
 8004e4c:	08006f05 	.word	0x08006f05
 8004e50:	08006ed8 	.word	0x08006ed8
 8004e54:	f8d9 301c 	ldr.w	r3, [r9, #28]
 8004e58:	6018      	str	r0, [r3, #0]
 8004e5a:	9b03      	ldr	r3, [sp, #12]
 8004e5c:	2b0e      	cmp	r3, #14
 8004e5e:	f200 80a1 	bhi.w	8004fa4 <_dtoa_r+0x444>
 8004e62:	2c00      	cmp	r4, #0
 8004e64:	f000 809e 	beq.w	8004fa4 <_dtoa_r+0x444>
 8004e68:	2f00      	cmp	r7, #0
 8004e6a:	dd33      	ble.n	8004ed4 <_dtoa_r+0x374>
 8004e6c:	f007 020f 	and.w	r2, r7, #15
 8004e70:	4b9b      	ldr	r3, [pc, #620]	@ (80050e0 <_dtoa_r+0x580>)
 8004e72:	05f8      	lsls	r0, r7, #23
 8004e74:	ea4f 1427 	mov.w	r4, r7, asr #4
 8004e78:	eb03 03c2 	add.w	r3, r3, r2, lsl #3
 8004e7c:	ed93 7b00 	vldr	d7, [r3]
 8004e80:	ed8d 7b0e 	vstr	d7, [sp, #56]	@ 0x38
 8004e84:	d516      	bpl.n	8004eb4 <_dtoa_r+0x354>
 8004e86:	4b97      	ldr	r3, [pc, #604]	@ (80050e4 <_dtoa_r+0x584>)
 8004e88:	f004 040f 	and.w	r4, r4, #15
 8004e8c:	2603      	movs	r6, #3
 8004e8e:	e9d3 2308 	ldrd	r2, r3, [r3, #32]
 8004e92:	e9dd 010a 	ldrd	r0, r1, [sp, #40]	@ 0x28
 8004e96:	f7fb fced 	bl	8000874 <__aeabi_ddiv>
 8004e9a:	e9cd 0104 	strd	r0, r1, [sp, #16]
 8004e9e:	4d91      	ldr	r5, [pc, #580]	@ (80050e4 <_dtoa_r+0x584>)
 8004ea0:	b954      	cbnz	r4, 8004eb8 <_dtoa_r+0x358>
 8004ea2:	e9dd 230e 	ldrd	r2, r3, [sp, #56]	@ 0x38
 8004ea6:	e9dd 0104 	ldrd	r0, r1, [sp, #16]
 8004eaa:	f7fb fce3 	bl	8000874 <__aeabi_ddiv>
 8004eae:	e9cd 0104 	strd	r0, r1, [sp, #16]
 8004eb2:	e028      	b.n	8004f06 <_dtoa_r+0x3a6>
 8004eb4:	2602      	movs	r6, #2
 8004eb6:	e7f2      	b.n	8004e9e <_dtoa_r+0x33e>
 8004eb8:	07e1      	lsls	r1, r4, #31
 8004eba:	d508      	bpl.n	8004ece <_dtoa_r+0x36e>
 8004ebc:	3601      	adds	r6, #1
 8004ebe:	e9dd 010e 	ldrd	r0, r1, [sp, #56]	@ 0x38
 8004ec2:	e9d5 2300 	ldrd	r2, r3, [r5]
 8004ec6:	f7fb fbab 	bl	8000620 <__aeabi_dmul>
 8004eca:	e9cd 010e 	strd	r0, r1, [sp, #56]	@ 0x38
 8004ece:	1064      	asrs	r4, r4, #1
 8004ed0:	3508      	adds	r5, #8
 8004ed2:	e7e5      	b.n	8004ea0 <_dtoa_r+0x340>
 8004ed4:	f000 80af 	beq.w	8005036 <_dtoa_r+0x4d6>
 8004ed8:	427c      	negs	r4, r7
 8004eda:	4b81      	ldr	r3, [pc, #516]	@ (80050e0 <_dtoa_r+0x580>)
 8004edc:	4d81      	ldr	r5, [pc, #516]	@ (80050e4 <_dtoa_r+0x584>)
 8004ede:	2602      	movs	r6, #2
 8004ee0:	f004 020f 	and.w	r2, r4, #15
 8004ee4:	1124      	asrs	r4, r4, #4
 8004ee6:	eb03 03c2 	add.w	r3, r3, r2, lsl #3
 8004eea:	e9dd 010a 	ldrd	r0, r1, [sp, #40]	@ 0x28
 8004eee:	e9d3 2300 	ldrd	r2, r3, [r3]
 8004ef2:	f7fb fb95 	bl	8000620 <__aeabi_dmul>
 8004ef6:	2300      	movs	r3, #0
 8004ef8:	e9cd 0104 	strd	r0, r1, [sp, #16]
 8004efc:	2c00      	cmp	r4, #0
 8004efe:	f040 808f 	bne.w	8005020 <_dtoa_r+0x4c0>
 8004f02:	2b00      	cmp	r3, #0
 8004f04:	d1d3      	bne.n	8004eae <_dtoa_r+0x34e>
 8004f06:	9b10      	ldr	r3, [sp, #64]	@ 0x40
 8004f08:	e9dd 4504 	ldrd	r4, r5, [sp, #16]
 8004f0c:	2b00      	cmp	r3, #0
 8004f0e:	f000 8094 	beq.w	800503a <_dtoa_r+0x4da>
 8004f12:	2200      	movs	r2, #0
 8004f14:	4b74      	ldr	r3, [pc, #464]	@ (80050e8 <_dtoa_r+0x588>)
 8004f16:	4620      	mov	r0, r4
 8004f18:	4629      	mov	r1, r5
 8004f1a:	f7fb fdf3 	bl	8000b04 <__aeabi_dcmplt>
 8004f1e:	2800      	cmp	r0, #0
 8004f20:	f000 808b 	beq.w	800503a <_dtoa_r+0x4da>
 8004f24:	9b03      	ldr	r3, [sp, #12]
 8004f26:	2b00      	cmp	r3, #0
 8004f28:	f000 8087 	beq.w	800503a <_dtoa_r+0x4da>
 8004f2c:	f1bb 0f00 	cmp.w	fp, #0
 8004f30:	dd34      	ble.n	8004f9c <_dtoa_r+0x43c>
 8004f32:	4620      	mov	r0, r4
 8004f34:	f107 38ff 	add.w	r8, r7, #4294967295
 8004f38:	3601      	adds	r6, #1
 8004f3a:	465c      	mov	r4, fp
 8004f3c:	2200      	movs	r2, #0
 8004f3e:	4b6b      	ldr	r3, [pc, #428]	@ (80050ec <_dtoa_r+0x58c>)
 8004f40:	4629      	mov	r1, r5
 8004f42:	f7fb fb6d 	bl	8000620 <__aeabi_dmul>
 8004f46:	e9cd 0104 	strd	r0, r1, [sp, #16]
 8004f4a:	4630      	mov	r0, r6
 8004f4c:	f7fb fafe 	bl	800054c <__aeabi_i2d>
 8004f50:	e9dd 2304 	ldrd	r2, r3, [sp, #16]
 8004f54:	f7fb fb64 	bl	8000620 <__aeabi_dmul>
 8004f58:	2200      	movs	r2, #0
 8004f5a:	4b65      	ldr	r3, [pc, #404]	@ (80050f0 <_dtoa_r+0x590>)
 8004f5c:	f7fb f9aa 	bl	80002b4 <__adddf3>
 8004f60:	4605      	mov	r5, r0
 8004f62:	f1a1 7650 	sub.w	r6, r1, #54525952	@ 0x3400000
 8004f66:	2c00      	cmp	r4, #0
 8004f68:	d16a      	bne.n	8005040 <_dtoa_r+0x4e0>
 8004f6a:	2200      	movs	r2, #0
 8004f6c:	4b61      	ldr	r3, [pc, #388]	@ (80050f4 <_dtoa_r+0x594>)
 8004f6e:	e9dd 0104 	ldrd	r0, r1, [sp, #16]
 8004f72:	f7fb f99d 	bl	80002b0 <__aeabi_dsub>
 8004f76:	4602      	mov	r2, r0
 8004f78:	460b      	mov	r3, r1
 8004f7a:	e9cd 2304 	strd	r2, r3, [sp, #16]
 8004f7e:	462a      	mov	r2, r5
 8004f80:	4633      	mov	r3, r6
 8004f82:	f7fb fddd 	bl	8000b40 <__aeabi_dcmpgt>
 8004f86:	2800      	cmp	r0, #0
 8004f88:	f040 8298 	bne.w	80054bc <_dtoa_r+0x95c>
 8004f8c:	462a      	mov	r2, r5
 8004f8e:	f106 4300 	add.w	r3, r6, #2147483648	@ 0x80000000
 8004f92:	e9dd 0104 	ldrd	r0, r1, [sp, #16]
 8004f96:	f7fb fdb5 	bl	8000b04 <__aeabi_dcmplt>
 8004f9a:	bb38      	cbnz	r0, 8004fec <_dtoa_r+0x48c>
 8004f9c:	e9dd 340a 	ldrd	r3, r4, [sp, #40]	@ 0x28
 8004fa0:	e9cd 3404 	strd	r3, r4, [sp, #16]
 8004fa4:	9b15      	ldr	r3, [sp, #84]	@ 0x54
 8004fa6:	2b00      	cmp	r3, #0
 8004fa8:	f2c0 8157 	blt.w	800525a <_dtoa_r+0x6fa>
 8004fac:	2f0e      	cmp	r7, #14
 8004fae:	f300 8154 	bgt.w	800525a <_dtoa_r+0x6fa>
 8004fb2:	4b4b      	ldr	r3, [pc, #300]	@ (80050e0 <_dtoa_r+0x580>)
 8004fb4:	eb03 03c7 	add.w	r3, r3, r7, lsl #3
 8004fb8:	ed93 7b00 	vldr	d7, [r3]
 8004fbc:	9b0c      	ldr	r3, [sp, #48]	@ 0x30
 8004fbe:	2b00      	cmp	r3, #0
 8004fc0:	ed8d 7b00 	vstr	d7, [sp]
 8004fc4:	f280 80e5 	bge.w	8005192 <_dtoa_r+0x632>
 8004fc8:	9b03      	ldr	r3, [sp, #12]
 8004fca:	2b00      	cmp	r3, #0
 8004fcc:	f300 80e1 	bgt.w	8005192 <_dtoa_r+0x632>
 8004fd0:	d10c      	bne.n	8004fec <_dtoa_r+0x48c>
 8004fd2:	2200      	movs	r2, #0
 8004fd4:	4b47      	ldr	r3, [pc, #284]	@ (80050f4 <_dtoa_r+0x594>)
 8004fd6:	ec51 0b17 	vmov	r0, r1, d7
 8004fda:	f7fb fb21 	bl	8000620 <__aeabi_dmul>
 8004fde:	e9dd 2304 	ldrd	r2, r3, [sp, #16]
 8004fe2:	f7fb fda3 	bl	8000b2c <__aeabi_dcmpge>
 8004fe6:	2800      	cmp	r0, #0
 8004fe8:	f000 8266 	beq.w	80054b8 <_dtoa_r+0x958>
 8004fec:	2400      	movs	r4, #0
 8004fee:	4625      	mov	r5, r4
 8004ff0:	9b0c      	ldr	r3, [sp, #48]	@ 0x30
 8004ff2:	4656      	mov	r6, sl
 8004ff4:	ea6f 0803 	mvn.w	r8, r3
 8004ff8:	2700      	movs	r7, #0
 8004ffa:	4621      	mov	r1, r4
 8004ffc:	4648      	mov	r0, r9
 8004ffe:	f000 fcc1 	bl	8005984 <_Bfree>
 8005002:	2d00      	cmp	r5, #0
 8005004:	f000 80bd 	beq.w	8005182 <_dtoa_r+0x622>
 8005008:	b12f      	cbz	r7, 8005016 <_dtoa_r+0x4b6>
 800500a:	42af      	cmp	r7, r5
 800500c:	d003      	beq.n	8005016 <_dtoa_r+0x4b6>
 800500e:	4639      	mov	r1, r7
 8005010:	4648      	mov	r0, r9
 8005012:	f000 fcb7 	bl	8005984 <_Bfree>
 8005016:	4629      	mov	r1, r5
 8005018:	4648      	mov	r0, r9
 800501a:	f000 fcb3 	bl	8005984 <_Bfree>
 800501e:	e0b0      	b.n	8005182 <_dtoa_r+0x622>
 8005020:	07e2      	lsls	r2, r4, #31
 8005022:	d505      	bpl.n	8005030 <_dtoa_r+0x4d0>
 8005024:	3601      	adds	r6, #1
 8005026:	e9d5 2300 	ldrd	r2, r3, [r5]
 800502a:	f7fb faf9 	bl	8000620 <__aeabi_dmul>
 800502e:	2301      	movs	r3, #1
 8005030:	1064      	asrs	r4, r4, #1
 8005032:	3508      	adds	r5, #8
 8005034:	e762      	b.n	8004efc <_dtoa_r+0x39c>
 8005036:	2602      	movs	r6, #2
 8005038:	e765      	b.n	8004f06 <_dtoa_r+0x3a6>
 800503a:	46b8      	mov	r8, r7
 800503c:	9c03      	ldr	r4, [sp, #12]
 800503e:	e784      	b.n	8004f4a <_dtoa_r+0x3ea>
 8005040:	4b27      	ldr	r3, [pc, #156]	@ (80050e0 <_dtoa_r+0x580>)
 8005042:	9909      	ldr	r1, [sp, #36]	@ 0x24
 8005044:	eb03 03c4 	add.w	r3, r3, r4, lsl #3
 8005048:	4454      	add	r4, sl
 800504a:	e953 2302 	ldrd	r2, r3, [r3, #-8]
 800504e:	2900      	cmp	r1, #0
 8005050:	d054      	beq.n	80050fc <_dtoa_r+0x59c>
 8005052:	2000      	movs	r0, #0
 8005054:	4928      	ldr	r1, [pc, #160]	@ (80050f8 <_dtoa_r+0x598>)
 8005056:	f7fb fc0d 	bl	8000874 <__aeabi_ddiv>
 800505a:	4633      	mov	r3, r6
 800505c:	4656      	mov	r6, sl
 800505e:	462a      	mov	r2, r5
 8005060:	f7fb f926 	bl	80002b0 <__aeabi_dsub>
 8005064:	e9cd 010e 	strd	r0, r1, [sp, #56]	@ 0x38
 8005068:	e9dd 0104 	ldrd	r0, r1, [sp, #16]
 800506c:	f7fb fd88 	bl	8000b80 <__aeabi_d2iz>
 8005070:	4605      	mov	r5, r0
 8005072:	f7fb fa6b 	bl	800054c <__aeabi_i2d>
 8005076:	4602      	mov	r2, r0
 8005078:	460b      	mov	r3, r1
 800507a:	3530      	adds	r5, #48	@ 0x30
 800507c:	e9dd 0104 	ldrd	r0, r1, [sp, #16]
 8005080:	f7fb f916 	bl	80002b0 <__aeabi_dsub>
 8005084:	4602      	mov	r2, r0
 8005086:	460b      	mov	r3, r1
 8005088:	f806 5b01 	strb.w	r5, [r6], #1
 800508c:	e9cd 2304 	strd	r2, r3, [sp, #16]
 8005090:	e9dd 230e 	ldrd	r2, r3, [sp, #56]	@ 0x38
 8005094:	f7fb fd36 	bl	8000b04 <__aeabi_dcmplt>
 8005098:	2800      	cmp	r0, #0
 800509a:	d172      	bne.n	8005182 <_dtoa_r+0x622>
 800509c:	2000      	movs	r0, #0
 800509e:	4912      	ldr	r1, [pc, #72]	@ (80050e8 <_dtoa_r+0x588>)
 80050a0:	e9dd 2304 	ldrd	r2, r3, [sp, #16]
 80050a4:	f7fb f904 	bl	80002b0 <__aeabi_dsub>
 80050a8:	e9dd 230e 	ldrd	r2, r3, [sp, #56]	@ 0x38
 80050ac:	f7fb fd2a 	bl	8000b04 <__aeabi_dcmplt>
 80050b0:	2800      	cmp	r0, #0
 80050b2:	f040 80b4 	bne.w	800521e <_dtoa_r+0x6be>
 80050b6:	42a6      	cmp	r6, r4
 80050b8:	f43f af70 	beq.w	8004f9c <_dtoa_r+0x43c>
 80050bc:	2200      	movs	r2, #0
 80050be:	4b0b      	ldr	r3, [pc, #44]	@ (80050ec <_dtoa_r+0x58c>)
 80050c0:	e9dd 010e 	ldrd	r0, r1, [sp, #56]	@ 0x38
 80050c4:	f7fb faac 	bl	8000620 <__aeabi_dmul>
 80050c8:	2200      	movs	r2, #0
 80050ca:	4b08      	ldr	r3, [pc, #32]	@ (80050ec <_dtoa_r+0x58c>)
 80050cc:	e9cd 010e 	strd	r0, r1, [sp, #56]	@ 0x38
 80050d0:	e9dd 0104 	ldrd	r0, r1, [sp, #16]
 80050d4:	f7fb faa4 	bl	8000620 <__aeabi_dmul>
 80050d8:	e9cd 0104 	strd	r0, r1, [sp, #16]
 80050dc:	e7c4      	b.n	8005068 <_dtoa_r+0x508>
 80050de:	bf00      	nop
 80050e0:	08007070 	.word	0x08007070
 80050e4:	08007048 	.word	0x08007048
 80050e8:	3ff00000 	.word	0x3ff00000
 80050ec:	40240000 	.word	0x40240000
 80050f0:	401c0000 	.word	0x401c0000
 80050f4:	40140000 	.word	0x40140000
 80050f8:	3fe00000 	.word	0x3fe00000
 80050fc:	4631      	mov	r1, r6
 80050fe:	4656      	mov	r6, sl
 8005100:	4628      	mov	r0, r5
 8005102:	f7fb fa8d 	bl	8000620 <__aeabi_dmul>
 8005106:	9413      	str	r4, [sp, #76]	@ 0x4c
 8005108:	e9cd 010e 	strd	r0, r1, [sp, #56]	@ 0x38
 800510c:	e9dd 0104 	ldrd	r0, r1, [sp, #16]
 8005110:	f7fb fd36 	bl	8000b80 <__aeabi_d2iz>
 8005114:	4605      	mov	r5, r0
 8005116:	f7fb fa19 	bl	800054c <__aeabi_i2d>
 800511a:	4602      	mov	r2, r0
 800511c:	3530      	adds	r5, #48	@ 0x30
 800511e:	460b      	mov	r3, r1
 8005120:	e9dd 0104 	ldrd	r0, r1, [sp, #16]
 8005124:	f7fb f8c4 	bl	80002b0 <__aeabi_dsub>
 8005128:	f806 5b01 	strb.w	r5, [r6], #1
 800512c:	4602      	mov	r2, r0
 800512e:	460b      	mov	r3, r1
 8005130:	42a6      	cmp	r6, r4
 8005132:	e9cd 2304 	strd	r2, r3, [sp, #16]
 8005136:	f04f 0200 	mov.w	r2, #0
 800513a:	d124      	bne.n	8005186 <_dtoa_r+0x626>
 800513c:	4baf      	ldr	r3, [pc, #700]	@ (80053fc <_dtoa_r+0x89c>)
 800513e:	e9dd 010e 	ldrd	r0, r1, [sp, #56]	@ 0x38
 8005142:	f7fb f8b7 	bl	80002b4 <__adddf3>
 8005146:	4602      	mov	r2, r0
 8005148:	460b      	mov	r3, r1
 800514a:	e9dd 0104 	ldrd	r0, r1, [sp, #16]
 800514e:	f7fb fcf7 	bl	8000b40 <__aeabi_dcmpgt>
 8005152:	2800      	cmp	r0, #0
 8005154:	d163      	bne.n	800521e <_dtoa_r+0x6be>
 8005156:	2000      	movs	r0, #0
 8005158:	49a8      	ldr	r1, [pc, #672]	@ (80053fc <_dtoa_r+0x89c>)
 800515a:	e9dd 230e 	ldrd	r2, r3, [sp, #56]	@ 0x38
 800515e:	f7fb f8a7 	bl	80002b0 <__aeabi_dsub>
 8005162:	4602      	mov	r2, r0
 8005164:	460b      	mov	r3, r1
 8005166:	e9dd 0104 	ldrd	r0, r1, [sp, #16]
 800516a:	f7fb fccb 	bl	8000b04 <__aeabi_dcmplt>
 800516e:	2800      	cmp	r0, #0
 8005170:	f43f af14 	beq.w	8004f9c <_dtoa_r+0x43c>
 8005174:	9e13      	ldr	r6, [sp, #76]	@ 0x4c
 8005176:	1e73      	subs	r3, r6, #1
 8005178:	9313      	str	r3, [sp, #76]	@ 0x4c
 800517a:	f816 3c01 	ldrb.w	r3, [r6, #-1]
 800517e:	2b30      	cmp	r3, #48	@ 0x30
 8005180:	d0f8      	beq.n	8005174 <_dtoa_r+0x614>
 8005182:	4647      	mov	r7, r8
 8005184:	e03b      	b.n	80051fe <_dtoa_r+0x69e>
 8005186:	4b9e      	ldr	r3, [pc, #632]	@ (8005400 <_dtoa_r+0x8a0>)
 8005188:	f7fb fa4a 	bl	8000620 <__aeabi_dmul>
 800518c:	e9cd 0104 	strd	r0, r1, [sp, #16]
 8005190:	e7bc      	b.n	800510c <_dtoa_r+0x5ac>
 8005192:	e9dd 4504 	ldrd	r4, r5, [sp, #16]
 8005196:	4656      	mov	r6, sl
 8005198:	4620      	mov	r0, r4
 800519a:	4629      	mov	r1, r5
 800519c:	e9dd 2300 	ldrd	r2, r3, [sp]
 80051a0:	f7fb fb68 	bl	8000874 <__aeabi_ddiv>
 80051a4:	f7fb fcec 	bl	8000b80 <__aeabi_d2iz>
 80051a8:	4680      	mov	r8, r0
 80051aa:	f7fb f9cf 	bl	800054c <__aeabi_i2d>
 80051ae:	e9dd 2300 	ldrd	r2, r3, [sp]
 80051b2:	f7fb fa35 	bl	8000620 <__aeabi_dmul>
 80051b6:	4602      	mov	r2, r0
 80051b8:	4620      	mov	r0, r4
 80051ba:	f108 0430 	add.w	r4, r8, #48	@ 0x30
 80051be:	460b      	mov	r3, r1
 80051c0:	4629      	mov	r1, r5
 80051c2:	f7fb f875 	bl	80002b0 <__aeabi_dsub>
 80051c6:	9d03      	ldr	r5, [sp, #12]
 80051c8:	f806 4b01 	strb.w	r4, [r6], #1
 80051cc:	eba6 040a 	sub.w	r4, r6, sl
 80051d0:	4602      	mov	r2, r0
 80051d2:	460b      	mov	r3, r1
 80051d4:	42a5      	cmp	r5, r4
 80051d6:	d133      	bne.n	8005240 <_dtoa_r+0x6e0>
 80051d8:	f7fb f86c 	bl	80002b4 <__adddf3>
 80051dc:	4604      	mov	r4, r0
 80051de:	460d      	mov	r5, r1
 80051e0:	e9dd 2300 	ldrd	r2, r3, [sp]
 80051e4:	f7fb fcac 	bl	8000b40 <__aeabi_dcmpgt>
 80051e8:	b9c0      	cbnz	r0, 800521c <_dtoa_r+0x6bc>
 80051ea:	4620      	mov	r0, r4
 80051ec:	4629      	mov	r1, r5
 80051ee:	e9dd 2300 	ldrd	r2, r3, [sp]
 80051f2:	f7fb fc7d 	bl	8000af0 <__aeabi_dcmpeq>
 80051f6:	b110      	cbz	r0, 80051fe <_dtoa_r+0x69e>
 80051f8:	f018 0f01 	tst.w	r8, #1
 80051fc:	d10e      	bne.n	800521c <_dtoa_r+0x6bc>
 80051fe:	9902      	ldr	r1, [sp, #8]
 8005200:	4648      	mov	r0, r9
 8005202:	f000 fbbf 	bl	8005984 <_Bfree>
 8005206:	2300      	movs	r3, #0
 8005208:	3701      	adds	r7, #1
 800520a:	7033      	strb	r3, [r6, #0]
 800520c:	9b11      	ldr	r3, [sp, #68]	@ 0x44
 800520e:	601f      	str	r7, [r3, #0]
 8005210:	9b21      	ldr	r3, [sp, #132]	@ 0x84
 8005212:	2b00      	cmp	r3, #0
 8005214:	f000 824c 	beq.w	80056b0 <_dtoa_r+0xb50>
 8005218:	601e      	str	r6, [r3, #0]
 800521a:	e249      	b.n	80056b0 <_dtoa_r+0xb50>
 800521c:	46b8      	mov	r8, r7
 800521e:	4633      	mov	r3, r6
 8005220:	461e      	mov	r6, r3
 8005222:	f813 2d01 	ldrb.w	r2, [r3, #-1]!
 8005226:	2a39      	cmp	r2, #57	@ 0x39
 8005228:	d106      	bne.n	8005238 <_dtoa_r+0x6d8>
 800522a:	459a      	cmp	sl, r3
 800522c:	d1f8      	bne.n	8005220 <_dtoa_r+0x6c0>
 800522e:	2230      	movs	r2, #48	@ 0x30
 8005230:	f108 0801 	add.w	r8, r8, #1
 8005234:	f88a 2000 	strb.w	r2, [sl]
 8005238:	781a      	ldrb	r2, [r3, #0]
 800523a:	3201      	adds	r2, #1
 800523c:	701a      	strb	r2, [r3, #0]
 800523e:	e7a0      	b.n	8005182 <_dtoa_r+0x622>
 8005240:	2200      	movs	r2, #0
 8005242:	4b6f      	ldr	r3, [pc, #444]	@ (8005400 <_dtoa_r+0x8a0>)
 8005244:	f7fb f9ec 	bl	8000620 <__aeabi_dmul>
 8005248:	2200      	movs	r2, #0
 800524a:	2300      	movs	r3, #0
 800524c:	4604      	mov	r4, r0
 800524e:	460d      	mov	r5, r1
 8005250:	f7fb fc4e 	bl	8000af0 <__aeabi_dcmpeq>
 8005254:	2800      	cmp	r0, #0
 8005256:	d09f      	beq.n	8005198 <_dtoa_r+0x638>
 8005258:	e7d1      	b.n	80051fe <_dtoa_r+0x69e>
 800525a:	9a09      	ldr	r2, [sp, #36]	@ 0x24
 800525c:	2a00      	cmp	r2, #0
 800525e:	f000 80ea 	beq.w	8005436 <_dtoa_r+0x8d6>
 8005262:	9a07      	ldr	r2, [sp, #28]
 8005264:	2a01      	cmp	r2, #1
 8005266:	f300 80cd 	bgt.w	8005404 <_dtoa_r+0x8a4>
 800526a:	9a12      	ldr	r2, [sp, #72]	@ 0x48
 800526c:	2a00      	cmp	r2, #0
 800526e:	f000 80c1 	beq.w	80053f4 <_dtoa_r+0x894>
 8005272:	f203 4333 	addw	r3, r3, #1075	@ 0x433
 8005276:	9c08      	ldr	r4, [sp, #32]
 8005278:	9e00      	ldr	r6, [sp, #0]
 800527a:	9a00      	ldr	r2, [sp, #0]
 800527c:	2101      	movs	r1, #1
 800527e:	4648      	mov	r0, r9
 8005280:	441a      	add	r2, r3
 8005282:	9200      	str	r2, [sp, #0]
 8005284:	9a06      	ldr	r2, [sp, #24]
 8005286:	441a      	add	r2, r3
 8005288:	9206      	str	r2, [sp, #24]
 800528a:	f000 fc31 	bl	8005af0 <__i2b>
 800528e:	4605      	mov	r5, r0
 8005290:	b166      	cbz	r6, 80052ac <_dtoa_r+0x74c>
 8005292:	9b06      	ldr	r3, [sp, #24]
 8005294:	2b00      	cmp	r3, #0
 8005296:	dd09      	ble.n	80052ac <_dtoa_r+0x74c>
 8005298:	42b3      	cmp	r3, r6
 800529a:	9a00      	ldr	r2, [sp, #0]
 800529c:	bfa8      	it	ge
 800529e:	4633      	movge	r3, r6
 80052a0:	1ad2      	subs	r2, r2, r3
 80052a2:	1af6      	subs	r6, r6, r3
 80052a4:	9200      	str	r2, [sp, #0]
 80052a6:	9a06      	ldr	r2, [sp, #24]
 80052a8:	1ad3      	subs	r3, r2, r3
 80052aa:	9306      	str	r3, [sp, #24]
 80052ac:	9b08      	ldr	r3, [sp, #32]
 80052ae:	b30b      	cbz	r3, 80052f4 <_dtoa_r+0x794>
 80052b0:	9b09      	ldr	r3, [sp, #36]	@ 0x24
 80052b2:	2b00      	cmp	r3, #0
 80052b4:	f000 80c6 	beq.w	8005444 <_dtoa_r+0x8e4>
 80052b8:	2c00      	cmp	r4, #0
 80052ba:	f000 80c0 	beq.w	800543e <_dtoa_r+0x8de>
 80052be:	4629      	mov	r1, r5
 80052c0:	4622      	mov	r2, r4
 80052c2:	4648      	mov	r0, r9
 80052c4:	f000 fcce 	bl	8005c64 <__pow5mult>
 80052c8:	9a02      	ldr	r2, [sp, #8]
 80052ca:	4601      	mov	r1, r0
 80052cc:	4605      	mov	r5, r0
 80052ce:	4648      	mov	r0, r9
 80052d0:	f000 fc24 	bl	8005b1c <__multiply>
 80052d4:	9902      	ldr	r1, [sp, #8]
 80052d6:	4680      	mov	r8, r0
 80052d8:	4648      	mov	r0, r9
 80052da:	f000 fb53 	bl	8005984 <_Bfree>
 80052de:	9b08      	ldr	r3, [sp, #32]
 80052e0:	1b1b      	subs	r3, r3, r4
 80052e2:	9308      	str	r3, [sp, #32]
 80052e4:	f000 80b1 	beq.w	800544a <_dtoa_r+0x8ea>
 80052e8:	9a08      	ldr	r2, [sp, #32]
 80052ea:	4641      	mov	r1, r8
 80052ec:	4648      	mov	r0, r9
 80052ee:	f000 fcb9 	bl	8005c64 <__pow5mult>
 80052f2:	9002      	str	r0, [sp, #8]
 80052f4:	2101      	movs	r1, #1
 80052f6:	4648      	mov	r0, r9
 80052f8:	f000 fbfa 	bl	8005af0 <__i2b>
 80052fc:	9b0d      	ldr	r3, [sp, #52]	@ 0x34
 80052fe:	4604      	mov	r4, r0
 8005300:	2b00      	cmp	r3, #0
 8005302:	f000 81d9 	beq.w	80056b8 <_dtoa_r+0xb58>
 8005306:	461a      	mov	r2, r3
 8005308:	4601      	mov	r1, r0
 800530a:	4648      	mov	r0, r9
 800530c:	f000 fcaa 	bl	8005c64 <__pow5mult>
 8005310:	9b07      	ldr	r3, [sp, #28]
 8005312:	4604      	mov	r4, r0
 8005314:	2b01      	cmp	r3, #1
 8005316:	f300 809f 	bgt.w	8005458 <_dtoa_r+0x8f8>
 800531a:	9b04      	ldr	r3, [sp, #16]
 800531c:	2b00      	cmp	r3, #0
 800531e:	f040 8097 	bne.w	8005450 <_dtoa_r+0x8f0>
 8005322:	9b05      	ldr	r3, [sp, #20]
 8005324:	f3c3 0313 	ubfx	r3, r3, #0, #20
 8005328:	2b00      	cmp	r3, #0
 800532a:	f040 8093 	bne.w	8005454 <_dtoa_r+0x8f4>
 800532e:	9b05      	ldr	r3, [sp, #20]
 8005330:	f023 4300 	bic.w	r3, r3, #2147483648	@ 0x80000000
 8005334:	0d1b      	lsrs	r3, r3, #20
 8005336:	051b      	lsls	r3, r3, #20
 8005338:	b133      	cbz	r3, 8005348 <_dtoa_r+0x7e8>
 800533a:	9b00      	ldr	r3, [sp, #0]
 800533c:	3301      	adds	r3, #1
 800533e:	9300      	str	r3, [sp, #0]
 8005340:	9b06      	ldr	r3, [sp, #24]
 8005342:	3301      	adds	r3, #1
 8005344:	9306      	str	r3, [sp, #24]
 8005346:	2301      	movs	r3, #1
 8005348:	9308      	str	r3, [sp, #32]
 800534a:	9b0d      	ldr	r3, [sp, #52]	@ 0x34
 800534c:	2b00      	cmp	r3, #0
 800534e:	f000 81b9 	beq.w	80056c4 <_dtoa_r+0xb64>
 8005352:	6923      	ldr	r3, [r4, #16]
 8005354:	eb04 0383 	add.w	r3, r4, r3, lsl #2
 8005358:	6918      	ldr	r0, [r3, #16]
 800535a:	f000 fb7d 	bl	8005a58 <__hi0bits>
 800535e:	f1c0 0020 	rsb	r0, r0, #32
 8005362:	9b06      	ldr	r3, [sp, #24]
 8005364:	4418      	add	r0, r3
 8005366:	f010 001f 	ands.w	r0, r0, #31
 800536a:	f000 8082 	beq.w	8005472 <_dtoa_r+0x912>
 800536e:	f1c0 0320 	rsb	r3, r0, #32
 8005372:	2b04      	cmp	r3, #4
 8005374:	dd73      	ble.n	800545e <_dtoa_r+0x8fe>
 8005376:	f1c0 001c 	rsb	r0, r0, #28
 800537a:	9b00      	ldr	r3, [sp, #0]
 800537c:	4403      	add	r3, r0
 800537e:	4406      	add	r6, r0
 8005380:	9300      	str	r3, [sp, #0]
 8005382:	9b06      	ldr	r3, [sp, #24]
 8005384:	4403      	add	r3, r0
 8005386:	9306      	str	r3, [sp, #24]
 8005388:	9b00      	ldr	r3, [sp, #0]
 800538a:	2b00      	cmp	r3, #0
 800538c:	dd05      	ble.n	800539a <_dtoa_r+0x83a>
 800538e:	461a      	mov	r2, r3
 8005390:	9902      	ldr	r1, [sp, #8]
 8005392:	4648      	mov	r0, r9
 8005394:	f000 fcc0 	bl	8005d18 <__lshift>
 8005398:	9002      	str	r0, [sp, #8]
 800539a:	9b06      	ldr	r3, [sp, #24]
 800539c:	2b00      	cmp	r3, #0
 800539e:	dd05      	ble.n	80053ac <_dtoa_r+0x84c>
 80053a0:	4621      	mov	r1, r4
 80053a2:	461a      	mov	r2, r3
 80053a4:	4648      	mov	r0, r9
 80053a6:	f000 fcb7 	bl	8005d18 <__lshift>
 80053aa:	4604      	mov	r4, r0
 80053ac:	9b10      	ldr	r3, [sp, #64]	@ 0x40
 80053ae:	2b00      	cmp	r3, #0
 80053b0:	d061      	beq.n	8005476 <_dtoa_r+0x916>
 80053b2:	4621      	mov	r1, r4
 80053b4:	9802      	ldr	r0, [sp, #8]
 80053b6:	f000 fd1b 	bl	8005df0 <__mcmp>
 80053ba:	2800      	cmp	r0, #0
 80053bc:	da5b      	bge.n	8005476 <_dtoa_r+0x916>
 80053be:	2300      	movs	r3, #0
 80053c0:	220a      	movs	r2, #10
 80053c2:	9902      	ldr	r1, [sp, #8]
 80053c4:	4648      	mov	r0, r9
 80053c6:	f000 faff 	bl	80059c8 <__multadd>
 80053ca:	9b09      	ldr	r3, [sp, #36]	@ 0x24
 80053cc:	f107 38ff 	add.w	r8, r7, #4294967295
 80053d0:	9002      	str	r0, [sp, #8]
 80053d2:	2b00      	cmp	r3, #0
 80053d4:	f000 8178 	beq.w	80056c8 <_dtoa_r+0xb68>
 80053d8:	4629      	mov	r1, r5
 80053da:	2300      	movs	r3, #0
 80053dc:	220a      	movs	r2, #10
 80053de:	4648      	mov	r0, r9
 80053e0:	f000 faf2 	bl	80059c8 <__multadd>
 80053e4:	f1bb 0f00 	cmp.w	fp, #0
 80053e8:	4605      	mov	r5, r0
 80053ea:	dc6f      	bgt.n	80054cc <_dtoa_r+0x96c>
 80053ec:	9b07      	ldr	r3, [sp, #28]
 80053ee:	2b02      	cmp	r3, #2
 80053f0:	dc49      	bgt.n	8005486 <_dtoa_r+0x926>
 80053f2:	e06b      	b.n	80054cc <_dtoa_r+0x96c>
 80053f4:	9b14      	ldr	r3, [sp, #80]	@ 0x50
 80053f6:	f1c3 0336 	rsb	r3, r3, #54	@ 0x36
 80053fa:	e73c      	b.n	8005276 <_dtoa_r+0x716>
 80053fc:	3fe00000 	.word	0x3fe00000
 8005400:	40240000 	.word	0x40240000
 8005404:	9b03      	ldr	r3, [sp, #12]
 8005406:	1e5c      	subs	r4, r3, #1
 8005408:	9b08      	ldr	r3, [sp, #32]
 800540a:	42a3      	cmp	r3, r4
 800540c:	db09      	blt.n	8005422 <_dtoa_r+0x8c2>
 800540e:	1b1c      	subs	r4, r3, r4
 8005410:	9b03      	ldr	r3, [sp, #12]
 8005412:	2b00      	cmp	r3, #0
 8005414:	f6bf af30 	bge.w	8005278 <_dtoa_r+0x718>
 8005418:	9b00      	ldr	r3, [sp, #0]
 800541a:	9a03      	ldr	r2, [sp, #12]
 800541c:	1a9e      	subs	r6, r3, r2
 800541e:	2300      	movs	r3, #0
 8005420:	e72b      	b.n	800527a <_dtoa_r+0x71a>
 8005422:	9b08      	ldr	r3, [sp, #32]
 8005424:	9a0d      	ldr	r2, [sp, #52]	@ 0x34
 8005426:	1ae3      	subs	r3, r4, r3
 8005428:	9408      	str	r4, [sp, #32]
 800542a:	9e00      	ldr	r6, [sp, #0]
 800542c:	2400      	movs	r4, #0
 800542e:	441a      	add	r2, r3
 8005430:	9b03      	ldr	r3, [sp, #12]
 8005432:	920d      	str	r2, [sp, #52]	@ 0x34
 8005434:	e721      	b.n	800527a <_dtoa_r+0x71a>
 8005436:	9c08      	ldr	r4, [sp, #32]
 8005438:	9e00      	ldr	r6, [sp, #0]
 800543a:	9d09      	ldr	r5, [sp, #36]	@ 0x24
 800543c:	e728      	b.n	8005290 <_dtoa_r+0x730>
 800543e:	f8dd 8008 	ldr.w	r8, [sp, #8]
 8005442:	e751      	b.n	80052e8 <_dtoa_r+0x788>
 8005444:	9a08      	ldr	r2, [sp, #32]
 8005446:	9902      	ldr	r1, [sp, #8]
 8005448:	e750      	b.n	80052ec <_dtoa_r+0x78c>
 800544a:	f8cd 8008 	str.w	r8, [sp, #8]
 800544e:	e751      	b.n	80052f4 <_dtoa_r+0x794>
 8005450:	2300      	movs	r3, #0
 8005452:	e779      	b.n	8005348 <_dtoa_r+0x7e8>
 8005454:	9b04      	ldr	r3, [sp, #16]
 8005456:	e777      	b.n	8005348 <_dtoa_r+0x7e8>
 8005458:	2300      	movs	r3, #0
 800545a:	9308      	str	r3, [sp, #32]
 800545c:	e779      	b.n	8005352 <_dtoa_r+0x7f2>
 800545e:	d093      	beq.n	8005388 <_dtoa_r+0x828>
 8005460:	331c      	adds	r3, #28
 8005462:	9a00      	ldr	r2, [sp, #0]
 8005464:	441a      	add	r2, r3
 8005466:	441e      	add	r6, r3
 8005468:	9200      	str	r2, [sp, #0]
 800546a:	9a06      	ldr	r2, [sp, #24]
 800546c:	441a      	add	r2, r3
 800546e:	9206      	str	r2, [sp, #24]
 8005470:	e78a      	b.n	8005388 <_dtoa_r+0x828>
 8005472:	4603      	mov	r3, r0
 8005474:	e7f4      	b.n	8005460 <_dtoa_r+0x900>
 8005476:	9b03      	ldr	r3, [sp, #12]
 8005478:	46b8      	mov	r8, r7
 800547a:	2b00      	cmp	r3, #0
 800547c:	dc20      	bgt.n	80054c0 <_dtoa_r+0x960>
 800547e:	469b      	mov	fp, r3
 8005480:	9b07      	ldr	r3, [sp, #28]
 8005482:	2b02      	cmp	r3, #2
 8005484:	dd1e      	ble.n	80054c4 <_dtoa_r+0x964>
 8005486:	f1bb 0f00 	cmp.w	fp, #0
 800548a:	f47f adb1 	bne.w	8004ff0 <_dtoa_r+0x490>
 800548e:	4621      	mov	r1, r4
 8005490:	465b      	mov	r3, fp
 8005492:	2205      	movs	r2, #5
 8005494:	4648      	mov	r0, r9
 8005496:	f000 fa97 	bl	80059c8 <__multadd>
 800549a:	4601      	mov	r1, r0
 800549c:	4604      	mov	r4, r0
 800549e:	9802      	ldr	r0, [sp, #8]
 80054a0:	f000 fca6 	bl	8005df0 <__mcmp>
 80054a4:	2800      	cmp	r0, #0
 80054a6:	f77f ada3 	ble.w	8004ff0 <_dtoa_r+0x490>
 80054aa:	4656      	mov	r6, sl
 80054ac:	2331      	movs	r3, #49	@ 0x31
 80054ae:	f108 0801 	add.w	r8, r8, #1
 80054b2:	f806 3b01 	strb.w	r3, [r6], #1
 80054b6:	e59f      	b.n	8004ff8 <_dtoa_r+0x498>
 80054b8:	46b8      	mov	r8, r7
 80054ba:	9c03      	ldr	r4, [sp, #12]
 80054bc:	4625      	mov	r5, r4
 80054be:	e7f4      	b.n	80054aa <_dtoa_r+0x94a>
 80054c0:	f8dd b00c 	ldr.w	fp, [sp, #12]
 80054c4:	9b09      	ldr	r3, [sp, #36]	@ 0x24
 80054c6:	2b00      	cmp	r3, #0
 80054c8:	f000 8102 	beq.w	80056d0 <_dtoa_r+0xb70>
 80054cc:	2e00      	cmp	r6, #0
 80054ce:	dd05      	ble.n	80054dc <_dtoa_r+0x97c>
 80054d0:	4629      	mov	r1, r5
 80054d2:	4632      	mov	r2, r6
 80054d4:	4648      	mov	r0, r9
 80054d6:	f000 fc1f 	bl	8005d18 <__lshift>
 80054da:	4605      	mov	r5, r0
 80054dc:	9b08      	ldr	r3, [sp, #32]
 80054de:	2b00      	cmp	r3, #0
 80054e0:	d05c      	beq.n	800559c <_dtoa_r+0xa3c>
 80054e2:	6869      	ldr	r1, [r5, #4]
 80054e4:	4648      	mov	r0, r9
 80054e6:	f000 fa0d 	bl	8005904 <_Balloc>
 80054ea:	4606      	mov	r6, r0
 80054ec:	b928      	cbnz	r0, 80054fa <_dtoa_r+0x99a>
 80054ee:	4b83      	ldr	r3, [pc, #524]	@ (80056fc <_dtoa_r+0xb9c>)
 80054f0:	4602      	mov	r2, r0
 80054f2:	f240 21ef 	movw	r1, #751	@ 0x2ef
 80054f6:	f7ff bb4a 	b.w	8004b8e <_dtoa_r+0x2e>
 80054fa:	692a      	ldr	r2, [r5, #16]
 80054fc:	f105 010c 	add.w	r1, r5, #12
 8005500:	300c      	adds	r0, #12
 8005502:	3202      	adds	r2, #2
 8005504:	0092      	lsls	r2, r2, #2
 8005506:	f000 ffad 	bl	8006464 <memcpy>
 800550a:	2201      	movs	r2, #1
 800550c:	4631      	mov	r1, r6
 800550e:	4648      	mov	r0, r9
 8005510:	f000 fc02 	bl	8005d18 <__lshift>
 8005514:	f10a 0301 	add.w	r3, sl, #1
 8005518:	462f      	mov	r7, r5
 800551a:	4605      	mov	r5, r0
 800551c:	9300      	str	r3, [sp, #0]
 800551e:	eb0a 030b 	add.w	r3, sl, fp
 8005522:	9308      	str	r3, [sp, #32]
 8005524:	9b04      	ldr	r3, [sp, #16]
 8005526:	f003 0301 	and.w	r3, r3, #1
 800552a:	9306      	str	r3, [sp, #24]
 800552c:	9b00      	ldr	r3, [sp, #0]
 800552e:	4621      	mov	r1, r4
 8005530:	9802      	ldr	r0, [sp, #8]
 8005532:	f103 3bff 	add.w	fp, r3, #4294967295
 8005536:	f7ff fa86 	bl	8004a46 <quorem>
 800553a:	4603      	mov	r3, r0
 800553c:	4639      	mov	r1, r7
 800553e:	9003      	str	r0, [sp, #12]
 8005540:	3330      	adds	r3, #48	@ 0x30
 8005542:	9802      	ldr	r0, [sp, #8]
 8005544:	9309      	str	r3, [sp, #36]	@ 0x24
 8005546:	f000 fc53 	bl	8005df0 <__mcmp>
 800554a:	462a      	mov	r2, r5
 800554c:	9004      	str	r0, [sp, #16]
 800554e:	4621      	mov	r1, r4
 8005550:	4648      	mov	r0, r9
 8005552:	f000 fc69 	bl	8005e28 <__mdiff>
 8005556:	68c2      	ldr	r2, [r0, #12]
 8005558:	4606      	mov	r6, r0
 800555a:	9b09      	ldr	r3, [sp, #36]	@ 0x24
 800555c:	bb02      	cbnz	r2, 80055a0 <_dtoa_r+0xa40>
 800555e:	4601      	mov	r1, r0
 8005560:	9802      	ldr	r0, [sp, #8]
 8005562:	f000 fc45 	bl	8005df0 <__mcmp>
 8005566:	9b09      	ldr	r3, [sp, #36]	@ 0x24
 8005568:	4602      	mov	r2, r0
 800556a:	4631      	mov	r1, r6
 800556c:	4648      	mov	r0, r9
 800556e:	920c      	str	r2, [sp, #48]	@ 0x30
 8005570:	9309      	str	r3, [sp, #36]	@ 0x24
 8005572:	f000 fa07 	bl	8005984 <_Bfree>
 8005576:	9b07      	ldr	r3, [sp, #28]
 8005578:	9a0c      	ldr	r2, [sp, #48]	@ 0x30
 800557a:	9e00      	ldr	r6, [sp, #0]
 800557c:	ea42 0103 	orr.w	r1, r2, r3
 8005580:	9b06      	ldr	r3, [sp, #24]
 8005582:	4319      	orrs	r1, r3
 8005584:	9b09      	ldr	r3, [sp, #36]	@ 0x24
 8005586:	d10d      	bne.n	80055a4 <_dtoa_r+0xa44>
 8005588:	2b39      	cmp	r3, #57	@ 0x39
 800558a:	d027      	beq.n	80055dc <_dtoa_r+0xa7c>
 800558c:	9a04      	ldr	r2, [sp, #16]
 800558e:	2a00      	cmp	r2, #0
 8005590:	dd01      	ble.n	8005596 <_dtoa_r+0xa36>
 8005592:	9b03      	ldr	r3, [sp, #12]
 8005594:	3331      	adds	r3, #49	@ 0x31
 8005596:	f88b 3000 	strb.w	r3, [fp]
 800559a:	e52e      	b.n	8004ffa <_dtoa_r+0x49a>
 800559c:	4628      	mov	r0, r5
 800559e:	e7b9      	b.n	8005514 <_dtoa_r+0x9b4>
 80055a0:	2201      	movs	r2, #1
 80055a2:	e7e2      	b.n	800556a <_dtoa_r+0xa0a>
 80055a4:	9904      	ldr	r1, [sp, #16]
 80055a6:	2900      	cmp	r1, #0
 80055a8:	db04      	blt.n	80055b4 <_dtoa_r+0xa54>
 80055aa:	9807      	ldr	r0, [sp, #28]
 80055ac:	4301      	orrs	r1, r0
 80055ae:	9806      	ldr	r0, [sp, #24]
 80055b0:	4301      	orrs	r1, r0
 80055b2:	d120      	bne.n	80055f6 <_dtoa_r+0xa96>
 80055b4:	2a00      	cmp	r2, #0
 80055b6:	ddee      	ble.n	8005596 <_dtoa_r+0xa36>
 80055b8:	2201      	movs	r2, #1
 80055ba:	9902      	ldr	r1, [sp, #8]
 80055bc:	4648      	mov	r0, r9
 80055be:	9300      	str	r3, [sp, #0]
 80055c0:	f000 fbaa 	bl	8005d18 <__lshift>
 80055c4:	4621      	mov	r1, r4
 80055c6:	9002      	str	r0, [sp, #8]
 80055c8:	f000 fc12 	bl	8005df0 <__mcmp>
 80055cc:	2800      	cmp	r0, #0
 80055ce:	9b00      	ldr	r3, [sp, #0]
 80055d0:	dc02      	bgt.n	80055d8 <_dtoa_r+0xa78>
 80055d2:	d1e0      	bne.n	8005596 <_dtoa_r+0xa36>
 80055d4:	07da      	lsls	r2, r3, #31
 80055d6:	d5de      	bpl.n	8005596 <_dtoa_r+0xa36>
 80055d8:	2b39      	cmp	r3, #57	@ 0x39
 80055da:	d1da      	bne.n	8005592 <_dtoa_r+0xa32>
 80055dc:	2339      	movs	r3, #57	@ 0x39
 80055de:	f88b 3000 	strb.w	r3, [fp]
 80055e2:	4633      	mov	r3, r6
 80055e4:	461e      	mov	r6, r3
 80055e6:	3b01      	subs	r3, #1
 80055e8:	f816 2c01 	ldrb.w	r2, [r6, #-1]
 80055ec:	2a39      	cmp	r2, #57	@ 0x39
 80055ee:	d04f      	beq.n	8005690 <_dtoa_r+0xb30>
 80055f0:	3201      	adds	r2, #1
 80055f2:	701a      	strb	r2, [r3, #0]
 80055f4:	e501      	b.n	8004ffa <_dtoa_r+0x49a>
 80055f6:	2a00      	cmp	r2, #0
 80055f8:	dd03      	ble.n	8005602 <_dtoa_r+0xaa2>
 80055fa:	2b39      	cmp	r3, #57	@ 0x39
 80055fc:	d0ee      	beq.n	80055dc <_dtoa_r+0xa7c>
 80055fe:	3301      	adds	r3, #1
 8005600:	e7c9      	b.n	8005596 <_dtoa_r+0xa36>
 8005602:	9a00      	ldr	r2, [sp, #0]
 8005604:	9908      	ldr	r1, [sp, #32]
 8005606:	f802 3c01 	strb.w	r3, [r2, #-1]
 800560a:	428a      	cmp	r2, r1
 800560c:	d029      	beq.n	8005662 <_dtoa_r+0xb02>
 800560e:	2300      	movs	r3, #0
 8005610:	220a      	movs	r2, #10
 8005612:	9902      	ldr	r1, [sp, #8]
 8005614:	4648      	mov	r0, r9
 8005616:	f000 f9d7 	bl	80059c8 <__multadd>
 800561a:	42af      	cmp	r7, r5
 800561c:	9002      	str	r0, [sp, #8]
 800561e:	f04f 0300 	mov.w	r3, #0
 8005622:	f04f 020a 	mov.w	r2, #10
 8005626:	4639      	mov	r1, r7
 8005628:	4648      	mov	r0, r9
 800562a:	d107      	bne.n	800563c <_dtoa_r+0xadc>
 800562c:	f000 f9cc 	bl	80059c8 <__multadd>
 8005630:	4607      	mov	r7, r0
 8005632:	4605      	mov	r5, r0
 8005634:	9b00      	ldr	r3, [sp, #0]
 8005636:	3301      	adds	r3, #1
 8005638:	9300      	str	r3, [sp, #0]
 800563a:	e777      	b.n	800552c <_dtoa_r+0x9cc>
 800563c:	f000 f9c4 	bl	80059c8 <__multadd>
 8005640:	4629      	mov	r1, r5
 8005642:	4607      	mov	r7, r0
 8005644:	2300      	movs	r3, #0
 8005646:	220a      	movs	r2, #10
 8005648:	4648      	mov	r0, r9
 800564a:	f000 f9bd 	bl	80059c8 <__multadd>
 800564e:	4605      	mov	r5, r0
 8005650:	e7f0      	b.n	8005634 <_dtoa_r+0xad4>
 8005652:	f1bb 0f00 	cmp.w	fp, #0
 8005656:	f04f 0700 	mov.w	r7, #0
 800565a:	bfcc      	ite	gt
 800565c:	465e      	movgt	r6, fp
 800565e:	2601      	movle	r6, #1
 8005660:	4456      	add	r6, sl
 8005662:	2201      	movs	r2, #1
 8005664:	9902      	ldr	r1, [sp, #8]
 8005666:	4648      	mov	r0, r9
 8005668:	9300      	str	r3, [sp, #0]
 800566a:	f000 fb55 	bl	8005d18 <__lshift>
 800566e:	4621      	mov	r1, r4
 8005670:	9002      	str	r0, [sp, #8]
 8005672:	f000 fbbd 	bl	8005df0 <__mcmp>
 8005676:	2800      	cmp	r0, #0
 8005678:	dcb3      	bgt.n	80055e2 <_dtoa_r+0xa82>
 800567a:	d102      	bne.n	8005682 <_dtoa_r+0xb22>
 800567c:	9b00      	ldr	r3, [sp, #0]
 800567e:	07db      	lsls	r3, r3, #31
 8005680:	d4af      	bmi.n	80055e2 <_dtoa_r+0xa82>
 8005682:	4633      	mov	r3, r6
 8005684:	461e      	mov	r6, r3
 8005686:	f813 2d01 	ldrb.w	r2, [r3, #-1]!
 800568a:	2a30      	cmp	r2, #48	@ 0x30
 800568c:	d0fa      	beq.n	8005684 <_dtoa_r+0xb24>
 800568e:	e4b4      	b.n	8004ffa <_dtoa_r+0x49a>
 8005690:	459a      	cmp	sl, r3
 8005692:	d1a7      	bne.n	80055e4 <_dtoa_r+0xa84>
 8005694:	2331      	movs	r3, #49	@ 0x31
 8005696:	f108 0801 	add.w	r8, r8, #1
 800569a:	f88a 3000 	strb.w	r3, [sl]
 800569e:	e4ac      	b.n	8004ffa <_dtoa_r+0x49a>
 80056a0:	9b21      	ldr	r3, [sp, #132]	@ 0x84
 80056a2:	f8df a05c 	ldr.w	sl, [pc, #92]	@ 8005700 <_dtoa_r+0xba0>
 80056a6:	b11b      	cbz	r3, 80056b0 <_dtoa_r+0xb50>
 80056a8:	f10a 0308 	add.w	r3, sl, #8
 80056ac:	9a21      	ldr	r2, [sp, #132]	@ 0x84
 80056ae:	6013      	str	r3, [r2, #0]
 80056b0:	4650      	mov	r0, sl
 80056b2:	b017      	add	sp, #92	@ 0x5c
 80056b4:	e8bd 8ff0 	ldmia.w	sp!, {r4, r5, r6, r7, r8, r9, sl, fp, pc}
 80056b8:	9b07      	ldr	r3, [sp, #28]
 80056ba:	2b01      	cmp	r3, #1
 80056bc:	f77f ae2d 	ble.w	800531a <_dtoa_r+0x7ba>
 80056c0:	9b0d      	ldr	r3, [sp, #52]	@ 0x34
 80056c2:	9308      	str	r3, [sp, #32]
 80056c4:	2001      	movs	r0, #1
 80056c6:	e64c      	b.n	8005362 <_dtoa_r+0x802>
 80056c8:	f1bb 0f00 	cmp.w	fp, #0
 80056cc:	f77f aed8 	ble.w	8005480 <_dtoa_r+0x920>
 80056d0:	4656      	mov	r6, sl
 80056d2:	4621      	mov	r1, r4
 80056d4:	9802      	ldr	r0, [sp, #8]
 80056d6:	f7ff f9b6 	bl	8004a46 <quorem>
 80056da:	f100 0330 	add.w	r3, r0, #48	@ 0x30
 80056de:	f806 3b01 	strb.w	r3, [r6], #1
 80056e2:	eba6 020a 	sub.w	r2, r6, sl
 80056e6:	4593      	cmp	fp, r2
 80056e8:	ddb3      	ble.n	8005652 <_dtoa_r+0xaf2>
 80056ea:	2300      	movs	r3, #0
 80056ec:	220a      	movs	r2, #10
 80056ee:	9902      	ldr	r1, [sp, #8]
 80056f0:	4648      	mov	r0, r9
 80056f2:	f000 f969 	bl	80059c8 <__multadd>
 80056f6:	9002      	str	r0, [sp, #8]
 80056f8:	e7eb      	b.n	80056d2 <_dtoa_r+0xb72>
 80056fa:	bf00      	nop
 80056fc:	08006f78 	.word	0x08006f78
 8005700:	08006efc 	.word	0x08006efc

08005704 <_free_r>:
 8005704:	b538      	push	{r3, r4, r5, lr}
 8005706:	4605      	mov	r5, r0
 8005708:	2900      	cmp	r1, #0
 800570a:	d041      	beq.n	8005790 <_free_r+0x8c>
 800570c:	f851 3c04 	ldr.w	r3, [r1, #-4]
 8005710:	1f0c      	subs	r4, r1, #4
 8005712:	2b00      	cmp	r3, #0
 8005714:	bfb8      	it	lt
 8005716:	18e4      	addlt	r4, r4, r3
 8005718:	f000 f8e8 	bl	80058ec <__malloc_lock>
 800571c:	4a1d      	ldr	r2, [pc, #116]	@ (8005794 <_free_r+0x90>)
 800571e:	6813      	ldr	r3, [r2, #0]
 8005720:	b933      	cbnz	r3, 8005730 <_free_r+0x2c>
 8005722:	6063      	str	r3, [r4, #4]
 8005724:	6014      	str	r4, [r2, #0]
 8005726:	4628      	mov	r0, r5
 8005728:	e8bd 4038 	ldmia.w	sp!, {r3, r4, r5, lr}
 800572c:	f000 b8e4 	b.w	80058f8 <__malloc_unlock>
 8005730:	42a3      	cmp	r3, r4
 8005732:	d908      	bls.n	8005746 <_free_r+0x42>
 8005734:	6820      	ldr	r0, [r4, #0]
 8005736:	1821      	adds	r1, r4, r0
 8005738:	428b      	cmp	r3, r1
 800573a:	bf01      	itttt	eq
 800573c:	6819      	ldreq	r1, [r3, #0]
 800573e:	685b      	ldreq	r3, [r3, #4]
 8005740:	1809      	addeq	r1, r1, r0
 8005742:	6021      	streq	r1, [r4, #0]
 8005744:	e7ed      	b.n	8005722 <_free_r+0x1e>
 8005746:	461a      	mov	r2, r3
 8005748:	685b      	ldr	r3, [r3, #4]
 800574a:	b10b      	cbz	r3, 8005750 <_free_r+0x4c>
 800574c:	42a3      	cmp	r3, r4
 800574e:	d9fa      	bls.n	8005746 <_free_r+0x42>
 8005750:	6811      	ldr	r1, [r2, #0]
 8005752:	1850      	adds	r0, r2, r1
 8005754:	42a0      	cmp	r0, r4
 8005756:	d10b      	bne.n	8005770 <_free_r+0x6c>
 8005758:	6820      	ldr	r0, [r4, #0]
 800575a:	4401      	add	r1, r0
 800575c:	1850      	adds	r0, r2, r1
 800575e:	6011      	str	r1, [r2, #0]
 8005760:	4283      	cmp	r3, r0
 8005762:	d1e0      	bne.n	8005726 <_free_r+0x22>
 8005764:	6818      	ldr	r0, [r3, #0]
 8005766:	685b      	ldr	r3, [r3, #4]
 8005768:	4408      	add	r0, r1
 800576a:	6053      	str	r3, [r2, #4]
 800576c:	6010      	str	r0, [r2, #0]
 800576e:	e7da      	b.n	8005726 <_free_r+0x22>
 8005770:	d902      	bls.n	8005778 <_free_r+0x74>
 8005772:	230c      	movs	r3, #12
 8005774:	602b      	str	r3, [r5, #0]
 8005776:	e7d6      	b.n	8005726 <_free_r+0x22>
 8005778:	6820      	ldr	r0, [r4, #0]
 800577a:	1821      	adds	r1, r4, r0
 800577c:	428b      	cmp	r3, r1
 800577e:	bf02      	ittt	eq
 8005780:	6819      	ldreq	r1, [r3, #0]
 8005782:	685b      	ldreq	r3, [r3, #4]
 8005784:	1809      	addeq	r1, r1, r0
 8005786:	6063      	str	r3, [r4, #4]
 8005788:	bf08      	it	eq
 800578a:	6021      	streq	r1, [r4, #0]
 800578c:	6054      	str	r4, [r2, #4]
 800578e:	e7ca      	b.n	8005726 <_free_r+0x22>
 8005790:	bd38      	pop	{r3, r4, r5, pc}
 8005792:	bf00      	nop
 8005794:	200014b4 	.word	0x200014b4

08005798 <malloc>:
 8005798:	4b02      	ldr	r3, [pc, #8]	@ (80057a4 <malloc+0xc>)
 800579a:	4601      	mov	r1, r0
 800579c:	6818      	ldr	r0, [r3, #0]
 800579e:	f000 b825 	b.w	80057ec <_malloc_r>
 80057a2:	bf00      	nop
 80057a4:	20000010 	.word	0x20000010

080057a8 <sbrk_aligned>:
 80057a8:	b570      	push	{r4, r5, r6, lr}
 80057aa:	4e0f      	ldr	r6, [pc, #60]	@ (80057e8 <sbrk_aligned+0x40>)
 80057ac:	460c      	mov	r4, r1
 80057ae:	4605      	mov	r5, r0
 80057b0:	6831      	ldr	r1, [r6, #0]
 80057b2:	b911      	cbnz	r1, 80057ba <sbrk_aligned+0x12>
 80057b4:	f000 fe46 	bl	8006444 <_sbrk_r>
 80057b8:	6030      	str	r0, [r6, #0]
 80057ba:	4621      	mov	r1, r4
 80057bc:	4628      	mov	r0, r5
 80057be:	f000 fe41 	bl	8006444 <_sbrk_r>
 80057c2:	1c43      	adds	r3, r0, #1
 80057c4:	d103      	bne.n	80057ce <sbrk_aligned+0x26>
 80057c6:	f04f 34ff 	mov.w	r4, #4294967295
 80057ca:	4620      	mov	r0, r4
 80057cc:	bd70      	pop	{r4, r5, r6, pc}
 80057ce:	1cc4      	adds	r4, r0, #3
 80057d0:	f024 0403 	bic.w	r4, r4, #3
 80057d4:	42a0      	cmp	r0, r4
 80057d6:	d0f8      	beq.n	80057ca <sbrk_aligned+0x22>
 80057d8:	1a21      	subs	r1, r4, r0
 80057da:	4628      	mov	r0, r5
 80057dc:	f000 fe32 	bl	8006444 <_sbrk_r>
 80057e0:	3001      	adds	r0, #1
 80057e2:	d1f2      	bne.n	80057ca <sbrk_aligned+0x22>
 80057e4:	e7ef      	b.n	80057c6 <sbrk_aligned+0x1e>
 80057e6:	bf00      	nop
 80057e8:	200014b0 	.word	0x200014b0

080057ec <_malloc_r>:
 80057ec:	e92d 43f8 	stmdb	sp!, {r3, r4, r5, r6, r7, r8, r9, lr}
 80057f0:	1ccd      	adds	r5, r1, #3
 80057f2:	4606      	mov	r6, r0
 80057f4:	f025 0503 	bic.w	r5, r5, #3
 80057f8:	3508      	adds	r5, #8
 80057fa:	2d0c      	cmp	r5, #12
 80057fc:	bf38      	it	cc
 80057fe:	250c      	movcc	r5, #12
 8005800:	2d00      	cmp	r5, #0
 8005802:	db01      	blt.n	8005808 <_malloc_r+0x1c>
 8005804:	42a9      	cmp	r1, r5
 8005806:	d904      	bls.n	8005812 <_malloc_r+0x26>
 8005808:	230c      	movs	r3, #12
 800580a:	6033      	str	r3, [r6, #0]
 800580c:	2000      	movs	r0, #0
 800580e:	e8bd 83f8 	ldmia.w	sp!, {r3, r4, r5, r6, r7, r8, r9, pc}
 8005812:	f8df 80d4 	ldr.w	r8, [pc, #212]	@ 80058e8 <_malloc_r+0xfc>
 8005816:	f000 f869 	bl	80058ec <__malloc_lock>
 800581a:	f8d8 3000 	ldr.w	r3, [r8]
 800581e:	461c      	mov	r4, r3
 8005820:	bb44      	cbnz	r4, 8005874 <_malloc_r+0x88>
 8005822:	4629      	mov	r1, r5
 8005824:	4630      	mov	r0, r6
 8005826:	f7ff ffbf 	bl	80057a8 <sbrk_aligned>
 800582a:	1c43      	adds	r3, r0, #1
 800582c:	4604      	mov	r4, r0
 800582e:	d158      	bne.n	80058e2 <_malloc_r+0xf6>
 8005830:	f8d8 4000 	ldr.w	r4, [r8]
 8005834:	4627      	mov	r7, r4
 8005836:	2f00      	cmp	r7, #0
 8005838:	d143      	bne.n	80058c2 <_malloc_r+0xd6>
 800583a:	2c00      	cmp	r4, #0
 800583c:	d04b      	beq.n	80058d6 <_malloc_r+0xea>
 800583e:	6823      	ldr	r3, [r4, #0]
 8005840:	4639      	mov	r1, r7
 8005842:	4630      	mov	r0, r6
 8005844:	eb04 0903 	add.w	r9, r4, r3
 8005848:	f000 fdfc 	bl	8006444 <_sbrk_r>
 800584c:	4581      	cmp	r9, r0
 800584e:	d142      	bne.n	80058d6 <_malloc_r+0xea>
 8005850:	6821      	ldr	r1, [r4, #0]
 8005852:	4630      	mov	r0, r6
 8005854:	1a6d      	subs	r5, r5, r1
 8005856:	4629      	mov	r1, r5
 8005858:	f7ff ffa6 	bl	80057a8 <sbrk_aligned>
 800585c:	3001      	adds	r0, #1
 800585e:	d03a      	beq.n	80058d6 <_malloc_r+0xea>
 8005860:	6823      	ldr	r3, [r4, #0]
 8005862:	442b      	add	r3, r5
 8005864:	6023      	str	r3, [r4, #0]
 8005866:	f8d8 3000 	ldr.w	r3, [r8]
 800586a:	685a      	ldr	r2, [r3, #4]
 800586c:	bb62      	cbnz	r2, 80058c8 <_malloc_r+0xdc>
 800586e:	f8c8 7000 	str.w	r7, [r8]
 8005872:	e00f      	b.n	8005894 <_malloc_r+0xa8>
 8005874:	6822      	ldr	r2, [r4, #0]
 8005876:	1b52      	subs	r2, r2, r5
 8005878:	d420      	bmi.n	80058bc <_malloc_r+0xd0>
 800587a:	2a0b      	cmp	r2, #11
 800587c:	d917      	bls.n	80058ae <_malloc_r+0xc2>
 800587e:	1961      	adds	r1, r4, r5
 8005880:	42a3      	cmp	r3, r4
 8005882:	6025      	str	r5, [r4, #0]
 8005884:	bf18      	it	ne
 8005886:	6059      	strne	r1, [r3, #4]
 8005888:	6863      	ldr	r3, [r4, #4]
 800588a:	bf08      	it	eq
 800588c:	f8c8 1000 	streq.w	r1, [r8]
 8005890:	5162      	str	r2, [r4, r5]
 8005892:	604b      	str	r3, [r1, #4]
 8005894:	4630      	mov	r0, r6
 8005896:	f000 f82f 	bl	80058f8 <__malloc_unlock>
 800589a:	f104 000b 	add.w	r0, r4, #11
 800589e:	1d23      	adds	r3, r4, #4
 80058a0:	f020 0007 	bic.w	r0, r0, #7
 80058a4:	1ac2      	subs	r2, r0, r3
 80058a6:	bf1c      	itt	ne
 80058a8:	1a1b      	subne	r3, r3, r0
 80058aa:	50a3      	strne	r3, [r4, r2]
 80058ac:	e7af      	b.n	800580e <_malloc_r+0x22>
 80058ae:	6862      	ldr	r2, [r4, #4]
 80058b0:	42a3      	cmp	r3, r4
 80058b2:	bf0c      	ite	eq
 80058b4:	f8c8 2000 	streq.w	r2, [r8]
 80058b8:	605a      	strne	r2, [r3, #4]
 80058ba:	e7eb      	b.n	8005894 <_malloc_r+0xa8>
 80058bc:	4623      	mov	r3, r4
 80058be:	6864      	ldr	r4, [r4, #4]
 80058c0:	e7ae      	b.n	8005820 <_malloc_r+0x34>
 80058c2:	463c      	mov	r4, r7
 80058c4:	687f      	ldr	r7, [r7, #4]
 80058c6:	e7b6      	b.n	8005836 <_malloc_r+0x4a>
 80058c8:	461a      	mov	r2, r3
 80058ca:	685b      	ldr	r3, [r3, #4]
 80058cc:	42a3      	cmp	r3, r4
 80058ce:	d1fb      	bne.n	80058c8 <_malloc_r+0xdc>
 80058d0:	2300      	movs	r3, #0
 80058d2:	6053      	str	r3, [r2, #4]
 80058d4:	e7de      	b.n	8005894 <_malloc_r+0xa8>
 80058d6:	230c      	movs	r3, #12
 80058d8:	4630      	mov	r0, r6
 80058da:	6033      	str	r3, [r6, #0]
 80058dc:	f000 f80c 	bl	80058f8 <__malloc_unlock>
 80058e0:	e794      	b.n	800580c <_malloc_r+0x20>
 80058e2:	6005      	str	r5, [r0, #0]
 80058e4:	e7d6      	b.n	8005894 <_malloc_r+0xa8>
 80058e6:	bf00      	nop
 80058e8:	200014b4 	.word	0x200014b4

080058ec <__malloc_lock>:
 80058ec:	4801      	ldr	r0, [pc, #4]	@ (80058f4 <__malloc_lock+0x8>)
 80058ee:	f7ff b89a 	b.w	8004a26 <__retarget_lock_acquire_recursive>
 80058f2:	bf00      	nop
 80058f4:	200014ac 	.word	0x200014ac

080058f8 <__malloc_unlock>:
 80058f8:	4801      	ldr	r0, [pc, #4]	@ (8005900 <__malloc_unlock+0x8>)
 80058fa:	f7ff b895 	b.w	8004a28 <__retarget_lock_release_recursive>
 80058fe:	bf00      	nop
 8005900:	200014ac 	.word	0x200014ac

08005904 <_Balloc>:
 8005904:	b570      	push	{r4, r5, r6, lr}
 8005906:	69c6      	ldr	r6, [r0, #28]
 8005908:	4604      	mov	r4, r0
 800590a:	460d      	mov	r5, r1
 800590c:	b976      	cbnz	r6, 800592c <_Balloc+0x28>
 800590e:	2010      	movs	r0, #16
 8005910:	f7ff ff42 	bl	8005798 <malloc>
 8005914:	4602      	mov	r2, r0
 8005916:	61e0      	str	r0, [r4, #28]
 8005918:	b920      	cbnz	r0, 8005924 <_Balloc+0x20>
 800591a:	4b18      	ldr	r3, [pc, #96]	@ (800597c <_Balloc+0x78>)
 800591c:	216b      	movs	r1, #107	@ 0x6b
 800591e:	4818      	ldr	r0, [pc, #96]	@ (8005980 <_Balloc+0x7c>)
 8005920:	f000 fdae 	bl	8006480 <__assert_func>
 8005924:	e9c0 6601 	strd	r6, r6, [r0, #4]
 8005928:	6006      	str	r6, [r0, #0]
 800592a:	60c6      	str	r6, [r0, #12]
 800592c:	69e6      	ldr	r6, [r4, #28]
 800592e:	68f3      	ldr	r3, [r6, #12]
 8005930:	b183      	cbz	r3, 8005954 <_Balloc+0x50>
 8005932:	69e3      	ldr	r3, [r4, #28]
 8005934:	68db      	ldr	r3, [r3, #12]
 8005936:	f853 0025 	ldr.w	r0, [r3, r5, lsl #2]
 800593a:	b9b8      	cbnz	r0, 800596c <_Balloc+0x68>
 800593c:	2101      	movs	r1, #1
 800593e:	4620      	mov	r0, r4
 8005940:	fa01 f605 	lsl.w	r6, r1, r5
 8005944:	1d72      	adds	r2, r6, #5
 8005946:	0092      	lsls	r2, r2, #2
 8005948:	f000 fdb8 	bl	80064bc <_calloc_r>
 800594c:	b160      	cbz	r0, 8005968 <_Balloc+0x64>
 800594e:	e9c0 5601 	strd	r5, r6, [r0, #4]
 8005952:	e00e      	b.n	8005972 <_Balloc+0x6e>
 8005954:	2221      	movs	r2, #33	@ 0x21
 8005956:	2104      	movs	r1, #4
 8005958:	4620      	mov	r0, r4
 800595a:	f000 fdaf 	bl	80064bc <_calloc_r>
 800595e:	69e3      	ldr	r3, [r4, #28]
 8005960:	60f0      	str	r0, [r6, #12]
 8005962:	68db      	ldr	r3, [r3, #12]
 8005964:	2b00      	cmp	r3, #0
 8005966:	d1e4      	bne.n	8005932 <_Balloc+0x2e>
 8005968:	2000      	movs	r0, #0
 800596a:	bd70      	pop	{r4, r5, r6, pc}
 800596c:	6802      	ldr	r2, [r0, #0]
 800596e:	f843 2025 	str.w	r2, [r3, r5, lsl #2]
 8005972:	2300      	movs	r3, #0
 8005974:	e9c0 3303 	strd	r3, r3, [r0, #12]
 8005978:	e7f7      	b.n	800596a <_Balloc+0x66>
 800597a:	bf00      	nop
 800597c:	08006f09 	.word	0x08006f09
 8005980:	08006f89 	.word	0x08006f89

08005984 <_Bfree>:
 8005984:	b570      	push	{r4, r5, r6, lr}
 8005986:	69c6      	ldr	r6, [r0, #28]
 8005988:	4605      	mov	r5, r0
 800598a:	460c      	mov	r4, r1
 800598c:	b976      	cbnz	r6, 80059ac <_Bfree+0x28>
 800598e:	2010      	movs	r0, #16
 8005990:	f7ff ff02 	bl	8005798 <malloc>
 8005994:	4602      	mov	r2, r0
 8005996:	61e8      	str	r0, [r5, #28]
 8005998:	b920      	cbnz	r0, 80059a4 <_Bfree+0x20>
 800599a:	4b09      	ldr	r3, [pc, #36]	@ (80059c0 <_Bfree+0x3c>)
 800599c:	218f      	movs	r1, #143	@ 0x8f
 800599e:	4809      	ldr	r0, [pc, #36]	@ (80059c4 <_Bfree+0x40>)
 80059a0:	f000 fd6e 	bl	8006480 <__assert_func>
 80059a4:	e9c0 6601 	strd	r6, r6, [r0, #4]
 80059a8:	6006      	str	r6, [r0, #0]
 80059aa:	60c6      	str	r6, [r0, #12]
 80059ac:	b13c      	cbz	r4, 80059be <_Bfree+0x3a>
 80059ae:	69eb      	ldr	r3, [r5, #28]
 80059b0:	6862      	ldr	r2, [r4, #4]
 80059b2:	68db      	ldr	r3, [r3, #12]
 80059b4:	f853 1022 	ldr.w	r1, [r3, r2, lsl #2]
 80059b8:	6021      	str	r1, [r4, #0]
 80059ba:	f843 4022 	str.w	r4, [r3, r2, lsl #2]
 80059be:	bd70      	pop	{r4, r5, r6, pc}
 80059c0:	08006f09 	.word	0x08006f09
 80059c4:	08006f89 	.word	0x08006f89

080059c8 <__multadd>:
 80059c8:	e92d 41f0 	stmdb	sp!, {r4, r5, r6, r7, r8, lr}
 80059cc:	f101 0c14 	add.w	ip, r1, #20
 80059d0:	4607      	mov	r7, r0
 80059d2:	460c      	mov	r4, r1
 80059d4:	461e      	mov	r6, r3
 80059d6:	690d      	ldr	r5, [r1, #16]
 80059d8:	2000      	movs	r0, #0
 80059da:	f8dc 3000 	ldr.w	r3, [ip]
 80059de:	3001      	adds	r0, #1
 80059e0:	b299      	uxth	r1, r3
 80059e2:	4285      	cmp	r5, r0
 80059e4:	fb02 6101 	mla	r1, r2, r1, r6
 80059e8:	ea4f 4613 	mov.w	r6, r3, lsr #16
 80059ec:	ea4f 4311 	mov.w	r3, r1, lsr #16
 80059f0:	b289      	uxth	r1, r1
 80059f2:	fb02 3306 	mla	r3, r2, r6, r3
 80059f6:	eb01 4103 	add.w	r1, r1, r3, lsl #16
 80059fa:	ea4f 4613 	mov.w	r6, r3, lsr #16
 80059fe:	f84c 1b04 	str.w	r1, [ip], #4
 8005a02:	dcea      	bgt.n	80059da <__multadd+0x12>
 8005a04:	b30e      	cbz	r6, 8005a4a <__multadd+0x82>
 8005a06:	68a3      	ldr	r3, [r4, #8]
 8005a08:	42ab      	cmp	r3, r5
 8005a0a:	dc19      	bgt.n	8005a40 <__multadd+0x78>
 8005a0c:	6861      	ldr	r1, [r4, #4]
 8005a0e:	4638      	mov	r0, r7
 8005a10:	3101      	adds	r1, #1
 8005a12:	f7ff ff77 	bl	8005904 <_Balloc>
 8005a16:	4680      	mov	r8, r0
 8005a18:	b928      	cbnz	r0, 8005a26 <__multadd+0x5e>
 8005a1a:	4602      	mov	r2, r0
 8005a1c:	4b0c      	ldr	r3, [pc, #48]	@ (8005a50 <__multadd+0x88>)
 8005a1e:	21ba      	movs	r1, #186	@ 0xba
 8005a20:	480c      	ldr	r0, [pc, #48]	@ (8005a54 <__multadd+0x8c>)
 8005a22:	f000 fd2d 	bl	8006480 <__assert_func>
 8005a26:	6922      	ldr	r2, [r4, #16]
 8005a28:	f104 010c 	add.w	r1, r4, #12
 8005a2c:	300c      	adds	r0, #12
 8005a2e:	3202      	adds	r2, #2
 8005a30:	0092      	lsls	r2, r2, #2
 8005a32:	f000 fd17 	bl	8006464 <memcpy>
 8005a36:	4621      	mov	r1, r4
 8005a38:	4644      	mov	r4, r8
 8005a3a:	4638      	mov	r0, r7
 8005a3c:	f7ff ffa2 	bl	8005984 <_Bfree>
 8005a40:	eb04 0385 	add.w	r3, r4, r5, lsl #2
 8005a44:	3501      	adds	r5, #1
 8005a46:	615e      	str	r6, [r3, #20]
 8005a48:	6125      	str	r5, [r4, #16]
 8005a4a:	4620      	mov	r0, r4
 8005a4c:	e8bd 81f0 	ldmia.w	sp!, {r4, r5, r6, r7, r8, pc}
 8005a50:	08006f78 	.word	0x08006f78
 8005a54:	08006f89 	.word	0x08006f89

08005a58 <__hi0bits>:
 8005a58:	f5b0 3f80 	cmp.w	r0, #65536	@ 0x10000
 8005a5c:	4603      	mov	r3, r0
 8005a5e:	bf36      	itet	cc
 8005a60:	0403      	lslcc	r3, r0, #16
 8005a62:	2000      	movcs	r0, #0
 8005a64:	2010      	movcc	r0, #16
 8005a66:	f1b3 7f80 	cmp.w	r3, #16777216	@ 0x1000000
 8005a6a:	bf3c      	itt	cc
 8005a6c:	021b      	lslcc	r3, r3, #8
 8005a6e:	3008      	addcc	r0, #8
 8005a70:	f1b3 5f80 	cmp.w	r3, #268435456	@ 0x10000000
 8005a74:	bf3c      	itt	cc
 8005a76:	011b      	lslcc	r3, r3, #4
 8005a78:	3004      	addcc	r0, #4
 8005a7a:	f1b3 4f80 	cmp.w	r3, #1073741824	@ 0x40000000
 8005a7e:	bf3c      	itt	cc
 8005a80:	009b      	lslcc	r3, r3, #2
 8005a82:	3002      	addcc	r0, #2
 8005a84:	2b00      	cmp	r3, #0
 8005a86:	db05      	blt.n	8005a94 <__hi0bits+0x3c>
 8005a88:	f013 4f80 	tst.w	r3, #1073741824	@ 0x40000000
 8005a8c:	f100 0001 	add.w	r0, r0, #1
 8005a90:	bf08      	it	eq
 8005a92:	2020      	moveq	r0, #32
 8005a94:	4770      	bx	lr

08005a96 <__lo0bits>:
 8005a96:	6803      	ldr	r3, [r0, #0]
 8005a98:	4602      	mov	r2, r0
 8005a9a:	f013 0007 	ands.w	r0, r3, #7
 8005a9e:	d00b      	beq.n	8005ab8 <__lo0bits+0x22>
 8005aa0:	07d9      	lsls	r1, r3, #31
 8005aa2:	d421      	bmi.n	8005ae8 <__lo0bits+0x52>
 8005aa4:	0798      	lsls	r0, r3, #30
 8005aa6:	bf47      	ittee	mi
 8005aa8:	085b      	lsrmi	r3, r3, #1
 8005aaa:	2001      	movmi	r0, #1
 8005aac:	089b      	lsrpl	r3, r3, #2
 8005aae:	2002      	movpl	r0, #2
 8005ab0:	bf4c      	ite	mi
 8005ab2:	6013      	strmi	r3, [r2, #0]
 8005ab4:	6013      	strpl	r3, [r2, #0]
 8005ab6:	4770      	bx	lr
 8005ab8:	b299      	uxth	r1, r3
 8005aba:	b909      	cbnz	r1, 8005ac0 <__lo0bits+0x2a>
 8005abc:	0c1b      	lsrs	r3, r3, #16
 8005abe:	2010      	movs	r0, #16
 8005ac0:	b2d9      	uxtb	r1, r3
 8005ac2:	b909      	cbnz	r1, 8005ac8 <__lo0bits+0x32>
 8005ac4:	3008      	adds	r0, #8
 8005ac6:	0a1b      	lsrs	r3, r3, #8
 8005ac8:	0719      	lsls	r1, r3, #28
 8005aca:	bf04      	itt	eq
 8005acc:	091b      	lsreq	r3, r3, #4
 8005ace:	3004      	addeq	r0, #4
 8005ad0:	0799      	lsls	r1, r3, #30
 8005ad2:	bf04      	itt	eq
 8005ad4:	089b      	lsreq	r3, r3, #2
 8005ad6:	3002      	addeq	r0, #2
 8005ad8:	07d9      	lsls	r1, r3, #31
 8005ada:	d403      	bmi.n	8005ae4 <__lo0bits+0x4e>
 8005adc:	085b      	lsrs	r3, r3, #1
 8005ade:	f100 0001 	add.w	r0, r0, #1
 8005ae2:	d003      	beq.n	8005aec <__lo0bits+0x56>
 8005ae4:	6013      	str	r3, [r2, #0]
 8005ae6:	4770      	bx	lr
 8005ae8:	2000      	movs	r0, #0
 8005aea:	4770      	bx	lr
 8005aec:	2020      	movs	r0, #32
 8005aee:	4770      	bx	lr

08005af0 <__i2b>:
 8005af0:	b510      	push	{r4, lr}
 8005af2:	460c      	mov	r4, r1
 8005af4:	2101      	movs	r1, #1
 8005af6:	f7ff ff05 	bl	8005904 <_Balloc>
 8005afa:	4602      	mov	r2, r0
 8005afc:	b928      	cbnz	r0, 8005b0a <__i2b+0x1a>
 8005afe:	4b05      	ldr	r3, [pc, #20]	@ (8005b14 <__i2b+0x24>)
 8005b00:	f240 1145 	movw	r1, #325	@ 0x145
 8005b04:	4804      	ldr	r0, [pc, #16]	@ (8005b18 <__i2b+0x28>)
 8005b06:	f000 fcbb 	bl	8006480 <__assert_func>
 8005b0a:	2301      	movs	r3, #1
 8005b0c:	6144      	str	r4, [r0, #20]
 8005b0e:	6103      	str	r3, [r0, #16]
 8005b10:	bd10      	pop	{r4, pc}
 8005b12:	bf00      	nop
 8005b14:	08006f78 	.word	0x08006f78
 8005b18:	08006f89 	.word	0x08006f89

08005b1c <__multiply>:
 8005b1c:	e92d 4ff0 	stmdb	sp!, {r4, r5, r6, r7, r8, r9, sl, fp, lr}
 8005b20:	4617      	mov	r7, r2
 8005b22:	690a      	ldr	r2, [r1, #16]
 8005b24:	4689      	mov	r9, r1
 8005b26:	b085      	sub	sp, #20
 8005b28:	693b      	ldr	r3, [r7, #16]
 8005b2a:	429a      	cmp	r2, r3
 8005b2c:	bfa2      	ittt	ge
 8005b2e:	463b      	movge	r3, r7
 8005b30:	460f      	movge	r7, r1
 8005b32:	4699      	movge	r9, r3
 8005b34:	693d      	ldr	r5, [r7, #16]
 8005b36:	68bb      	ldr	r3, [r7, #8]
 8005b38:	f8d9 a010 	ldr.w	sl, [r9, #16]
 8005b3c:	6879      	ldr	r1, [r7, #4]
 8005b3e:	eb05 060a 	add.w	r6, r5, sl
 8005b42:	42b3      	cmp	r3, r6
 8005b44:	bfb8      	it	lt
 8005b46:	3101      	addlt	r1, #1
 8005b48:	f7ff fedc 	bl	8005904 <_Balloc>
 8005b4c:	b930      	cbnz	r0, 8005b5c <__multiply+0x40>
 8005b4e:	4602      	mov	r2, r0
 8005b50:	4b42      	ldr	r3, [pc, #264]	@ (8005c5c <__multiply+0x140>)
 8005b52:	f44f 71b1 	mov.w	r1, #354	@ 0x162
 8005b56:	4842      	ldr	r0, [pc, #264]	@ (8005c60 <__multiply+0x144>)
 8005b58:	f000 fc92 	bl	8006480 <__assert_func>
 8005b5c:	f100 0414 	add.w	r4, r0, #20
 8005b60:	2200      	movs	r2, #0
 8005b62:	eb04 0e86 	add.w	lr, r4, r6, lsl #2
 8005b66:	4623      	mov	r3, r4
 8005b68:	4573      	cmp	r3, lr
 8005b6a:	d320      	bcc.n	8005bae <__multiply+0x92>
 8005b6c:	f107 0814 	add.w	r8, r7, #20
 8005b70:	f109 0114 	add.w	r1, r9, #20
 8005b74:	eb08 0585 	add.w	r5, r8, r5, lsl #2
 8005b78:	eb01 038a 	add.w	r3, r1, sl, lsl #2
 8005b7c:	9302      	str	r3, [sp, #8]
 8005b7e:	1beb      	subs	r3, r5, r7
 8005b80:	3715      	adds	r7, #21
 8005b82:	3b15      	subs	r3, #21
 8005b84:	f023 0303 	bic.w	r3, r3, #3
 8005b88:	3304      	adds	r3, #4
 8005b8a:	42bd      	cmp	r5, r7
 8005b8c:	bf38      	it	cc
 8005b8e:	2304      	movcc	r3, #4
 8005b90:	9301      	str	r3, [sp, #4]
 8005b92:	9b02      	ldr	r3, [sp, #8]
 8005b94:	9103      	str	r1, [sp, #12]
 8005b96:	428b      	cmp	r3, r1
 8005b98:	d80c      	bhi.n	8005bb4 <__multiply+0x98>
 8005b9a:	2e00      	cmp	r6, #0
 8005b9c:	dd03      	ble.n	8005ba6 <__multiply+0x8a>
 8005b9e:	f85e 3d04 	ldr.w	r3, [lr, #-4]!
 8005ba2:	2b00      	cmp	r3, #0
 8005ba4:	d057      	beq.n	8005c56 <__multiply+0x13a>
 8005ba6:	6106      	str	r6, [r0, #16]
 8005ba8:	b005      	add	sp, #20
 8005baa:	e8bd 8ff0 	ldmia.w	sp!, {r4, r5, r6, r7, r8, r9, sl, fp, pc}
 8005bae:	f843 2b04 	str.w	r2, [r3], #4
 8005bb2:	e7d9      	b.n	8005b68 <__multiply+0x4c>
 8005bb4:	f8b1 a000 	ldrh.w	sl, [r1]
 8005bb8:	f1ba 0f00 	cmp.w	sl, #0
 8005bbc:	d021      	beq.n	8005c02 <__multiply+0xe6>
 8005bbe:	46c4      	mov	ip, r8
 8005bc0:	46a1      	mov	r9, r4
 8005bc2:	2700      	movs	r7, #0
 8005bc4:	f85c 2b04 	ldr.w	r2, [ip], #4
 8005bc8:	f8d9 3000 	ldr.w	r3, [r9]
 8005bcc:	fa1f fb82 	uxth.w	fp, r2
 8005bd0:	4565      	cmp	r5, ip
 8005bd2:	b29b      	uxth	r3, r3
 8005bd4:	ea4f 4212 	mov.w	r2, r2, lsr #16
 8005bd8:	fb0a 330b 	mla	r3, sl, fp, r3
 8005bdc:	443b      	add	r3, r7
 8005bde:	f8d9 7000 	ldr.w	r7, [r9]
 8005be2:	ea4f 4717 	mov.w	r7, r7, lsr #16
 8005be6:	fb0a 7202 	mla	r2, sl, r2, r7
 8005bea:	eb02 4213 	add.w	r2, r2, r3, lsr #16
 8005bee:	b29b      	uxth	r3, r3
 8005bf0:	ea4f 4712 	mov.w	r7, r2, lsr #16
 8005bf4:	ea43 4302 	orr.w	r3, r3, r2, lsl #16
 8005bf8:	f849 3b04 	str.w	r3, [r9], #4
 8005bfc:	d8e2      	bhi.n	8005bc4 <__multiply+0xa8>
 8005bfe:	9b01      	ldr	r3, [sp, #4]
 8005c00:	50e7      	str	r7, [r4, r3]
 8005c02:	9b03      	ldr	r3, [sp, #12]
 8005c04:	3104      	adds	r1, #4
 8005c06:	f8b3 9002 	ldrh.w	r9, [r3, #2]
 8005c0a:	f1b9 0f00 	cmp.w	r9, #0
 8005c0e:	d020      	beq.n	8005c52 <__multiply+0x136>
 8005c10:	6823      	ldr	r3, [r4, #0]
 8005c12:	4647      	mov	r7, r8
 8005c14:	46a4      	mov	ip, r4
 8005c16:	f04f 0a00 	mov.w	sl, #0
 8005c1a:	f8b7 b000 	ldrh.w	fp, [r7]
 8005c1e:	b29b      	uxth	r3, r3
 8005c20:	f8bc 2002 	ldrh.w	r2, [ip, #2]
 8005c24:	fb09 220b 	mla	r2, r9, fp, r2
 8005c28:	4452      	add	r2, sl
 8005c2a:	ea43 4302 	orr.w	r3, r3, r2, lsl #16
 8005c2e:	f84c 3b04 	str.w	r3, [ip], #4
 8005c32:	f857 3b04 	ldr.w	r3, [r7], #4
 8005c36:	ea4f 4a13 	mov.w	sl, r3, lsr #16
 8005c3a:	f8bc 3000 	ldrh.w	r3, [ip]
 8005c3e:	42bd      	cmp	r5, r7
 8005c40:	fb09 330a 	mla	r3, r9, sl, r3
 8005c44:	eb03 4312 	add.w	r3, r3, r2, lsr #16
 8005c48:	ea4f 4a13 	mov.w	sl, r3, lsr #16
 8005c4c:	d8e5      	bhi.n	8005c1a <__multiply+0xfe>
 8005c4e:	9a01      	ldr	r2, [sp, #4]
 8005c50:	50a3      	str	r3, [r4, r2]
 8005c52:	3404      	adds	r4, #4
 8005c54:	e79d      	b.n	8005b92 <__multiply+0x76>
 8005c56:	3e01      	subs	r6, #1
 8005c58:	e79f      	b.n	8005b9a <__multiply+0x7e>
 8005c5a:	bf00      	nop
 8005c5c:	08006f78 	.word	0x08006f78
 8005c60:	08006f89 	.word	0x08006f89

08005c64 <__pow5mult>:
 8005c64:	e92d 43f8 	stmdb	sp!, {r3, r4, r5, r6, r7, r8, r9, lr}
 8005c68:	4615      	mov	r5, r2
 8005c6a:	f012 0203 	ands.w	r2, r2, #3
 8005c6e:	4607      	mov	r7, r0
 8005c70:	460e      	mov	r6, r1
 8005c72:	d007      	beq.n	8005c84 <__pow5mult+0x20>
 8005c74:	3a01      	subs	r2, #1
 8005c76:	4c25      	ldr	r4, [pc, #148]	@ (8005d0c <__pow5mult+0xa8>)
 8005c78:	2300      	movs	r3, #0
 8005c7a:	f854 2022 	ldr.w	r2, [r4, r2, lsl #2]
 8005c7e:	f7ff fea3 	bl	80059c8 <__multadd>
 8005c82:	4606      	mov	r6, r0
 8005c84:	10ad      	asrs	r5, r5, #2
 8005c86:	d03d      	beq.n	8005d04 <__pow5mult+0xa0>
 8005c88:	69fc      	ldr	r4, [r7, #28]
 8005c8a:	b97c      	cbnz	r4, 8005cac <__pow5mult+0x48>
 8005c8c:	2010      	movs	r0, #16
 8005c8e:	f7ff fd83 	bl	8005798 <malloc>
 8005c92:	4602      	mov	r2, r0
 8005c94:	61f8      	str	r0, [r7, #28]
 8005c96:	b928      	cbnz	r0, 8005ca4 <__pow5mult+0x40>
 8005c98:	4b1d      	ldr	r3, [pc, #116]	@ (8005d10 <__pow5mult+0xac>)
 8005c9a:	f240 11b3 	movw	r1, #435	@ 0x1b3
 8005c9e:	481d      	ldr	r0, [pc, #116]	@ (8005d14 <__pow5mult+0xb0>)
 8005ca0:	f000 fbee 	bl	8006480 <__assert_func>
 8005ca4:	e9c0 4401 	strd	r4, r4, [r0, #4]
 8005ca8:	6004      	str	r4, [r0, #0]
 8005caa:	60c4      	str	r4, [r0, #12]
 8005cac:	f8d7 801c 	ldr.w	r8, [r7, #28]
 8005cb0:	f8d8 4008 	ldr.w	r4, [r8, #8]
 8005cb4:	b94c      	cbnz	r4, 8005cca <__pow5mult+0x66>
 8005cb6:	f240 2171 	movw	r1, #625	@ 0x271
 8005cba:	4638      	mov	r0, r7
 8005cbc:	f7ff ff18 	bl	8005af0 <__i2b>
 8005cc0:	2300      	movs	r3, #0
 8005cc2:	4604      	mov	r4, r0
 8005cc4:	f8c8 0008 	str.w	r0, [r8, #8]
 8005cc8:	6003      	str	r3, [r0, #0]
 8005cca:	f04f 0900 	mov.w	r9, #0
 8005cce:	07eb      	lsls	r3, r5, #31
 8005cd0:	d50a      	bpl.n	8005ce8 <__pow5mult+0x84>
 8005cd2:	4631      	mov	r1, r6
 8005cd4:	4622      	mov	r2, r4
 8005cd6:	4638      	mov	r0, r7
 8005cd8:	f7ff ff20 	bl	8005b1c <__multiply>
 8005cdc:	4680      	mov	r8, r0
 8005cde:	4631      	mov	r1, r6
 8005ce0:	4638      	mov	r0, r7
 8005ce2:	4646      	mov	r6, r8
 8005ce4:	f7ff fe4e 	bl	8005984 <_Bfree>
 8005ce8:	106d      	asrs	r5, r5, #1
 8005cea:	d00b      	beq.n	8005d04 <__pow5mult+0xa0>
 8005cec:	6820      	ldr	r0, [r4, #0]
 8005cee:	b938      	cbnz	r0, 8005d00 <__pow5mult+0x9c>
 8005cf0:	4622      	mov	r2, r4
 8005cf2:	4621      	mov	r1, r4
 8005cf4:	4638      	mov	r0, r7
 8005cf6:	f7ff ff11 	bl	8005b1c <__multiply>
 8005cfa:	6020      	str	r0, [r4, #0]
 8005cfc:	f8c0 9000 	str.w	r9, [r0]
 8005d00:	4604      	mov	r4, r0
 8005d02:	e7e4      	b.n	8005cce <__pow5mult+0x6a>
 8005d04:	4630      	mov	r0, r6
 8005d06:	e8bd 83f8 	ldmia.w	sp!, {r3, r4, r5, r6, r7, r8, r9, pc}
 8005d0a:	bf00      	nop
 8005d0c:	0800703c 	.word	0x0800703c
 8005d10:	08006f09 	.word	0x08006f09
 8005d14:	08006f89 	.word	0x08006f89

08005d18 <__lshift>:
 8005d18:	e92d 47f0 	stmdb	sp!, {r4, r5, r6, r7, r8, r9, sl, lr}
 8005d1c:	460c      	mov	r4, r1
 8005d1e:	4607      	mov	r7, r0
 8005d20:	4691      	mov	r9, r2
 8005d22:	ea4f 1a62 	mov.w	sl, r2, asr #5
 8005d26:	6923      	ldr	r3, [r4, #16]
 8005d28:	6849      	ldr	r1, [r1, #4]
 8005d2a:	eb03 1862 	add.w	r8, r3, r2, asr #5
 8005d2e:	68a3      	ldr	r3, [r4, #8]
 8005d30:	f108 0601 	add.w	r6, r8, #1
 8005d34:	42b3      	cmp	r3, r6
 8005d36:	db0b      	blt.n	8005d50 <__lshift+0x38>
 8005d38:	4638      	mov	r0, r7
 8005d3a:	f7ff fde3 	bl	8005904 <_Balloc>
 8005d3e:	4605      	mov	r5, r0
 8005d40:	b948      	cbnz	r0, 8005d56 <__lshift+0x3e>
 8005d42:	4602      	mov	r2, r0
 8005d44:	4b28      	ldr	r3, [pc, #160]	@ (8005de8 <__lshift+0xd0>)
 8005d46:	f44f 71ef 	mov.w	r1, #478	@ 0x1de
 8005d4a:	4828      	ldr	r0, [pc, #160]	@ (8005dec <__lshift+0xd4>)
 8005d4c:	f000 fb98 	bl	8006480 <__assert_func>
 8005d50:	3101      	adds	r1, #1
 8005d52:	005b      	lsls	r3, r3, #1
 8005d54:	e7ee      	b.n	8005d34 <__lshift+0x1c>
 8005d56:	2300      	movs	r3, #0
 8005d58:	f100 0114 	add.w	r1, r0, #20
 8005d5c:	f100 0210 	add.w	r2, r0, #16
 8005d60:	4618      	mov	r0, r3
 8005d62:	4553      	cmp	r3, sl
 8005d64:	db33      	blt.n	8005dce <__lshift+0xb6>
 8005d66:	ea2a 7aea 	bic.w	sl, sl, sl, asr #31
 8005d6a:	f104 0314 	add.w	r3, r4, #20
 8005d6e:	6920      	ldr	r0, [r4, #16]
 8005d70:	f019 091f 	ands.w	r9, r9, #31
 8005d74:	eb01 018a 	add.w	r1, r1, sl, lsl #2
 8005d78:	eb03 0c80 	add.w	ip, r3, r0, lsl #2
 8005d7c:	d02b      	beq.n	8005dd6 <__lshift+0xbe>
 8005d7e:	f1c9 0e20 	rsb	lr, r9, #32
 8005d82:	468a      	mov	sl, r1
 8005d84:	2200      	movs	r2, #0
 8005d86:	6818      	ldr	r0, [r3, #0]
 8005d88:	fa00 f009 	lsl.w	r0, r0, r9
 8005d8c:	4310      	orrs	r0, r2
 8005d8e:	f84a 0b04 	str.w	r0, [sl], #4
 8005d92:	f853 2b04 	ldr.w	r2, [r3], #4
 8005d96:	459c      	cmp	ip, r3
 8005d98:	fa22 f20e 	lsr.w	r2, r2, lr
 8005d9c:	d8f3      	bhi.n	8005d86 <__lshift+0x6e>
 8005d9e:	ebac 0304 	sub.w	r3, ip, r4
 8005da2:	f104 0015 	add.w	r0, r4, #21
 8005da6:	3b15      	subs	r3, #21
 8005da8:	f023 0303 	bic.w	r3, r3, #3
 8005dac:	3304      	adds	r3, #4
 8005dae:	4560      	cmp	r0, ip
 8005db0:	bf88      	it	hi
 8005db2:	2304      	movhi	r3, #4
 8005db4:	50ca      	str	r2, [r1, r3]
 8005db6:	b10a      	cbz	r2, 8005dbc <__lshift+0xa4>
 8005db8:	f108 0602 	add.w	r6, r8, #2
 8005dbc:	3e01      	subs	r6, #1
 8005dbe:	4638      	mov	r0, r7
 8005dc0:	4621      	mov	r1, r4
 8005dc2:	612e      	str	r6, [r5, #16]
 8005dc4:	f7ff fdde 	bl	8005984 <_Bfree>
 8005dc8:	4628      	mov	r0, r5
 8005dca:	e8bd 87f0 	ldmia.w	sp!, {r4, r5, r6, r7, r8, r9, sl, pc}
 8005dce:	3301      	adds	r3, #1
 8005dd0:	f842 0f04 	str.w	r0, [r2, #4]!
 8005dd4:	e7c5      	b.n	8005d62 <__lshift+0x4a>
 8005dd6:	3904      	subs	r1, #4
 8005dd8:	f853 2b04 	ldr.w	r2, [r3], #4
 8005ddc:	459c      	cmp	ip, r3
 8005dde:	f841 2f04 	str.w	r2, [r1, #4]!
 8005de2:	d8f9      	bhi.n	8005dd8 <__lshift+0xc0>
 8005de4:	e7ea      	b.n	8005dbc <__lshift+0xa4>
 8005de6:	bf00      	nop
 8005de8:	08006f78 	.word	0x08006f78
 8005dec:	08006f89 	.word	0x08006f89

08005df0 <__mcmp>:
 8005df0:	4603      	mov	r3, r0
 8005df2:	690a      	ldr	r2, [r1, #16]
 8005df4:	6900      	ldr	r0, [r0, #16]
 8005df6:	1a80      	subs	r0, r0, r2
 8005df8:	b530      	push	{r4, r5, lr}
 8005dfa:	d10e      	bne.n	8005e1a <__mcmp+0x2a>
 8005dfc:	3314      	adds	r3, #20
 8005dfe:	3114      	adds	r1, #20
 8005e00:	eb03 0482 	add.w	r4, r3, r2, lsl #2
 8005e04:	eb01 0182 	add.w	r1, r1, r2, lsl #2
 8005e08:	f854 5d04 	ldr.w	r5, [r4, #-4]!
 8005e0c:	f851 2d04 	ldr.w	r2, [r1, #-4]!
 8005e10:	4295      	cmp	r5, r2
 8005e12:	d003      	beq.n	8005e1c <__mcmp+0x2c>
 8005e14:	d205      	bcs.n	8005e22 <__mcmp+0x32>
 8005e16:	f04f 30ff 	mov.w	r0, #4294967295
 8005e1a:	bd30      	pop	{r4, r5, pc}
 8005e1c:	42a3      	cmp	r3, r4
 8005e1e:	d3f3      	bcc.n	8005e08 <__mcmp+0x18>
 8005e20:	e7fb      	b.n	8005e1a <__mcmp+0x2a>
 8005e22:	2001      	movs	r0, #1
 8005e24:	e7f9      	b.n	8005e1a <__mcmp+0x2a>
	...

08005e28 <__mdiff>:
 8005e28:	e92d 4ff7 	stmdb	sp!, {r0, r1, r2, r4, r5, r6, r7, r8, r9, sl, fp, lr}
 8005e2c:	4689      	mov	r9, r1
 8005e2e:	4606      	mov	r6, r0
 8005e30:	4611      	mov	r1, r2
 8005e32:	4614      	mov	r4, r2
 8005e34:	4648      	mov	r0, r9
 8005e36:	f7ff ffdb 	bl	8005df0 <__mcmp>
 8005e3a:	1e05      	subs	r5, r0, #0
 8005e3c:	d112      	bne.n	8005e64 <__mdiff+0x3c>
 8005e3e:	4629      	mov	r1, r5
 8005e40:	4630      	mov	r0, r6
 8005e42:	f7ff fd5f 	bl	8005904 <_Balloc>
 8005e46:	4602      	mov	r2, r0
 8005e48:	b928      	cbnz	r0, 8005e56 <__mdiff+0x2e>
 8005e4a:	4b41      	ldr	r3, [pc, #260]	@ (8005f50 <__mdiff+0x128>)
 8005e4c:	f240 2137 	movw	r1, #567	@ 0x237
 8005e50:	4840      	ldr	r0, [pc, #256]	@ (8005f54 <__mdiff+0x12c>)
 8005e52:	f000 fb15 	bl	8006480 <__assert_func>
 8005e56:	2301      	movs	r3, #1
 8005e58:	e9c0 3504 	strd	r3, r5, [r0, #16]
 8005e5c:	4610      	mov	r0, r2
 8005e5e:	b003      	add	sp, #12
 8005e60:	e8bd 8ff0 	ldmia.w	sp!, {r4, r5, r6, r7, r8, r9, sl, fp, pc}
 8005e64:	bfbc      	itt	lt
 8005e66:	464b      	movlt	r3, r9
 8005e68:	46a1      	movlt	r9, r4
 8005e6a:	4630      	mov	r0, r6
 8005e6c:	bfb8      	it	lt
 8005e6e:	2501      	movlt	r5, #1
 8005e70:	f8d9 1004 	ldr.w	r1, [r9, #4]
 8005e74:	bfb4      	ite	lt
 8005e76:	461c      	movlt	r4, r3
 8005e78:	2500      	movge	r5, #0
 8005e7a:	f7ff fd43 	bl	8005904 <_Balloc>
 8005e7e:	4602      	mov	r2, r0
 8005e80:	b918      	cbnz	r0, 8005e8a <__mdiff+0x62>
 8005e82:	4b33      	ldr	r3, [pc, #204]	@ (8005f50 <__mdiff+0x128>)
 8005e84:	f240 2145 	movw	r1, #581	@ 0x245
 8005e88:	e7e2      	b.n	8005e50 <__mdiff+0x28>
 8005e8a:	f8d9 7010 	ldr.w	r7, [r9, #16]
 8005e8e:	f104 0e14 	add.w	lr, r4, #20
 8005e92:	6926      	ldr	r6, [r4, #16]
 8005e94:	f100 0b14 	add.w	fp, r0, #20
 8005e98:	60c5      	str	r5, [r0, #12]
 8005e9a:	f109 0514 	add.w	r5, r9, #20
 8005e9e:	f109 0310 	add.w	r3, r9, #16
 8005ea2:	eb0e 0686 	add.w	r6, lr, r6, lsl #2
 8005ea6:	eb05 0887 	add.w	r8, r5, r7, lsl #2
 8005eaa:	46d9      	mov	r9, fp
 8005eac:	f04f 0c00 	mov.w	ip, #0
 8005eb0:	9301      	str	r3, [sp, #4]
 8005eb2:	9b01      	ldr	r3, [sp, #4]
 8005eb4:	f85e 0b04 	ldr.w	r0, [lr], #4
 8005eb8:	f853 af04 	ldr.w	sl, [r3, #4]!
 8005ebc:	4576      	cmp	r6, lr
 8005ebe:	9301      	str	r3, [sp, #4]
 8005ec0:	fa1f f38a 	uxth.w	r3, sl
 8005ec4:	4619      	mov	r1, r3
 8005ec6:	b283      	uxth	r3, r0
 8005ec8:	ea4f 4010 	mov.w	r0, r0, lsr #16
 8005ecc:	eba1 0303 	sub.w	r3, r1, r3
 8005ed0:	ebc0 401a 	rsb	r0, r0, sl, lsr #16
 8005ed4:	4463      	add	r3, ip
 8005ed6:	eb00 4023 	add.w	r0, r0, r3, asr #16
 8005eda:	b29b      	uxth	r3, r3
 8005edc:	ea4f 4c20 	mov.w	ip, r0, asr #16
 8005ee0:	ea43 4300 	orr.w	r3, r3, r0, lsl #16
 8005ee4:	f849 3b04 	str.w	r3, [r9], #4
 8005ee8:	d8e3      	bhi.n	8005eb2 <__mdiff+0x8a>
 8005eea:	1b33      	subs	r3, r6, r4
 8005eec:	3415      	adds	r4, #21
 8005eee:	3b15      	subs	r3, #21
 8005ef0:	f023 0303 	bic.w	r3, r3, #3
 8005ef4:	3304      	adds	r3, #4
 8005ef6:	42a6      	cmp	r6, r4
 8005ef8:	bf38      	it	cc
 8005efa:	2304      	movcc	r3, #4
 8005efc:	441d      	add	r5, r3
 8005efe:	445b      	add	r3, fp
 8005f00:	462c      	mov	r4, r5
 8005f02:	461e      	mov	r6, r3
 8005f04:	4544      	cmp	r4, r8
 8005f06:	d30e      	bcc.n	8005f26 <__mdiff+0xfe>
 8005f08:	f108 0103 	add.w	r1, r8, #3
 8005f0c:	1b49      	subs	r1, r1, r5
 8005f0e:	3d03      	subs	r5, #3
 8005f10:	f021 0103 	bic.w	r1, r1, #3
 8005f14:	45a8      	cmp	r8, r5
 8005f16:	bf38      	it	cc
 8005f18:	2100      	movcc	r1, #0
 8005f1a:	440b      	add	r3, r1
 8005f1c:	f853 1d04 	ldr.w	r1, [r3, #-4]!
 8005f20:	b199      	cbz	r1, 8005f4a <__mdiff+0x122>
 8005f22:	6117      	str	r7, [r2, #16]
 8005f24:	e79a      	b.n	8005e5c <__mdiff+0x34>
 8005f26:	f854 1b04 	ldr.w	r1, [r4], #4
 8005f2a:	46e6      	mov	lr, ip
 8005f2c:	fa1f fc81 	uxth.w	ip, r1
 8005f30:	0c08      	lsrs	r0, r1, #16
 8005f32:	4471      	add	r1, lr
 8005f34:	44f4      	add	ip, lr
 8005f36:	b289      	uxth	r1, r1
 8005f38:	eb00 402c 	add.w	r0, r0, ip, asr #16
 8005f3c:	ea41 4100 	orr.w	r1, r1, r0, lsl #16
 8005f40:	ea4f 4c20 	mov.w	ip, r0, asr #16
 8005f44:	f846 1b04 	str.w	r1, [r6], #4
 8005f48:	e7dc      	b.n	8005f04 <__mdiff+0xdc>
 8005f4a:	3f01      	subs	r7, #1
 8005f4c:	e7e6      	b.n	8005f1c <__mdiff+0xf4>
 8005f4e:	bf00      	nop
 8005f50:	08006f78 	.word	0x08006f78
 8005f54:	08006f89 	.word	0x08006f89

08005f58 <__d2b>:
 8005f58:	e92d 43f7 	stmdb	sp!, {r0, r1, r2, r4, r5, r6, r7, r8, r9, lr}
 8005f5c:	460f      	mov	r7, r1
 8005f5e:	2101      	movs	r1, #1
 8005f60:	4616      	mov	r6, r2
 8005f62:	ec59 8b10 	vmov	r8, r9, d0
 8005f66:	f7ff fccd 	bl	8005904 <_Balloc>
 8005f6a:	4604      	mov	r4, r0
 8005f6c:	b930      	cbnz	r0, 8005f7c <__d2b+0x24>
 8005f6e:	4602      	mov	r2, r0
 8005f70:	4b23      	ldr	r3, [pc, #140]	@ (8006000 <__d2b+0xa8>)
 8005f72:	f240 310f 	movw	r1, #783	@ 0x30f
 8005f76:	4823      	ldr	r0, [pc, #140]	@ (8006004 <__d2b+0xac>)
 8005f78:	f000 fa82 	bl	8006480 <__assert_func>
 8005f7c:	f3c9 550a 	ubfx	r5, r9, #20, #11
 8005f80:	f3c9 0313 	ubfx	r3, r9, #0, #20
 8005f84:	b10d      	cbz	r5, 8005f8a <__d2b+0x32>
 8005f86:	f443 1380 	orr.w	r3, r3, #1048576	@ 0x100000
 8005f8a:	9301      	str	r3, [sp, #4]
 8005f8c:	f1b8 0300 	subs.w	r3, r8, #0
 8005f90:	d023      	beq.n	8005fda <__d2b+0x82>
 8005f92:	4668      	mov	r0, sp
 8005f94:	9300      	str	r3, [sp, #0]
 8005f96:	f7ff fd7e 	bl	8005a96 <__lo0bits>
 8005f9a:	e9dd 1200 	ldrd	r1, r2, [sp]
 8005f9e:	b1d0      	cbz	r0, 8005fd6 <__d2b+0x7e>
 8005fa0:	f1c0 0320 	rsb	r3, r0, #32
 8005fa4:	fa02 f303 	lsl.w	r3, r2, r3
 8005fa8:	40c2      	lsrs	r2, r0
 8005faa:	430b      	orrs	r3, r1
 8005fac:	9201      	str	r2, [sp, #4]
 8005fae:	6163      	str	r3, [r4, #20]
 8005fb0:	9b01      	ldr	r3, [sp, #4]
 8005fb2:	2b00      	cmp	r3, #0
 8005fb4:	61a3      	str	r3, [r4, #24]
 8005fb6:	bf0c      	ite	eq
 8005fb8:	2201      	moveq	r2, #1
 8005fba:	2202      	movne	r2, #2
 8005fbc:	6122      	str	r2, [r4, #16]
 8005fbe:	b1a5      	cbz	r5, 8005fea <__d2b+0x92>
 8005fc0:	f2a5 4533 	subw	r5, r5, #1075	@ 0x433
 8005fc4:	4405      	add	r5, r0
 8005fc6:	f1c0 0035 	rsb	r0, r0, #53	@ 0x35
 8005fca:	603d      	str	r5, [r7, #0]
 8005fcc:	6030      	str	r0, [r6, #0]
 8005fce:	4620      	mov	r0, r4
 8005fd0:	b003      	add	sp, #12
 8005fd2:	e8bd 83f0 	ldmia.w	sp!, {r4, r5, r6, r7, r8, r9, pc}
 8005fd6:	6161      	str	r1, [r4, #20]
 8005fd8:	e7ea      	b.n	8005fb0 <__d2b+0x58>
 8005fda:	a801      	add	r0, sp, #4
 8005fdc:	f7ff fd5b 	bl	8005a96 <__lo0bits>
 8005fe0:	9b01      	ldr	r3, [sp, #4]
 8005fe2:	3020      	adds	r0, #32
 8005fe4:	2201      	movs	r2, #1
 8005fe6:	6163      	str	r3, [r4, #20]
 8005fe8:	e7e8      	b.n	8005fbc <__d2b+0x64>
 8005fea:	f2a0 4032 	subw	r0, r0, #1074	@ 0x432
 8005fee:	eb04 0382 	add.w	r3, r4, r2, lsl #2
 8005ff2:	6038      	str	r0, [r7, #0]
 8005ff4:	6918      	ldr	r0, [r3, #16]
 8005ff6:	f7ff fd2f 	bl	8005a58 <__hi0bits>
 8005ffa:	ebc0 1042 	rsb	r0, r0, r2, lsl #5
 8005ffe:	e7e5      	b.n	8005fcc <__d2b+0x74>
 8006000:	08006f78 	.word	0x08006f78
 8006004:	08006f89 	.word	0x08006f89

08006008 <__ssputs_r>:
 8006008:	e92d 47f0 	stmdb	sp!, {r4, r5, r6, r7, r8, r9, sl, lr}
 800600c:	461f      	mov	r7, r3
 800600e:	688e      	ldr	r6, [r1, #8]
 8006010:	4682      	mov	sl, r0
 8006012:	460c      	mov	r4, r1
 8006014:	42be      	cmp	r6, r7
 8006016:	4690      	mov	r8, r2
 8006018:	680b      	ldr	r3, [r1, #0]
 800601a:	d82d      	bhi.n	8006078 <__ssputs_r+0x70>
 800601c:	f9b1 200c 	ldrsh.w	r2, [r1, #12]
 8006020:	f412 6f90 	tst.w	r2, #1152	@ 0x480
 8006024:	d026      	beq.n	8006074 <__ssputs_r+0x6c>
 8006026:	6965      	ldr	r5, [r4, #20]
 8006028:	6909      	ldr	r1, [r1, #16]
 800602a:	eb05 0545 	add.w	r5, r5, r5, lsl #1
 800602e:	eba3 0901 	sub.w	r9, r3, r1
 8006032:	1c7b      	adds	r3, r7, #1
 8006034:	eb05 75d5 	add.w	r5, r5, r5, lsr #31
 8006038:	444b      	add	r3, r9
 800603a:	106d      	asrs	r5, r5, #1
 800603c:	429d      	cmp	r5, r3
 800603e:	bf38      	it	cc
 8006040:	461d      	movcc	r5, r3
 8006042:	0553      	lsls	r3, r2, #21
 8006044:	d527      	bpl.n	8006096 <__ssputs_r+0x8e>
 8006046:	4629      	mov	r1, r5
 8006048:	f7ff fbd0 	bl	80057ec <_malloc_r>
 800604c:	4606      	mov	r6, r0
 800604e:	b360      	cbz	r0, 80060aa <__ssputs_r+0xa2>
 8006050:	464a      	mov	r2, r9
 8006052:	6921      	ldr	r1, [r4, #16]
 8006054:	f000 fa06 	bl	8006464 <memcpy>
 8006058:	89a3      	ldrh	r3, [r4, #12]
 800605a:	f423 6390 	bic.w	r3, r3, #1152	@ 0x480
 800605e:	f043 0380 	orr.w	r3, r3, #128	@ 0x80
 8006062:	81a3      	strh	r3, [r4, #12]
 8006064:	6126      	str	r6, [r4, #16]
 8006066:	444e      	add	r6, r9
 8006068:	6165      	str	r5, [r4, #20]
 800606a:	eba5 0509 	sub.w	r5, r5, r9
 800606e:	6026      	str	r6, [r4, #0]
 8006070:	463e      	mov	r6, r7
 8006072:	60a5      	str	r5, [r4, #8]
 8006074:	42be      	cmp	r6, r7
 8006076:	d900      	bls.n	800607a <__ssputs_r+0x72>
 8006078:	463e      	mov	r6, r7
 800607a:	4632      	mov	r2, r6
 800607c:	4641      	mov	r1, r8
 800607e:	6820      	ldr	r0, [r4, #0]
 8006080:	f000 f9c6 	bl	8006410 <memmove>
 8006084:	68a3      	ldr	r3, [r4, #8]
 8006086:	2000      	movs	r0, #0
 8006088:	1b9b      	subs	r3, r3, r6
 800608a:	60a3      	str	r3, [r4, #8]
 800608c:	6823      	ldr	r3, [r4, #0]
 800608e:	4433      	add	r3, r6
 8006090:	6023      	str	r3, [r4, #0]
 8006092:	e8bd 87f0 	ldmia.w	sp!, {r4, r5, r6, r7, r8, r9, sl, pc}
 8006096:	462a      	mov	r2, r5
 8006098:	f000 fa36 	bl	8006508 <_realloc_r>
 800609c:	4606      	mov	r6, r0
 800609e:	2800      	cmp	r0, #0
 80060a0:	d1e0      	bne.n	8006064 <__ssputs_r+0x5c>
 80060a2:	6921      	ldr	r1, [r4, #16]
 80060a4:	4650      	mov	r0, sl
 80060a6:	f7ff fb2d 	bl	8005704 <_free_r>
 80060aa:	230c      	movs	r3, #12
 80060ac:	f04f 30ff 	mov.w	r0, #4294967295
 80060b0:	f8ca 3000 	str.w	r3, [sl]
 80060b4:	89a3      	ldrh	r3, [r4, #12]
 80060b6:	f043 0340 	orr.w	r3, r3, #64	@ 0x40
 80060ba:	81a3      	strh	r3, [r4, #12]
 80060bc:	e7e9      	b.n	8006092 <__ssputs_r+0x8a>
	...

080060c0 <_svfiprintf_r>:
 80060c0:	e92d 4ff0 	stmdb	sp!, {r4, r5, r6, r7, r8, r9, sl, fp, lr}
 80060c4:	4698      	mov	r8, r3
 80060c6:	898b      	ldrh	r3, [r1, #12]
 80060c8:	b09d      	sub	sp, #116	@ 0x74
 80060ca:	4607      	mov	r7, r0
 80060cc:	061b      	lsls	r3, r3, #24
 80060ce:	460d      	mov	r5, r1
 80060d0:	4614      	mov	r4, r2
 80060d2:	d510      	bpl.n	80060f6 <_svfiprintf_r+0x36>
 80060d4:	690b      	ldr	r3, [r1, #16]
 80060d6:	b973      	cbnz	r3, 80060f6 <_svfiprintf_r+0x36>
 80060d8:	2140      	movs	r1, #64	@ 0x40
 80060da:	f7ff fb87 	bl	80057ec <_malloc_r>
 80060de:	6028      	str	r0, [r5, #0]
 80060e0:	6128      	str	r0, [r5, #16]
 80060e2:	b930      	cbnz	r0, 80060f2 <_svfiprintf_r+0x32>
 80060e4:	230c      	movs	r3, #12
 80060e6:	603b      	str	r3, [r7, #0]
 80060e8:	f04f 30ff 	mov.w	r0, #4294967295
 80060ec:	b01d      	add	sp, #116	@ 0x74
 80060ee:	e8bd 8ff0 	ldmia.w	sp!, {r4, r5, r6, r7, r8, r9, sl, fp, pc}
 80060f2:	2340      	movs	r3, #64	@ 0x40
 80060f4:	616b      	str	r3, [r5, #20]
 80060f6:	2300      	movs	r3, #0
 80060f8:	f8cd 800c 	str.w	r8, [sp, #12]
 80060fc:	f04f 0901 	mov.w	r9, #1
 8006100:	f8df 81a0 	ldr.w	r8, [pc, #416]	@ 80062a4 <_svfiprintf_r+0x1e4>
 8006104:	9309      	str	r3, [sp, #36]	@ 0x24
 8006106:	2320      	movs	r3, #32
 8006108:	f88d 3029 	strb.w	r3, [sp, #41]	@ 0x29
 800610c:	2330      	movs	r3, #48	@ 0x30
 800610e:	f88d 302a 	strb.w	r3, [sp, #42]	@ 0x2a
 8006112:	4623      	mov	r3, r4
 8006114:	469a      	mov	sl, r3
 8006116:	f813 2b01 	ldrb.w	r2, [r3], #1
 800611a:	b10a      	cbz	r2, 8006120 <_svfiprintf_r+0x60>
 800611c:	2a25      	cmp	r2, #37	@ 0x25
 800611e:	d1f9      	bne.n	8006114 <_svfiprintf_r+0x54>
 8006120:	ebba 0b04 	subs.w	fp, sl, r4
 8006124:	d00b      	beq.n	800613e <_svfiprintf_r+0x7e>
 8006126:	465b      	mov	r3, fp
 8006128:	4622      	mov	r2, r4
 800612a:	4629      	mov	r1, r5
 800612c:	4638      	mov	r0, r7
 800612e:	f7ff ff6b 	bl	8006008 <__ssputs_r>
 8006132:	3001      	adds	r0, #1
 8006134:	f000 80a7 	beq.w	8006286 <_svfiprintf_r+0x1c6>
 8006138:	9a09      	ldr	r2, [sp, #36]	@ 0x24
 800613a:	445a      	add	r2, fp
 800613c:	9209      	str	r2, [sp, #36]	@ 0x24
 800613e:	f89a 3000 	ldrb.w	r3, [sl]
 8006142:	2b00      	cmp	r3, #0
 8006144:	f000 809f 	beq.w	8006286 <_svfiprintf_r+0x1c6>
 8006148:	2300      	movs	r3, #0
 800614a:	f04f 32ff 	mov.w	r2, #4294967295
 800614e:	f10a 0a01 	add.w	sl, sl, #1
 8006152:	9304      	str	r3, [sp, #16]
 8006154:	9307      	str	r3, [sp, #28]
 8006156:	f88d 3053 	strb.w	r3, [sp, #83]	@ 0x53
 800615a:	931a      	str	r3, [sp, #104]	@ 0x68
 800615c:	e9cd 2305 	strd	r2, r3, [sp, #20]
 8006160:	4654      	mov	r4, sl
 8006162:	2205      	movs	r2, #5
 8006164:	484f      	ldr	r0, [pc, #316]	@ (80062a4 <_svfiprintf_r+0x1e4>)
 8006166:	f814 1b01 	ldrb.w	r1, [r4], #1
 800616a:	f7fe fc5e 	bl	8004a2a <memchr>
 800616e:	9a04      	ldr	r2, [sp, #16]
 8006170:	b9d8      	cbnz	r0, 80061aa <_svfiprintf_r+0xea>
 8006172:	06d0      	lsls	r0, r2, #27
 8006174:	bf44      	itt	mi
 8006176:	2320      	movmi	r3, #32
 8006178:	f88d 3053 	strbmi.w	r3, [sp, #83]	@ 0x53
 800617c:	0711      	lsls	r1, r2, #28
 800617e:	bf44      	itt	mi
 8006180:	232b      	movmi	r3, #43	@ 0x2b
 8006182:	f88d 3053 	strbmi.w	r3, [sp, #83]	@ 0x53
 8006186:	f89a 3000 	ldrb.w	r3, [sl]
 800618a:	2b2a      	cmp	r3, #42	@ 0x2a
 800618c:	d015      	beq.n	80061ba <_svfiprintf_r+0xfa>
 800618e:	9a07      	ldr	r2, [sp, #28]
 8006190:	4654      	mov	r4, sl
 8006192:	2000      	movs	r0, #0
 8006194:	f04f 0c0a 	mov.w	ip, #10
 8006198:	4621      	mov	r1, r4
 800619a:	f811 3b01 	ldrb.w	r3, [r1], #1
 800619e:	3b30      	subs	r3, #48	@ 0x30
 80061a0:	2b09      	cmp	r3, #9
 80061a2:	d94b      	bls.n	800623c <_svfiprintf_r+0x17c>
 80061a4:	b1b0      	cbz	r0, 80061d4 <_svfiprintf_r+0x114>
 80061a6:	9207      	str	r2, [sp, #28]
 80061a8:	e014      	b.n	80061d4 <_svfiprintf_r+0x114>
 80061aa:	eba0 0308 	sub.w	r3, r0, r8
 80061ae:	46a2      	mov	sl, r4
 80061b0:	fa09 f303 	lsl.w	r3, r9, r3
 80061b4:	4313      	orrs	r3, r2
 80061b6:	9304      	str	r3, [sp, #16]
 80061b8:	e7d2      	b.n	8006160 <_svfiprintf_r+0xa0>
 80061ba:	9b03      	ldr	r3, [sp, #12]
 80061bc:	1d19      	adds	r1, r3, #4
 80061be:	681b      	ldr	r3, [r3, #0]
 80061c0:	2b00      	cmp	r3, #0
 80061c2:	9103      	str	r1, [sp, #12]
 80061c4:	bfbb      	ittet	lt
 80061c6:	425b      	neglt	r3, r3
 80061c8:	f042 0202 	orrlt.w	r2, r2, #2
 80061cc:	9307      	strge	r3, [sp, #28]
 80061ce:	9307      	strlt	r3, [sp, #28]
 80061d0:	bfb8      	it	lt
 80061d2:	9204      	strlt	r2, [sp, #16]
 80061d4:	7823      	ldrb	r3, [r4, #0]
 80061d6:	2b2e      	cmp	r3, #46	@ 0x2e
 80061d8:	d10a      	bne.n	80061f0 <_svfiprintf_r+0x130>
 80061da:	7863      	ldrb	r3, [r4, #1]
 80061dc:	2b2a      	cmp	r3, #42	@ 0x2a
 80061de:	d132      	bne.n	8006246 <_svfiprintf_r+0x186>
 80061e0:	9b03      	ldr	r3, [sp, #12]
 80061e2:	3402      	adds	r4, #2
 80061e4:	1d1a      	adds	r2, r3, #4
 80061e6:	681b      	ldr	r3, [r3, #0]
 80061e8:	ea43 73e3 	orr.w	r3, r3, r3, asr #31
 80061ec:	9203      	str	r2, [sp, #12]
 80061ee:	9305      	str	r3, [sp, #20]
 80061f0:	f8df a0c0 	ldr.w	sl, [pc, #192]	@ 80062b4 <_svfiprintf_r+0x1f4>
 80061f4:	2203      	movs	r2, #3
 80061f6:	7821      	ldrb	r1, [r4, #0]
 80061f8:	4650      	mov	r0, sl
 80061fa:	f7fe fc16 	bl	8004a2a <memchr>
 80061fe:	b138      	cbz	r0, 8006210 <_svfiprintf_r+0x150>
 8006200:	eba0 000a 	sub.w	r0, r0, sl
 8006204:	2240      	movs	r2, #64	@ 0x40
 8006206:	9b04      	ldr	r3, [sp, #16]
 8006208:	3401      	adds	r4, #1
 800620a:	4082      	lsls	r2, r0
 800620c:	4313      	orrs	r3, r2
 800620e:	9304      	str	r3, [sp, #16]
 8006210:	f814 1b01 	ldrb.w	r1, [r4], #1
 8006214:	2206      	movs	r2, #6
 8006216:	4824      	ldr	r0, [pc, #144]	@ (80062a8 <_svfiprintf_r+0x1e8>)
 8006218:	f88d 1028 	strb.w	r1, [sp, #40]	@ 0x28
 800621c:	f7fe fc05 	bl	8004a2a <memchr>
 8006220:	2800      	cmp	r0, #0
 8006222:	d036      	beq.n	8006292 <_svfiprintf_r+0x1d2>
 8006224:	4b21      	ldr	r3, [pc, #132]	@ (80062ac <_svfiprintf_r+0x1ec>)
 8006226:	bb1b      	cbnz	r3, 8006270 <_svfiprintf_r+0x1b0>
 8006228:	9b03      	ldr	r3, [sp, #12]
 800622a:	3307      	adds	r3, #7
 800622c:	f023 0307 	bic.w	r3, r3, #7
 8006230:	3308      	adds	r3, #8
 8006232:	9303      	str	r3, [sp, #12]
 8006234:	9b09      	ldr	r3, [sp, #36]	@ 0x24
 8006236:	4433      	add	r3, r6
 8006238:	9309      	str	r3, [sp, #36]	@ 0x24
 800623a:	e76a      	b.n	8006112 <_svfiprintf_r+0x52>
 800623c:	fb0c 3202 	mla	r2, ip, r2, r3
 8006240:	460c      	mov	r4, r1
 8006242:	2001      	movs	r0, #1
 8006244:	e7a8      	b.n	8006198 <_svfiprintf_r+0xd8>
 8006246:	2300      	movs	r3, #0
 8006248:	3401      	adds	r4, #1
 800624a:	f04f 0c0a 	mov.w	ip, #10
 800624e:	4619      	mov	r1, r3
 8006250:	9305      	str	r3, [sp, #20]
 8006252:	4620      	mov	r0, r4
 8006254:	f810 2b01 	ldrb.w	r2, [r0], #1
 8006258:	3a30      	subs	r2, #48	@ 0x30
 800625a:	2a09      	cmp	r2, #9
 800625c:	d903      	bls.n	8006266 <_svfiprintf_r+0x1a6>
 800625e:	2b00      	cmp	r3, #0
 8006260:	d0c6      	beq.n	80061f0 <_svfiprintf_r+0x130>
 8006262:	9105      	str	r1, [sp, #20]
 8006264:	e7c4      	b.n	80061f0 <_svfiprintf_r+0x130>
 8006266:	fb0c 2101 	mla	r1, ip, r1, r2
 800626a:	4604      	mov	r4, r0
 800626c:	2301      	movs	r3, #1
 800626e:	e7f0      	b.n	8006252 <_svfiprintf_r+0x192>
 8006270:	ab03      	add	r3, sp, #12
 8006272:	462a      	mov	r2, r5
 8006274:	a904      	add	r1, sp, #16
 8006276:	4638      	mov	r0, r7
 8006278:	9300      	str	r3, [sp, #0]
 800627a:	4b0d      	ldr	r3, [pc, #52]	@ (80062b0 <_svfiprintf_r+0x1f0>)
 800627c:	f7fd fe76 	bl	8003f6c <_printf_float>
 8006280:	1c42      	adds	r2, r0, #1
 8006282:	4606      	mov	r6, r0
 8006284:	d1d6      	bne.n	8006234 <_svfiprintf_r+0x174>
 8006286:	89ab      	ldrh	r3, [r5, #12]
 8006288:	065b      	lsls	r3, r3, #25
 800628a:	f53f af2d 	bmi.w	80060e8 <_svfiprintf_r+0x28>
 800628e:	9809      	ldr	r0, [sp, #36]	@ 0x24
 8006290:	e72c      	b.n	80060ec <_svfiprintf_r+0x2c>
 8006292:	ab03      	add	r3, sp, #12
 8006294:	462a      	mov	r2, r5
 8006296:	a904      	add	r1, sp, #16
 8006298:	4638      	mov	r0, r7
 800629a:	9300      	str	r3, [sp, #0]
 800629c:	4b04      	ldr	r3, [pc, #16]	@ (80062b0 <_svfiprintf_r+0x1f0>)
 800629e:	f7fe f901 	bl	80044a4 <_printf_i>
 80062a2:	e7ed      	b.n	8006280 <_svfiprintf_r+0x1c0>
 80062a4:	08006fe2 	.word	0x08006fe2
 80062a8:	08006fec 	.word	0x08006fec
 80062ac:	08003f6d 	.word	0x08003f6d
 80062b0:	08006009 	.word	0x08006009
 80062b4:	08006fe8 	.word	0x08006fe8

080062b8 <__sflush_r>:
 80062b8:	f9b1 200c 	ldrsh.w	r2, [r1, #12]
 80062bc:	e92d 41f0 	stmdb	sp!, {r4, r5, r6, r7, r8, lr}
 80062c0:	0716      	lsls	r6, r2, #28
 80062c2:	4605      	mov	r5, r0
 80062c4:	460c      	mov	r4, r1
 80062c6:	d454      	bmi.n	8006372 <__sflush_r+0xba>
 80062c8:	684b      	ldr	r3, [r1, #4]
 80062ca:	2b00      	cmp	r3, #0
 80062cc:	dc02      	bgt.n	80062d4 <__sflush_r+0x1c>
 80062ce:	6c0b      	ldr	r3, [r1, #64]	@ 0x40
 80062d0:	2b00      	cmp	r3, #0
 80062d2:	dd48      	ble.n	8006366 <__sflush_r+0xae>
 80062d4:	6ae6      	ldr	r6, [r4, #44]	@ 0x2c
 80062d6:	2e00      	cmp	r6, #0
 80062d8:	d045      	beq.n	8006366 <__sflush_r+0xae>
 80062da:	2300      	movs	r3, #0
 80062dc:	f412 5280 	ands.w	r2, r2, #4096	@ 0x1000
 80062e0:	682f      	ldr	r7, [r5, #0]
 80062e2:	6a21      	ldr	r1, [r4, #32]
 80062e4:	602b      	str	r3, [r5, #0]
 80062e6:	d030      	beq.n	800634a <__sflush_r+0x92>
 80062e8:	6d62      	ldr	r2, [r4, #84]	@ 0x54
 80062ea:	89a3      	ldrh	r3, [r4, #12]
 80062ec:	0759      	lsls	r1, r3, #29
 80062ee:	d505      	bpl.n	80062fc <__sflush_r+0x44>
 80062f0:	6863      	ldr	r3, [r4, #4]
 80062f2:	1ad2      	subs	r2, r2, r3
 80062f4:	6b63      	ldr	r3, [r4, #52]	@ 0x34
 80062f6:	b10b      	cbz	r3, 80062fc <__sflush_r+0x44>
 80062f8:	6c23      	ldr	r3, [r4, #64]	@ 0x40
 80062fa:	1ad2      	subs	r2, r2, r3
 80062fc:	2300      	movs	r3, #0
 80062fe:	6ae6      	ldr	r6, [r4, #44]	@ 0x2c
 8006300:	6a21      	ldr	r1, [r4, #32]
 8006302:	4628      	mov	r0, r5
 8006304:	47b0      	blx	r6
 8006306:	1c43      	adds	r3, r0, #1
 8006308:	89a3      	ldrh	r3, [r4, #12]
 800630a:	d106      	bne.n	800631a <__sflush_r+0x62>
 800630c:	6829      	ldr	r1, [r5, #0]
 800630e:	291d      	cmp	r1, #29
 8006310:	d82b      	bhi.n	800636a <__sflush_r+0xb2>
 8006312:	4a2a      	ldr	r2, [pc, #168]	@ (80063bc <__sflush_r+0x104>)
 8006314:	40ca      	lsrs	r2, r1
 8006316:	07d6      	lsls	r6, r2, #31
 8006318:	d527      	bpl.n	800636a <__sflush_r+0xb2>
 800631a:	2200      	movs	r2, #0
 800631c:	04d9      	lsls	r1, r3, #19
 800631e:	6062      	str	r2, [r4, #4]
 8006320:	6922      	ldr	r2, [r4, #16]
 8006322:	6022      	str	r2, [r4, #0]
 8006324:	d504      	bpl.n	8006330 <__sflush_r+0x78>
 8006326:	1c42      	adds	r2, r0, #1
 8006328:	d101      	bne.n	800632e <__sflush_r+0x76>
 800632a:	682b      	ldr	r3, [r5, #0]
 800632c:	b903      	cbnz	r3, 8006330 <__sflush_r+0x78>
 800632e:	6560      	str	r0, [r4, #84]	@ 0x54
 8006330:	6b61      	ldr	r1, [r4, #52]	@ 0x34
 8006332:	602f      	str	r7, [r5, #0]
 8006334:	b1b9      	cbz	r1, 8006366 <__sflush_r+0xae>
 8006336:	f104 0344 	add.w	r3, r4, #68	@ 0x44
 800633a:	4299      	cmp	r1, r3
 800633c:	d002      	beq.n	8006344 <__sflush_r+0x8c>
 800633e:	4628      	mov	r0, r5
 8006340:	f7ff f9e0 	bl	8005704 <_free_r>
 8006344:	2300      	movs	r3, #0
 8006346:	6363      	str	r3, [r4, #52]	@ 0x34
 8006348:	e00d      	b.n	8006366 <__sflush_r+0xae>
 800634a:	2301      	movs	r3, #1
 800634c:	4628      	mov	r0, r5
 800634e:	47b0      	blx	r6
 8006350:	4602      	mov	r2, r0
 8006352:	1c50      	adds	r0, r2, #1
 8006354:	d1c9      	bne.n	80062ea <__sflush_r+0x32>
 8006356:	682b      	ldr	r3, [r5, #0]
 8006358:	2b00      	cmp	r3, #0
 800635a:	d0c6      	beq.n	80062ea <__sflush_r+0x32>
 800635c:	2b1d      	cmp	r3, #29
 800635e:	d001      	beq.n	8006364 <__sflush_r+0xac>
 8006360:	2b16      	cmp	r3, #22
 8006362:	d11d      	bne.n	80063a0 <__sflush_r+0xe8>
 8006364:	602f      	str	r7, [r5, #0]
 8006366:	2000      	movs	r0, #0
 8006368:	e021      	b.n	80063ae <__sflush_r+0xf6>
 800636a:	f043 0340 	orr.w	r3, r3, #64	@ 0x40
 800636e:	b21b      	sxth	r3, r3
 8006370:	e01a      	b.n	80063a8 <__sflush_r+0xf0>
 8006372:	690f      	ldr	r7, [r1, #16]
 8006374:	2f00      	cmp	r7, #0
 8006376:	d0f6      	beq.n	8006366 <__sflush_r+0xae>
 8006378:	0793      	lsls	r3, r2, #30
 800637a:	680e      	ldr	r6, [r1, #0]
 800637c:	600f      	str	r7, [r1, #0]
 800637e:	bf0c      	ite	eq
 8006380:	694b      	ldreq	r3, [r1, #20]
 8006382:	2300      	movne	r3, #0
 8006384:	eba6 0807 	sub.w	r8, r6, r7
 8006388:	608b      	str	r3, [r1, #8]
 800638a:	f1b8 0f00 	cmp.w	r8, #0
 800638e:	ddea      	ble.n	8006366 <__sflush_r+0xae>
 8006390:	4643      	mov	r3, r8
 8006392:	463a      	mov	r2, r7
 8006394:	6a21      	ldr	r1, [r4, #32]
 8006396:	4628      	mov	r0, r5
 8006398:	6aa6      	ldr	r6, [r4, #40]	@ 0x28
 800639a:	47b0      	blx	r6
 800639c:	2800      	cmp	r0, #0
 800639e:	dc08      	bgt.n	80063b2 <__sflush_r+0xfa>
 80063a0:	f9b4 300c 	ldrsh.w	r3, [r4, #12]
 80063a4:	f043 0340 	orr.w	r3, r3, #64	@ 0x40
 80063a8:	f04f 30ff 	mov.w	r0, #4294967295
 80063ac:	81a3      	strh	r3, [r4, #12]
 80063ae:	e8bd 81f0 	ldmia.w	sp!, {r4, r5, r6, r7, r8, pc}
 80063b2:	4407      	add	r7, r0
 80063b4:	eba8 0800 	sub.w	r8, r8, r0
 80063b8:	e7e7      	b.n	800638a <__sflush_r+0xd2>
 80063ba:	bf00      	nop
 80063bc:	20400001 	.word	0x20400001

080063c0 <_fflush_r>:
 80063c0:	b538      	push	{r3, r4, r5, lr}
 80063c2:	690b      	ldr	r3, [r1, #16]
 80063c4:	4605      	mov	r5, r0
 80063c6:	460c      	mov	r4, r1
 80063c8:	b913      	cbnz	r3, 80063d0 <_fflush_r+0x10>
 80063ca:	2500      	movs	r5, #0
 80063cc:	4628      	mov	r0, r5
 80063ce:	bd38      	pop	{r3, r4, r5, pc}
 80063d0:	b118      	cbz	r0, 80063da <_fflush_r+0x1a>
 80063d2:	6a03      	ldr	r3, [r0, #32]
 80063d4:	b90b      	cbnz	r3, 80063da <_fflush_r+0x1a>
 80063d6:	f7fe fa0f 	bl	80047f8 <__sinit>
 80063da:	f9b4 300c 	ldrsh.w	r3, [r4, #12]
 80063de:	2b00      	cmp	r3, #0
 80063e0:	d0f3      	beq.n	80063ca <_fflush_r+0xa>
 80063e2:	6e62      	ldr	r2, [r4, #100]	@ 0x64
 80063e4:	07d0      	lsls	r0, r2, #31
 80063e6:	d404      	bmi.n	80063f2 <_fflush_r+0x32>
 80063e8:	0599      	lsls	r1, r3, #22
 80063ea:	d402      	bmi.n	80063f2 <_fflush_r+0x32>
 80063ec:	6da0      	ldr	r0, [r4, #88]	@ 0x58
 80063ee:	f7fe fb1a 	bl	8004a26 <__retarget_lock_acquire_recursive>
 80063f2:	4628      	mov	r0, r5
 80063f4:	4621      	mov	r1, r4
 80063f6:	f7ff ff5f 	bl	80062b8 <__sflush_r>
 80063fa:	6e63      	ldr	r3, [r4, #100]	@ 0x64
 80063fc:	4605      	mov	r5, r0
 80063fe:	07da      	lsls	r2, r3, #31
 8006400:	d4e4      	bmi.n	80063cc <_fflush_r+0xc>
 8006402:	89a3      	ldrh	r3, [r4, #12]
 8006404:	059b      	lsls	r3, r3, #22
 8006406:	d4e1      	bmi.n	80063cc <_fflush_r+0xc>
 8006408:	6da0      	ldr	r0, [r4, #88]	@ 0x58
 800640a:	f7fe fb0d 	bl	8004a28 <__retarget_lock_release_recursive>
 800640e:	e7dd      	b.n	80063cc <_fflush_r+0xc>

08006410 <memmove>:
 8006410:	4288      	cmp	r0, r1
 8006412:	b510      	push	{r4, lr}
 8006414:	eb01 0402 	add.w	r4, r1, r2
 8006418:	d902      	bls.n	8006420 <memmove+0x10>
 800641a:	4284      	cmp	r4, r0
 800641c:	4623      	mov	r3, r4
 800641e:	d807      	bhi.n	8006430 <memmove+0x20>
 8006420:	1e43      	subs	r3, r0, #1
 8006422:	42a1      	cmp	r1, r4
 8006424:	d008      	beq.n	8006438 <memmove+0x28>
 8006426:	f811 2b01 	ldrb.w	r2, [r1], #1
 800642a:	f803 2f01 	strb.w	r2, [r3, #1]!
 800642e:	e7f8      	b.n	8006422 <memmove+0x12>
 8006430:	4402      	add	r2, r0
 8006432:	4601      	mov	r1, r0
 8006434:	428a      	cmp	r2, r1
 8006436:	d100      	bne.n	800643a <memmove+0x2a>
 8006438:	bd10      	pop	{r4, pc}
 800643a:	f813 4d01 	ldrb.w	r4, [r3, #-1]!
 800643e:	f802 4d01 	strb.w	r4, [r2, #-1]!
 8006442:	e7f7      	b.n	8006434 <memmove+0x24>

08006444 <_sbrk_r>:
 8006444:	b538      	push	{r3, r4, r5, lr}
 8006446:	2300      	movs	r3, #0
 8006448:	4d05      	ldr	r5, [pc, #20]	@ (8006460 <_sbrk_r+0x1c>)
 800644a:	4604      	mov	r4, r0
 800644c:	4608      	mov	r0, r1
 800644e:	602b      	str	r3, [r5, #0]
 8006450:	f7fb fe28 	bl	80020a4 <_sbrk>
 8006454:	1c43      	adds	r3, r0, #1
 8006456:	d102      	bne.n	800645e <_sbrk_r+0x1a>
 8006458:	682b      	ldr	r3, [r5, #0]
 800645a:	b103      	cbz	r3, 800645e <_sbrk_r+0x1a>
 800645c:	6023      	str	r3, [r4, #0]
 800645e:	bd38      	pop	{r3, r4, r5, pc}
 8006460:	200014a8 	.word	0x200014a8

08006464 <memcpy>:
 8006464:	440a      	add	r2, r1
 8006466:	1e43      	subs	r3, r0, #1
 8006468:	4291      	cmp	r1, r2
 800646a:	d100      	bne.n	800646e <memcpy+0xa>
 800646c:	4770      	bx	lr
 800646e:	b510      	push	{r4, lr}
 8006470:	f811 4b01 	ldrb.w	r4, [r1], #1
 8006474:	4291      	cmp	r1, r2
 8006476:	f803 4f01 	strb.w	r4, [r3, #1]!
 800647a:	d1f9      	bne.n	8006470 <memcpy+0xc>
 800647c:	bd10      	pop	{r4, pc}
	...

08006480 <__assert_func>:
 8006480:	b51f      	push	{r0, r1, r2, r3, r4, lr}
 8006482:	4614      	mov	r4, r2
 8006484:	461a      	mov	r2, r3
 8006486:	4b09      	ldr	r3, [pc, #36]	@ (80064ac <__assert_func+0x2c>)
 8006488:	4605      	mov	r5, r0
 800648a:	681b      	ldr	r3, [r3, #0]
 800648c:	68d8      	ldr	r0, [r3, #12]
 800648e:	b14c      	cbz	r4, 80064a4 <__assert_func+0x24>
 8006490:	4b07      	ldr	r3, [pc, #28]	@ (80064b0 <__assert_func+0x30>)
 8006492:	9100      	str	r1, [sp, #0]
 8006494:	4907      	ldr	r1, [pc, #28]	@ (80064b4 <__assert_func+0x34>)
 8006496:	e9cd 3401 	strd	r3, r4, [sp, #4]
 800649a:	462b      	mov	r3, r5
 800649c:	f000 f870 	bl	8006580 <fiprintf>
 80064a0:	f000 f880 	bl	80065a4 <abort>
 80064a4:	4b04      	ldr	r3, [pc, #16]	@ (80064b8 <__assert_func+0x38>)
 80064a6:	461c      	mov	r4, r3
 80064a8:	e7f3      	b.n	8006492 <__assert_func+0x12>
 80064aa:	bf00      	nop
 80064ac:	20000010 	.word	0x20000010
 80064b0:	08006ffd 	.word	0x08006ffd
 80064b4:	0800700a 	.word	0x0800700a
 80064b8:	08007038 	.word	0x08007038

080064bc <_calloc_r>:
 80064bc:	b570      	push	{r4, r5, r6, lr}
 80064be:	fba1 5402 	umull	r5, r4, r1, r2
 80064c2:	b934      	cbnz	r4, 80064d2 <_calloc_r+0x16>
 80064c4:	4629      	mov	r1, r5
 80064c6:	f7ff f991 	bl	80057ec <_malloc_r>
 80064ca:	4606      	mov	r6, r0
 80064cc:	b928      	cbnz	r0, 80064da <_calloc_r+0x1e>
 80064ce:	4630      	mov	r0, r6
 80064d0:	bd70      	pop	{r4, r5, r6, pc}
 80064d2:	220c      	movs	r2, #12
 80064d4:	2600      	movs	r6, #0
 80064d6:	6002      	str	r2, [r0, #0]
 80064d8:	e7f9      	b.n	80064ce <_calloc_r+0x12>
 80064da:	462a      	mov	r2, r5
 80064dc:	4621      	mov	r1, r4
 80064de:	f7fe fa25 	bl	800492c <memset>
 80064e2:	e7f4      	b.n	80064ce <_calloc_r+0x12>

080064e4 <__ascii_mbtowc>:
 80064e4:	b082      	sub	sp, #8
 80064e6:	b901      	cbnz	r1, 80064ea <__ascii_mbtowc+0x6>
 80064e8:	a901      	add	r1, sp, #4
 80064ea:	b142      	cbz	r2, 80064fe <__ascii_mbtowc+0x1a>
 80064ec:	b14b      	cbz	r3, 8006502 <__ascii_mbtowc+0x1e>
 80064ee:	7813      	ldrb	r3, [r2, #0]
 80064f0:	600b      	str	r3, [r1, #0]
 80064f2:	7812      	ldrb	r2, [r2, #0]
 80064f4:	1e10      	subs	r0, r2, #0
 80064f6:	bf18      	it	ne
 80064f8:	2001      	movne	r0, #1
 80064fa:	b002      	add	sp, #8
 80064fc:	4770      	bx	lr
 80064fe:	4610      	mov	r0, r2
 8006500:	e7fb      	b.n	80064fa <__ascii_mbtowc+0x16>
 8006502:	f06f 0001 	mvn.w	r0, #1
 8006506:	e7f8      	b.n	80064fa <__ascii_mbtowc+0x16>

08006508 <_realloc_r>:
 8006508:	e92d 41f0 	stmdb	sp!, {r4, r5, r6, r7, r8, lr}
 800650c:	4607      	mov	r7, r0
 800650e:	4614      	mov	r4, r2
 8006510:	460d      	mov	r5, r1
 8006512:	b921      	cbnz	r1, 800651e <_realloc_r+0x16>
 8006514:	4611      	mov	r1, r2
 8006516:	e8bd 41f0 	ldmia.w	sp!, {r4, r5, r6, r7, r8, lr}
 800651a:	f7ff b967 	b.w	80057ec <_malloc_r>
 800651e:	b92a      	cbnz	r2, 800652c <_realloc_r+0x24>
 8006520:	4625      	mov	r5, r4
 8006522:	f7ff f8ef 	bl	8005704 <_free_r>
 8006526:	4628      	mov	r0, r5
 8006528:	e8bd 81f0 	ldmia.w	sp!, {r4, r5, r6, r7, r8, pc}
 800652c:	f000 f841 	bl	80065b2 <_malloc_usable_size_r>
 8006530:	4284      	cmp	r4, r0
 8006532:	4606      	mov	r6, r0
 8006534:	d802      	bhi.n	800653c <_realloc_r+0x34>
 8006536:	ebb4 0f50 	cmp.w	r4, r0, lsr #1
 800653a:	d8f4      	bhi.n	8006526 <_realloc_r+0x1e>
 800653c:	4621      	mov	r1, r4
 800653e:	4638      	mov	r0, r7
 8006540:	f7ff f954 	bl	80057ec <_malloc_r>
 8006544:	4680      	mov	r8, r0
 8006546:	b908      	cbnz	r0, 800654c <_realloc_r+0x44>
 8006548:	4645      	mov	r5, r8
 800654a:	e7ec      	b.n	8006526 <_realloc_r+0x1e>
 800654c:	42b4      	cmp	r4, r6
 800654e:	4622      	mov	r2, r4
 8006550:	4629      	mov	r1, r5
 8006552:	bf28      	it	cs
 8006554:	4632      	movcs	r2, r6
 8006556:	f7ff ff85 	bl	8006464 <memcpy>
 800655a:	4629      	mov	r1, r5
 800655c:	4638      	mov	r0, r7
 800655e:	f7ff f8d1 	bl	8005704 <_free_r>
 8006562:	e7f1      	b.n	8006548 <_realloc_r+0x40>

08006564 <__ascii_wctomb>:
 8006564:	4603      	mov	r3, r0
 8006566:	4608      	mov	r0, r1
 8006568:	b141      	cbz	r1, 800657c <__ascii_wctomb+0x18>
 800656a:	2aff      	cmp	r2, #255	@ 0xff
 800656c:	d904      	bls.n	8006578 <__ascii_wctomb+0x14>
 800656e:	228a      	movs	r2, #138	@ 0x8a
 8006570:	f04f 30ff 	mov.w	r0, #4294967295
 8006574:	601a      	str	r2, [r3, #0]
 8006576:	4770      	bx	lr
 8006578:	2001      	movs	r0, #1
 800657a:	700a      	strb	r2, [r1, #0]
 800657c:	4770      	bx	lr
	...

08006580 <fiprintf>:
 8006580:	b40e      	push	{r1, r2, r3}
 8006582:	b503      	push	{r0, r1, lr}
 8006584:	ab03      	add	r3, sp, #12
 8006586:	4601      	mov	r1, r0
 8006588:	4805      	ldr	r0, [pc, #20]	@ (80065a0 <fiprintf+0x20>)
 800658a:	f853 2b04 	ldr.w	r2, [r3], #4
 800658e:	6800      	ldr	r0, [r0, #0]
 8006590:	9301      	str	r3, [sp, #4]
 8006592:	f000 f83f 	bl	8006614 <_vfiprintf_r>
 8006596:	b002      	add	sp, #8
 8006598:	f85d eb04 	ldr.w	lr, [sp], #4
 800659c:	b003      	add	sp, #12
 800659e:	4770      	bx	lr
 80065a0:	20000010 	.word	0x20000010

080065a4 <abort>:
 80065a4:	2006      	movs	r0, #6
 80065a6:	b508      	push	{r3, lr}
 80065a8:	f000 fa08 	bl	80069bc <raise>
 80065ac:	2001      	movs	r0, #1
 80065ae:	f7fb fd01 	bl	8001fb4 <_exit>

080065b2 <_malloc_usable_size_r>:
 80065b2:	f851 3c04 	ldr.w	r3, [r1, #-4]
 80065b6:	1f18      	subs	r0, r3, #4
 80065b8:	2b00      	cmp	r3, #0
 80065ba:	bfbc      	itt	lt
 80065bc:	580b      	ldrlt	r3, [r1, r0]
 80065be:	18c0      	addlt	r0, r0, r3
 80065c0:	4770      	bx	lr

080065c2 <__sfputc_r>:
 80065c2:	6893      	ldr	r3, [r2, #8]
 80065c4:	3b01      	subs	r3, #1
 80065c6:	2b00      	cmp	r3, #0
 80065c8:	b410      	push	{r4}
 80065ca:	6093      	str	r3, [r2, #8]
 80065cc:	da08      	bge.n	80065e0 <__sfputc_r+0x1e>
 80065ce:	6994      	ldr	r4, [r2, #24]
 80065d0:	42a3      	cmp	r3, r4
 80065d2:	db01      	blt.n	80065d8 <__sfputc_r+0x16>
 80065d4:	290a      	cmp	r1, #10
 80065d6:	d103      	bne.n	80065e0 <__sfputc_r+0x1e>
 80065d8:	f85d 4b04 	ldr.w	r4, [sp], #4
 80065dc:	f000 b932 	b.w	8006844 <__swbuf_r>
 80065e0:	6813      	ldr	r3, [r2, #0]
 80065e2:	1c58      	adds	r0, r3, #1
 80065e4:	6010      	str	r0, [r2, #0]
 80065e6:	4608      	mov	r0, r1
 80065e8:	7019      	strb	r1, [r3, #0]
 80065ea:	f85d 4b04 	ldr.w	r4, [sp], #4
 80065ee:	4770      	bx	lr

080065f0 <__sfputs_r>:
 80065f0:	b5f8      	push	{r3, r4, r5, r6, r7, lr}
 80065f2:	4606      	mov	r6, r0
 80065f4:	460f      	mov	r7, r1
 80065f6:	4614      	mov	r4, r2
 80065f8:	18d5      	adds	r5, r2, r3
 80065fa:	42ac      	cmp	r4, r5
 80065fc:	d101      	bne.n	8006602 <__sfputs_r+0x12>
 80065fe:	2000      	movs	r0, #0
 8006600:	e007      	b.n	8006612 <__sfputs_r+0x22>
 8006602:	463a      	mov	r2, r7
 8006604:	f814 1b01 	ldrb.w	r1, [r4], #1
 8006608:	4630      	mov	r0, r6
 800660a:	f7ff ffda 	bl	80065c2 <__sfputc_r>
 800660e:	1c43      	adds	r3, r0, #1
 8006610:	d1f3      	bne.n	80065fa <__sfputs_r+0xa>
 8006612:	bdf8      	pop	{r3, r4, r5, r6, r7, pc}

08006614 <_vfiprintf_r>:
 8006614:	e92d 4ff0 	stmdb	sp!, {r4, r5, r6, r7, r8, r9, sl, fp, lr}
 8006618:	460d      	mov	r5, r1
 800661a:	b09d      	sub	sp, #116	@ 0x74
 800661c:	4614      	mov	r4, r2
 800661e:	4698      	mov	r8, r3
 8006620:	4606      	mov	r6, r0
 8006622:	b118      	cbz	r0, 800662c <_vfiprintf_r+0x18>
 8006624:	6a03      	ldr	r3, [r0, #32]
 8006626:	b90b      	cbnz	r3, 800662c <_vfiprintf_r+0x18>
 8006628:	f7fe f8e6 	bl	80047f8 <__sinit>
 800662c:	6e6b      	ldr	r3, [r5, #100]	@ 0x64
 800662e:	07d9      	lsls	r1, r3, #31
 8006630:	d405      	bmi.n	800663e <_vfiprintf_r+0x2a>
 8006632:	89ab      	ldrh	r3, [r5, #12]
 8006634:	059a      	lsls	r2, r3, #22
 8006636:	d402      	bmi.n	800663e <_vfiprintf_r+0x2a>
 8006638:	6da8      	ldr	r0, [r5, #88]	@ 0x58
 800663a:	f7fe f9f4 	bl	8004a26 <__retarget_lock_acquire_recursive>
 800663e:	89ab      	ldrh	r3, [r5, #12]
 8006640:	071b      	lsls	r3, r3, #28
 8006642:	d501      	bpl.n	8006648 <_vfiprintf_r+0x34>
 8006644:	692b      	ldr	r3, [r5, #16]
 8006646:	b99b      	cbnz	r3, 8006670 <_vfiprintf_r+0x5c>
 8006648:	4629      	mov	r1, r5
 800664a:	4630      	mov	r0, r6
 800664c:	f000 f938 	bl	80068c0 <__swsetup_r>
 8006650:	b170      	cbz	r0, 8006670 <_vfiprintf_r+0x5c>
 8006652:	6e6b      	ldr	r3, [r5, #100]	@ 0x64
 8006654:	07dc      	lsls	r4, r3, #31
 8006656:	d504      	bpl.n	8006662 <_vfiprintf_r+0x4e>
 8006658:	f04f 30ff 	mov.w	r0, #4294967295
 800665c:	b01d      	add	sp, #116	@ 0x74
 800665e:	e8bd 8ff0 	ldmia.w	sp!, {r4, r5, r6, r7, r8, r9, sl, fp, pc}
 8006662:	89ab      	ldrh	r3, [r5, #12]
 8006664:	0598      	lsls	r0, r3, #22
 8006666:	d4f7      	bmi.n	8006658 <_vfiprintf_r+0x44>
 8006668:	6da8      	ldr	r0, [r5, #88]	@ 0x58
 800666a:	f7fe f9dd 	bl	8004a28 <__retarget_lock_release_recursive>
 800666e:	e7f3      	b.n	8006658 <_vfiprintf_r+0x44>
 8006670:	2300      	movs	r3, #0
 8006672:	f8cd 800c 	str.w	r8, [sp, #12]
 8006676:	f04f 0901 	mov.w	r9, #1
 800667a:	f8df 81b4 	ldr.w	r8, [pc, #436]	@ 8006830 <_vfiprintf_r+0x21c>
 800667e:	9309      	str	r3, [sp, #36]	@ 0x24
 8006680:	2320      	movs	r3, #32
 8006682:	f88d 3029 	strb.w	r3, [sp, #41]	@ 0x29
 8006686:	2330      	movs	r3, #48	@ 0x30
 8006688:	f88d 302a 	strb.w	r3, [sp, #42]	@ 0x2a
 800668c:	4623      	mov	r3, r4
 800668e:	469a      	mov	sl, r3
 8006690:	f813 2b01 	ldrb.w	r2, [r3], #1
 8006694:	b10a      	cbz	r2, 800669a <_vfiprintf_r+0x86>
 8006696:	2a25      	cmp	r2, #37	@ 0x25
 8006698:	d1f9      	bne.n	800668e <_vfiprintf_r+0x7a>
 800669a:	ebba 0b04 	subs.w	fp, sl, r4
 800669e:	d00b      	beq.n	80066b8 <_vfiprintf_r+0xa4>
 80066a0:	465b      	mov	r3, fp
 80066a2:	4622      	mov	r2, r4
 80066a4:	4629      	mov	r1, r5
 80066a6:	4630      	mov	r0, r6
 80066a8:	f7ff ffa2 	bl	80065f0 <__sfputs_r>
 80066ac:	3001      	adds	r0, #1
 80066ae:	f000 80a7 	beq.w	8006800 <_vfiprintf_r+0x1ec>
 80066b2:	9a09      	ldr	r2, [sp, #36]	@ 0x24
 80066b4:	445a      	add	r2, fp
 80066b6:	9209      	str	r2, [sp, #36]	@ 0x24
 80066b8:	f89a 3000 	ldrb.w	r3, [sl]
 80066bc:	2b00      	cmp	r3, #0
 80066be:	f000 809f 	beq.w	8006800 <_vfiprintf_r+0x1ec>
 80066c2:	2300      	movs	r3, #0
 80066c4:	f04f 32ff 	mov.w	r2, #4294967295
 80066c8:	f10a 0a01 	add.w	sl, sl, #1
 80066cc:	9304      	str	r3, [sp, #16]
 80066ce:	9307      	str	r3, [sp, #28]
 80066d0:	f88d 3053 	strb.w	r3, [sp, #83]	@ 0x53
 80066d4:	931a      	str	r3, [sp, #104]	@ 0x68
 80066d6:	e9cd 2305 	strd	r2, r3, [sp, #20]
 80066da:	4654      	mov	r4, sl
 80066dc:	2205      	movs	r2, #5
 80066de:	4854      	ldr	r0, [pc, #336]	@ (8006830 <_vfiprintf_r+0x21c>)
 80066e0:	f814 1b01 	ldrb.w	r1, [r4], #1
 80066e4:	f7fe f9a1 	bl	8004a2a <memchr>
 80066e8:	9a04      	ldr	r2, [sp, #16]
 80066ea:	b9d8      	cbnz	r0, 8006724 <_vfiprintf_r+0x110>
 80066ec:	06d1      	lsls	r1, r2, #27
 80066ee:	bf44      	itt	mi
 80066f0:	2320      	movmi	r3, #32
 80066f2:	f88d 3053 	strbmi.w	r3, [sp, #83]	@ 0x53
 80066f6:	0713      	lsls	r3, r2, #28
 80066f8:	bf44      	itt	mi
 80066fa:	232b      	movmi	r3, #43	@ 0x2b
 80066fc:	f88d 3053 	strbmi.w	r3, [sp, #83]	@ 0x53
 8006700:	f89a 3000 	ldrb.w	r3, [sl]
 8006704:	2b2a      	cmp	r3, #42	@ 0x2a
 8006706:	d015      	beq.n	8006734 <_vfiprintf_r+0x120>
 8006708:	9a07      	ldr	r2, [sp, #28]
 800670a:	4654      	mov	r4, sl
 800670c:	2000      	movs	r0, #0
 800670e:	f04f 0c0a 	mov.w	ip, #10
 8006712:	4621      	mov	r1, r4
 8006714:	f811 3b01 	ldrb.w	r3, [r1], #1
 8006718:	3b30      	subs	r3, #48	@ 0x30
 800671a:	2b09      	cmp	r3, #9
 800671c:	d94b      	bls.n	80067b6 <_vfiprintf_r+0x1a2>
 800671e:	b1b0      	cbz	r0, 800674e <_vfiprintf_r+0x13a>
 8006720:	9207      	str	r2, [sp, #28]
 8006722:	e014      	b.n	800674e <_vfiprintf_r+0x13a>
 8006724:	eba0 0308 	sub.w	r3, r0, r8
 8006728:	46a2      	mov	sl, r4
 800672a:	fa09 f303 	lsl.w	r3, r9, r3
 800672e:	4313      	orrs	r3, r2
 8006730:	9304      	str	r3, [sp, #16]
 8006732:	e7d2      	b.n	80066da <_vfiprintf_r+0xc6>
 8006734:	9b03      	ldr	r3, [sp, #12]
 8006736:	1d19      	adds	r1, r3, #4
 8006738:	681b      	ldr	r3, [r3, #0]
 800673a:	2b00      	cmp	r3, #0
 800673c:	9103      	str	r1, [sp, #12]
 800673e:	bfbb      	ittet	lt
 8006740:	425b      	neglt	r3, r3
 8006742:	f042 0202 	orrlt.w	r2, r2, #2
 8006746:	9307      	strge	r3, [sp, #28]
 8006748:	9307      	strlt	r3, [sp, #28]
 800674a:	bfb8      	it	lt
 800674c:	9204      	strlt	r2, [sp, #16]
 800674e:	7823      	ldrb	r3, [r4, #0]
 8006750:	2b2e      	cmp	r3, #46	@ 0x2e
 8006752:	d10a      	bne.n	800676a <_vfiprintf_r+0x156>
 8006754:	7863      	ldrb	r3, [r4, #1]
 8006756:	2b2a      	cmp	r3, #42	@ 0x2a
 8006758:	d132      	bne.n	80067c0 <_vfiprintf_r+0x1ac>
 800675a:	9b03      	ldr	r3, [sp, #12]
 800675c:	3402      	adds	r4, #2
 800675e:	1d1a      	adds	r2, r3, #4
 8006760:	681b      	ldr	r3, [r3, #0]
 8006762:	ea43 73e3 	orr.w	r3, r3, r3, asr #31
 8006766:	9203      	str	r2, [sp, #12]
 8006768:	9305      	str	r3, [sp, #20]
 800676a:	f8df a0d4 	ldr.w	sl, [pc, #212]	@ 8006840 <_vfiprintf_r+0x22c>
 800676e:	2203      	movs	r2, #3
 8006770:	7821      	ldrb	r1, [r4, #0]
 8006772:	4650      	mov	r0, sl
 8006774:	f7fe f959 	bl	8004a2a <memchr>
 8006778:	b138      	cbz	r0, 800678a <_vfiprintf_r+0x176>
 800677a:	eba0 000a 	sub.w	r0, r0, sl
 800677e:	2240      	movs	r2, #64	@ 0x40
 8006780:	9b04      	ldr	r3, [sp, #16]
 8006782:	3401      	adds	r4, #1
 8006784:	4082      	lsls	r2, r0
 8006786:	4313      	orrs	r3, r2
 8006788:	9304      	str	r3, [sp, #16]
 800678a:	f814 1b01 	ldrb.w	r1, [r4], #1
 800678e:	2206      	movs	r2, #6
 8006790:	4828      	ldr	r0, [pc, #160]	@ (8006834 <_vfiprintf_r+0x220>)
 8006792:	f88d 1028 	strb.w	r1, [sp, #40]	@ 0x28
 8006796:	f7fe f948 	bl	8004a2a <memchr>
 800679a:	2800      	cmp	r0, #0
 800679c:	d03f      	beq.n	800681e <_vfiprintf_r+0x20a>
 800679e:	4b26      	ldr	r3, [pc, #152]	@ (8006838 <_vfiprintf_r+0x224>)
 80067a0:	bb1b      	cbnz	r3, 80067ea <_vfiprintf_r+0x1d6>
 80067a2:	9b03      	ldr	r3, [sp, #12]
 80067a4:	3307      	adds	r3, #7
 80067a6:	f023 0307 	bic.w	r3, r3, #7
 80067aa:	3308      	adds	r3, #8
 80067ac:	9303      	str	r3, [sp, #12]
 80067ae:	9b09      	ldr	r3, [sp, #36]	@ 0x24
 80067b0:	443b      	add	r3, r7
 80067b2:	9309      	str	r3, [sp, #36]	@ 0x24
 80067b4:	e76a      	b.n	800668c <_vfiprintf_r+0x78>
 80067b6:	fb0c 3202 	mla	r2, ip, r2, r3
 80067ba:	460c      	mov	r4, r1
 80067bc:	2001      	movs	r0, #1
 80067be:	e7a8      	b.n	8006712 <_vfiprintf_r+0xfe>
 80067c0:	2300      	movs	r3, #0
 80067c2:	3401      	adds	r4, #1
 80067c4:	f04f 0c0a 	mov.w	ip, #10
 80067c8:	4619      	mov	r1, r3
 80067ca:	9305      	str	r3, [sp, #20]
 80067cc:	4620      	mov	r0, r4
 80067ce:	f810 2b01 	ldrb.w	r2, [r0], #1
 80067d2:	3a30      	subs	r2, #48	@ 0x30
 80067d4:	2a09      	cmp	r2, #9
 80067d6:	d903      	bls.n	80067e0 <_vfiprintf_r+0x1cc>
 80067d8:	2b00      	cmp	r3, #0
 80067da:	d0c6      	beq.n	800676a <_vfiprintf_r+0x156>
 80067dc:	9105      	str	r1, [sp, #20]
 80067de:	e7c4      	b.n	800676a <_vfiprintf_r+0x156>
 80067e0:	fb0c 2101 	mla	r1, ip, r1, r2
 80067e4:	4604      	mov	r4, r0
 80067e6:	2301      	movs	r3, #1
 80067e8:	e7f0      	b.n	80067cc <_vfiprintf_r+0x1b8>
 80067ea:	ab03      	add	r3, sp, #12
 80067ec:	462a      	mov	r2, r5
 80067ee:	a904      	add	r1, sp, #16
 80067f0:	4630      	mov	r0, r6
 80067f2:	9300      	str	r3, [sp, #0]
 80067f4:	4b11      	ldr	r3, [pc, #68]	@ (800683c <_vfiprintf_r+0x228>)
 80067f6:	f7fd fbb9 	bl	8003f6c <_printf_float>
 80067fa:	4607      	mov	r7, r0
 80067fc:	1c78      	adds	r0, r7, #1
 80067fe:	d1d6      	bne.n	80067ae <_vfiprintf_r+0x19a>
 8006800:	6e6b      	ldr	r3, [r5, #100]	@ 0x64
 8006802:	07d9      	lsls	r1, r3, #31
 8006804:	d405      	bmi.n	8006812 <_vfiprintf_r+0x1fe>
 8006806:	89ab      	ldrh	r3, [r5, #12]
 8006808:	059a      	lsls	r2, r3, #22
 800680a:	d402      	bmi.n	8006812 <_vfiprintf_r+0x1fe>
 800680c:	6da8      	ldr	r0, [r5, #88]	@ 0x58
 800680e:	f7fe f90b 	bl	8004a28 <__retarget_lock_release_recursive>
 8006812:	89ab      	ldrh	r3, [r5, #12]
 8006814:	065b      	lsls	r3, r3, #25
 8006816:	f53f af1f 	bmi.w	8006658 <_vfiprintf_r+0x44>
 800681a:	9809      	ldr	r0, [sp, #36]	@ 0x24
 800681c:	e71e      	b.n	800665c <_vfiprintf_r+0x48>
 800681e:	ab03      	add	r3, sp, #12
 8006820:	462a      	mov	r2, r5
 8006822:	a904      	add	r1, sp, #16
 8006824:	4630      	mov	r0, r6
 8006826:	9300      	str	r3, [sp, #0]
 8006828:	4b04      	ldr	r3, [pc, #16]	@ (800683c <_vfiprintf_r+0x228>)
 800682a:	f7fd fe3b 	bl	80044a4 <_printf_i>
 800682e:	e7e4      	b.n	80067fa <_vfiprintf_r+0x1e6>
 8006830:	08006fe2 	.word	0x08006fe2
 8006834:	08006fec 	.word	0x08006fec
 8006838:	08003f6d 	.word	0x08003f6d
 800683c:	080065f1 	.word	0x080065f1
 8006840:	08006fe8 	.word	0x08006fe8

08006844 <__swbuf_r>:
 8006844:	b5f8      	push	{r3, r4, r5, r6, r7, lr}
 8006846:	460e      	mov	r6, r1
 8006848:	4614      	mov	r4, r2
 800684a:	4605      	mov	r5, r0
 800684c:	b118      	cbz	r0, 8006856 <__swbuf_r+0x12>
 800684e:	6a03      	ldr	r3, [r0, #32]
 8006850:	b90b      	cbnz	r3, 8006856 <__swbuf_r+0x12>
 8006852:	f7fd ffd1 	bl	80047f8 <__sinit>
 8006856:	69a3      	ldr	r3, [r4, #24]
 8006858:	60a3      	str	r3, [r4, #8]
 800685a:	89a3      	ldrh	r3, [r4, #12]
 800685c:	071a      	lsls	r2, r3, #28
 800685e:	d501      	bpl.n	8006864 <__swbuf_r+0x20>
 8006860:	6923      	ldr	r3, [r4, #16]
 8006862:	b943      	cbnz	r3, 8006876 <__swbuf_r+0x32>
 8006864:	4621      	mov	r1, r4
 8006866:	4628      	mov	r0, r5
 8006868:	f000 f82a 	bl	80068c0 <__swsetup_r>
 800686c:	b118      	cbz	r0, 8006876 <__swbuf_r+0x32>
 800686e:	f04f 37ff 	mov.w	r7, #4294967295
 8006872:	4638      	mov	r0, r7
 8006874:	bdf8      	pop	{r3, r4, r5, r6, r7, pc}
 8006876:	6823      	ldr	r3, [r4, #0]
 8006878:	b2f6      	uxtb	r6, r6
 800687a:	6922      	ldr	r2, [r4, #16]
 800687c:	4637      	mov	r7, r6
 800687e:	1a98      	subs	r0, r3, r2
 8006880:	6963      	ldr	r3, [r4, #20]
 8006882:	4283      	cmp	r3, r0
 8006884:	dc05      	bgt.n	8006892 <__swbuf_r+0x4e>
 8006886:	4621      	mov	r1, r4
 8006888:	4628      	mov	r0, r5
 800688a:	f7ff fd99 	bl	80063c0 <_fflush_r>
 800688e:	2800      	cmp	r0, #0
 8006890:	d1ed      	bne.n	800686e <__swbuf_r+0x2a>
 8006892:	68a3      	ldr	r3, [r4, #8]
 8006894:	3b01      	subs	r3, #1
 8006896:	60a3      	str	r3, [r4, #8]
 8006898:	6823      	ldr	r3, [r4, #0]
 800689a:	1c5a      	adds	r2, r3, #1
 800689c:	6022      	str	r2, [r4, #0]
 800689e:	701e      	strb	r6, [r3, #0]
 80068a0:	1c43      	adds	r3, r0, #1
 80068a2:	6962      	ldr	r2, [r4, #20]
 80068a4:	429a      	cmp	r2, r3
 80068a6:	d004      	beq.n	80068b2 <__swbuf_r+0x6e>
 80068a8:	89a3      	ldrh	r3, [r4, #12]
 80068aa:	07db      	lsls	r3, r3, #31
 80068ac:	d5e1      	bpl.n	8006872 <__swbuf_r+0x2e>
 80068ae:	2e0a      	cmp	r6, #10
 80068b0:	d1df      	bne.n	8006872 <__swbuf_r+0x2e>
 80068b2:	4621      	mov	r1, r4
 80068b4:	4628      	mov	r0, r5
 80068b6:	f7ff fd83 	bl	80063c0 <_fflush_r>
 80068ba:	2800      	cmp	r0, #0
 80068bc:	d0d9      	beq.n	8006872 <__swbuf_r+0x2e>
 80068be:	e7d6      	b.n	800686e <__swbuf_r+0x2a>

080068c0 <__swsetup_r>:
 80068c0:	b538      	push	{r3, r4, r5, lr}
 80068c2:	4b29      	ldr	r3, [pc, #164]	@ (8006968 <__swsetup_r+0xa8>)
 80068c4:	4605      	mov	r5, r0
 80068c6:	460c      	mov	r4, r1
 80068c8:	6818      	ldr	r0, [r3, #0]
 80068ca:	b118      	cbz	r0, 80068d4 <__swsetup_r+0x14>
 80068cc:	6a03      	ldr	r3, [r0, #32]
 80068ce:	b90b      	cbnz	r3, 80068d4 <__swsetup_r+0x14>
 80068d0:	f7fd ff92 	bl	80047f8 <__sinit>
 80068d4:	f9b4 300c 	ldrsh.w	r3, [r4, #12]
 80068d8:	0719      	lsls	r1, r3, #28
 80068da:	d422      	bmi.n	8006922 <__swsetup_r+0x62>
 80068dc:	06da      	lsls	r2, r3, #27
 80068de:	d407      	bmi.n	80068f0 <__swsetup_r+0x30>
 80068e0:	2209      	movs	r2, #9
 80068e2:	602a      	str	r2, [r5, #0]
 80068e4:	f043 0340 	orr.w	r3, r3, #64	@ 0x40
 80068e8:	f04f 30ff 	mov.w	r0, #4294967295
 80068ec:	81a3      	strh	r3, [r4, #12]
 80068ee:	e033      	b.n	8006958 <__swsetup_r+0x98>
 80068f0:	0758      	lsls	r0, r3, #29
 80068f2:	d512      	bpl.n	800691a <__swsetup_r+0x5a>
 80068f4:	6b61      	ldr	r1, [r4, #52]	@ 0x34
 80068f6:	b141      	cbz	r1, 800690a <__swsetup_r+0x4a>
 80068f8:	f104 0344 	add.w	r3, r4, #68	@ 0x44
 80068fc:	4299      	cmp	r1, r3
 80068fe:	d002      	beq.n	8006906 <__swsetup_r+0x46>
 8006900:	4628      	mov	r0, r5
 8006902:	f7fe feff 	bl	8005704 <_free_r>
 8006906:	2300      	movs	r3, #0
 8006908:	6363      	str	r3, [r4, #52]	@ 0x34
 800690a:	89a3      	ldrh	r3, [r4, #12]
 800690c:	f023 0324 	bic.w	r3, r3, #36	@ 0x24
 8006910:	81a3      	strh	r3, [r4, #12]
 8006912:	2300      	movs	r3, #0
 8006914:	6063      	str	r3, [r4, #4]
 8006916:	6923      	ldr	r3, [r4, #16]
 8006918:	6023      	str	r3, [r4, #0]
 800691a:	89a3      	ldrh	r3, [r4, #12]
 800691c:	f043 0308 	orr.w	r3, r3, #8
 8006920:	81a3      	strh	r3, [r4, #12]
 8006922:	6923      	ldr	r3, [r4, #16]
 8006924:	b94b      	cbnz	r3, 800693a <__swsetup_r+0x7a>
 8006926:	89a3      	ldrh	r3, [r4, #12]
 8006928:	f403 7320 	and.w	r3, r3, #640	@ 0x280
 800692c:	f5b3 7f00 	cmp.w	r3, #512	@ 0x200
 8006930:	d003      	beq.n	800693a <__swsetup_r+0x7a>
 8006932:	4621      	mov	r1, r4
 8006934:	4628      	mov	r0, r5
 8006936:	f000 f882 	bl	8006a3e <__smakebuf_r>
 800693a:	f9b4 300c 	ldrsh.w	r3, [r4, #12]
 800693e:	f013 0201 	ands.w	r2, r3, #1
 8006942:	d00a      	beq.n	800695a <__swsetup_r+0x9a>
 8006944:	2200      	movs	r2, #0
 8006946:	60a2      	str	r2, [r4, #8]
 8006948:	6962      	ldr	r2, [r4, #20]
 800694a:	4252      	negs	r2, r2
 800694c:	61a2      	str	r2, [r4, #24]
 800694e:	6922      	ldr	r2, [r4, #16]
 8006950:	b942      	cbnz	r2, 8006964 <__swsetup_r+0xa4>
 8006952:	f013 0080 	ands.w	r0, r3, #128	@ 0x80
 8006956:	d1c5      	bne.n	80068e4 <__swsetup_r+0x24>
 8006958:	bd38      	pop	{r3, r4, r5, pc}
 800695a:	0799      	lsls	r1, r3, #30
 800695c:	bf58      	it	pl
 800695e:	6962      	ldrpl	r2, [r4, #20]
 8006960:	60a2      	str	r2, [r4, #8]
 8006962:	e7f4      	b.n	800694e <__swsetup_r+0x8e>
 8006964:	2000      	movs	r0, #0
 8006966:	e7f7      	b.n	8006958 <__swsetup_r+0x98>
 8006968:	20000010 	.word	0x20000010

0800696c <_raise_r>:
 800696c:	291f      	cmp	r1, #31
 800696e:	b538      	push	{r3, r4, r5, lr}
 8006970:	4605      	mov	r5, r0
 8006972:	460c      	mov	r4, r1
 8006974:	d904      	bls.n	8006980 <_raise_r+0x14>
 8006976:	2316      	movs	r3, #22
 8006978:	6003      	str	r3, [r0, #0]
 800697a:	f04f 30ff 	mov.w	r0, #4294967295
 800697e:	bd38      	pop	{r3, r4, r5, pc}
 8006980:	6bc2      	ldr	r2, [r0, #60]	@ 0x3c
 8006982:	b112      	cbz	r2, 800698a <_raise_r+0x1e>
 8006984:	f852 3021 	ldr.w	r3, [r2, r1, lsl #2]
 8006988:	b94b      	cbnz	r3, 800699e <_raise_r+0x32>
 800698a:	4628      	mov	r0, r5
 800698c:	f000 f830 	bl	80069f0 <_getpid_r>
 8006990:	4622      	mov	r2, r4
 8006992:	4601      	mov	r1, r0
 8006994:	4628      	mov	r0, r5
 8006996:	e8bd 4038 	ldmia.w	sp!, {r3, r4, r5, lr}
 800699a:	f000 b817 	b.w	80069cc <_kill_r>
 800699e:	2b01      	cmp	r3, #1
 80069a0:	d00a      	beq.n	80069b8 <_raise_r+0x4c>
 80069a2:	1c59      	adds	r1, r3, #1
 80069a4:	d103      	bne.n	80069ae <_raise_r+0x42>
 80069a6:	2316      	movs	r3, #22
 80069a8:	6003      	str	r3, [r0, #0]
 80069aa:	2001      	movs	r0, #1
 80069ac:	e7e7      	b.n	800697e <_raise_r+0x12>
 80069ae:	2100      	movs	r1, #0
 80069b0:	4620      	mov	r0, r4
 80069b2:	f842 1024 	str.w	r1, [r2, r4, lsl #2]
 80069b6:	4798      	blx	r3
 80069b8:	2000      	movs	r0, #0
 80069ba:	e7e0      	b.n	800697e <_raise_r+0x12>

080069bc <raise>:
 80069bc:	4b02      	ldr	r3, [pc, #8]	@ (80069c8 <raise+0xc>)
 80069be:	4601      	mov	r1, r0
 80069c0:	6818      	ldr	r0, [r3, #0]
 80069c2:	f7ff bfd3 	b.w	800696c <_raise_r>
 80069c6:	bf00      	nop
 80069c8:	20000010 	.word	0x20000010

080069cc <_kill_r>:
 80069cc:	b538      	push	{r3, r4, r5, lr}
 80069ce:	2300      	movs	r3, #0
 80069d0:	4d06      	ldr	r5, [pc, #24]	@ (80069ec <_kill_r+0x20>)
 80069d2:	4604      	mov	r4, r0
 80069d4:	4608      	mov	r0, r1
 80069d6:	4611      	mov	r1, r2
 80069d8:	602b      	str	r3, [r5, #0]
 80069da:	f7fb fadb 	bl	8001f94 <_kill>
 80069de:	1c43      	adds	r3, r0, #1
 80069e0:	d102      	bne.n	80069e8 <_kill_r+0x1c>
 80069e2:	682b      	ldr	r3, [r5, #0]
 80069e4:	b103      	cbz	r3, 80069e8 <_kill_r+0x1c>
 80069e6:	6023      	str	r3, [r4, #0]
 80069e8:	bd38      	pop	{r3, r4, r5, pc}
 80069ea:	bf00      	nop
 80069ec:	200014a8 	.word	0x200014a8

080069f0 <_getpid_r>:
 80069f0:	f7fb bac8 	b.w	8001f84 <_getpid>

080069f4 <__swhatbuf_r>:
 80069f4:	b570      	push	{r4, r5, r6, lr}
 80069f6:	460c      	mov	r4, r1
 80069f8:	f9b1 100e 	ldrsh.w	r1, [r1, #14]
 80069fc:	b096      	sub	sp, #88	@ 0x58
 80069fe:	4615      	mov	r5, r2
 8006a00:	2900      	cmp	r1, #0
 8006a02:	461e      	mov	r6, r3
 8006a04:	da0c      	bge.n	8006a20 <__swhatbuf_r+0x2c>
 8006a06:	89a3      	ldrh	r3, [r4, #12]
 8006a08:	2100      	movs	r1, #0
 8006a0a:	f013 0f80 	tst.w	r3, #128	@ 0x80
 8006a0e:	bf14      	ite	ne
 8006a10:	2340      	movne	r3, #64	@ 0x40
 8006a12:	f44f 6380 	moveq.w	r3, #1024	@ 0x400
 8006a16:	2000      	movs	r0, #0
 8006a18:	6031      	str	r1, [r6, #0]
 8006a1a:	602b      	str	r3, [r5, #0]
 8006a1c:	b016      	add	sp, #88	@ 0x58
 8006a1e:	bd70      	pop	{r4, r5, r6, pc}
 8006a20:	466a      	mov	r2, sp
 8006a22:	f000 f849 	bl	8006ab8 <_fstat_r>
 8006a26:	2800      	cmp	r0, #0
 8006a28:	dbed      	blt.n	8006a06 <__swhatbuf_r+0x12>
 8006a2a:	9901      	ldr	r1, [sp, #4]
 8006a2c:	f401 4170 	and.w	r1, r1, #61440	@ 0xf000
 8006a30:	f5a1 5300 	sub.w	r3, r1, #8192	@ 0x2000
 8006a34:	4259      	negs	r1, r3
 8006a36:	4159      	adcs	r1, r3
 8006a38:	f44f 6380 	mov.w	r3, #1024	@ 0x400
 8006a3c:	e7eb      	b.n	8006a16 <__swhatbuf_r+0x22>

08006a3e <__smakebuf_r>:
 8006a3e:	898b      	ldrh	r3, [r1, #12]
 8006a40:	b5f7      	push	{r0, r1, r2, r4, r5, r6, r7, lr}
 8006a42:	079d      	lsls	r5, r3, #30
 8006a44:	4606      	mov	r6, r0
 8006a46:	460c      	mov	r4, r1
 8006a48:	d507      	bpl.n	8006a5a <__smakebuf_r+0x1c>
 8006a4a:	f104 0347 	add.w	r3, r4, #71	@ 0x47
 8006a4e:	6023      	str	r3, [r4, #0]
 8006a50:	6123      	str	r3, [r4, #16]
 8006a52:	2301      	movs	r3, #1
 8006a54:	6163      	str	r3, [r4, #20]
 8006a56:	b003      	add	sp, #12
 8006a58:	bdf0      	pop	{r4, r5, r6, r7, pc}
 8006a5a:	ab01      	add	r3, sp, #4
 8006a5c:	466a      	mov	r2, sp
 8006a5e:	f7ff ffc9 	bl	80069f4 <__swhatbuf_r>
 8006a62:	9f00      	ldr	r7, [sp, #0]
 8006a64:	4605      	mov	r5, r0
 8006a66:	4630      	mov	r0, r6
 8006a68:	4639      	mov	r1, r7
 8006a6a:	f7fe febf 	bl	80057ec <_malloc_r>
 8006a6e:	b948      	cbnz	r0, 8006a84 <__smakebuf_r+0x46>
 8006a70:	f9b4 300c 	ldrsh.w	r3, [r4, #12]
 8006a74:	059a      	lsls	r2, r3, #22
 8006a76:	d4ee      	bmi.n	8006a56 <__smakebuf_r+0x18>
 8006a78:	f023 0303 	bic.w	r3, r3, #3
 8006a7c:	f043 0302 	orr.w	r3, r3, #2
 8006a80:	81a3      	strh	r3, [r4, #12]
 8006a82:	e7e2      	b.n	8006a4a <__smakebuf_r+0xc>
 8006a84:	89a3      	ldrh	r3, [r4, #12]
 8006a86:	6020      	str	r0, [r4, #0]
 8006a88:	f043 0380 	orr.w	r3, r3, #128	@ 0x80
 8006a8c:	81a3      	strh	r3, [r4, #12]
 8006a8e:	9b01      	ldr	r3, [sp, #4]
 8006a90:	e9c4 0704 	strd	r0, r7, [r4, #16]
 8006a94:	b15b      	cbz	r3, 8006aae <__smakebuf_r+0x70>
 8006a96:	f9b4 100e 	ldrsh.w	r1, [r4, #14]
 8006a9a:	4630      	mov	r0, r6
 8006a9c:	f000 f81e 	bl	8006adc <_isatty_r>
 8006aa0:	b128      	cbz	r0, 8006aae <__smakebuf_r+0x70>
 8006aa2:	89a3      	ldrh	r3, [r4, #12]
 8006aa4:	f023 0303 	bic.w	r3, r3, #3
 8006aa8:	f043 0301 	orr.w	r3, r3, #1
 8006aac:	81a3      	strh	r3, [r4, #12]
 8006aae:	89a3      	ldrh	r3, [r4, #12]
 8006ab0:	431d      	orrs	r5, r3
 8006ab2:	81a5      	strh	r5, [r4, #12]
 8006ab4:	e7cf      	b.n	8006a56 <__smakebuf_r+0x18>
	...

08006ab8 <_fstat_r>:
 8006ab8:	b538      	push	{r3, r4, r5, lr}
 8006aba:	2300      	movs	r3, #0
 8006abc:	4d06      	ldr	r5, [pc, #24]	@ (8006ad8 <_fstat_r+0x20>)
 8006abe:	4604      	mov	r4, r0
 8006ac0:	4608      	mov	r0, r1
 8006ac2:	4611      	mov	r1, r2
 8006ac4:	602b      	str	r3, [r5, #0]
 8006ac6:	f7fb fac5 	bl	8002054 <_fstat>
 8006aca:	1c43      	adds	r3, r0, #1
 8006acc:	d102      	bne.n	8006ad4 <_fstat_r+0x1c>
 8006ace:	682b      	ldr	r3, [r5, #0]
 8006ad0:	b103      	cbz	r3, 8006ad4 <_fstat_r+0x1c>
 8006ad2:	6023      	str	r3, [r4, #0]
 8006ad4:	bd38      	pop	{r3, r4, r5, pc}
 8006ad6:	bf00      	nop
 8006ad8:	200014a8 	.word	0x200014a8

08006adc <_isatty_r>:
 8006adc:	b538      	push	{r3, r4, r5, lr}
 8006ade:	2300      	movs	r3, #0
 8006ae0:	4d05      	ldr	r5, [pc, #20]	@ (8006af8 <_isatty_r+0x1c>)
 8006ae2:	4604      	mov	r4, r0
 8006ae4:	4608      	mov	r0, r1
 8006ae6:	602b      	str	r3, [r5, #0]
 8006ae8:	f7fb fac4 	bl	8002074 <_isatty>
 8006aec:	1c43      	adds	r3, r0, #1
 8006aee:	d102      	bne.n	8006af6 <_isatty_r+0x1a>
 8006af0:	682b      	ldr	r3, [r5, #0]
 8006af2:	b103      	cbz	r3, 8006af6 <_isatty_r+0x1a>
 8006af4:	6023      	str	r3, [r4, #0]
 8006af6:	bd38      	pop	{r3, r4, r5, pc}
 8006af8:	200014a8 	.word	0x200014a8

08006afc <_init>:
 8006afc:	b5f8      	push	{r3, r4, r5, r6, r7, lr}
 8006afe:	bf00      	nop
 8006b00:	bcf8      	pop	{r3, r4, r5, r6, r7}
 8006b02:	bc08      	pop	{r3}
 8006b04:	469e      	mov	lr, r3
 8006b06:	4770      	bx	lr

08006b08 <_fini>:
 8006b08:	b5f8      	push	{r3, r4, r5, r6, r7, lr}
 8006b0a:	bf00      	nop
 8006b0c:	bcf8      	pop	{r3, r4, r5, r6, r7}
 8006b0e:	bc08      	pop	{r3}
 8006b10:	469e      	mov	lr, r3
 8006b12:	4770      	bx	lr
